
arch/arm/mach-sunxi/pm/standby/resume1.elf:     file format elf32-littlearm


Disassembly of section .text:

00000000 <resume_head>:
       0:	ea00000a 	b	30 <_start>
       4:	4e4f4765 	cdpmi	7, 4, cr4, cr15, cr5, {3}
       8:	3054422e 	subscc	r4, r4, lr, lsr #4
       c:	5f0a6c39 	svcpl	0x000a6c39
      10:	00000400 	andeq	r0, r0, r0, lsl #8
      14:	00000030 	andeq	r0, r0, r0, lsr r0
      18:	30303131 	eorscc	r3, r0, r1, lsr r1
      1c:	30333231 	eorscc	r3, r3, r1, lsr r2
      20:	30333231 	eorscc	r3, r3, r1, lsr r2
      24:	30303131 	eorscc	r3, r0, r1, lsr r1
	...

00000030 <_start>:
      30:	e10f0000 	mrs	r0, CPSR
      34:	e3c0001f 	bic	r0, r0, #31
      38:	e3800013 	orr	r0, r0, #19
      3c:	e38000c0 	orr	r0, r0, #192	; 0xc0
      40:	e3c00c02 	bic	r0, r0, #512	; 0x200
      44:	e121f000 	msr	CPSR_c, r0
      48:	ee110f10 	mrc	15, 0, r0, cr1, cr0, {0}
      4c:	e3c00005 	bic	r0, r0, #5
      50:	e3c00b06 	bic	r0, r0, #6144	; 0x1800
      54:	e3c00002 	bic	r0, r0, #2
      58:	ee010f10 	mcr	15, 0, r0, cr1, cr0, {0}
      5c:	f57ff04f 	dsb	sy
      60:	f57ff06f 	isb	sy
      64:	ee100fb0 	mrc	15, 0, r0, cr0, cr0, {5}
      68:	e7e10050 	ubfx	r0, r0, #0, #2
      6c:	e2800001 	add	r0, r0, #1
      70:	e1a00400 	lsl	r0, r0, #8
      74:	e280db0f 	add	sp, r0, #15360	; 0x3c00
      78:	f57ff04f 	dsb	sy
      7c:	f57ff06f 	isb	sy
      80:	eb000063 	bl	214 <set_pll>
      84:	eb000014 	bl	dc <resume1_c_part>
      88:	eafffffe 	b	88 <_start+0x58>

0000008c <mem_memcpy>:
      8c:	e2822003 	add	r2, r2, #3
      90:	e1a02142 	asr	r2, r2, #2
      94:	e3520000 	cmp	r2, #0
      98:	d12fff1e 	bxle	lr
      9c:	e2411004 	sub	r1, r1, #4
      a0:	e5b13004 	ldr	r3, [r1, #4]!
      a4:	e2522001 	subs	r2, r2, #1
      a8:	e4803004 	str	r3, [r0], #4
      ac:	1afffffb 	bne	a0 <mem_memcpy+0x14>
      b0:	e12fff1e 	bx	lr

000000b4 <mem_delay>:
      b4:	e92d000f 	push	{r0, r1, r2, r3}
      b8:	e3a01011 	mov	r1, #17
      bc:	e1a03000 	mov	r3, r0

000000c0 <loop2>:
      c0:	e2500001 	subs	r0, r0, #1
      c4:	8afffffd 	bhi	c0 <loop2>
      c8:	e1a00003 	mov	r0, r3
      cc:	e2511001 	subs	r1, r1, #1
      d0:	8afffffa 	bhi	c0 <loop2>
      d4:	e8bd000f 	pop	{r0, r1, r2, r3}
      d8:	e1a0f00e 	mov	pc, lr

000000dc <resume1_c_part>:
      dc:	e92d4038 	push	{r3, r4, r5, lr}
      e0:	e3a00047 	mov	r0, #71	; 0x47
      e4:	e59f4104 	ldr	r4, [pc, #260]	; 1f0 <resume1_c_part+0x114>
      e8:	eb00013e 	bl	5e8 <save_mem_status_nommu>
      ec:	eb00054b 	bl	1620 <set_copro_default>
      f0:	e3a00048 	mov	r0, #72	; 0x48
      f4:	eb00013b 	bl	5e8 <save_mem_status_nommu>
      f8:	e2840054 	add	r0, r4, #84	; 0x54
      fc:	eb000afd 	bl	2cf8 <mem_clk_setdiv>
     100:	e2840098 	add	r0, r4, #152	; 0x98
     104:	eb000b29 	bl	2db0 <mem_clk_set_pll_factor>
     108:	eb00019d 	bl	784 <change_runtime_env>
     10c:	e5940018 	ldr	r0, [r4, #24]
     110:	eb0001ca 	bl	840 <delay_ms>
     114:	e5943014 	ldr	r3, [r4, #20]
     118:	e3130002 	tst	r3, #2
     11c:	1a000015 	bne	178 <resume1_c_part+0x9c>
     120:	e59f50c8 	ldr	r5, [pc, #200]	; 1f0 <resume1_c_part+0x114>
     124:	e3a00049 	mov	r0, #73	; 0x49
     128:	eb00012e 	bl	5e8 <save_mem_status_nommu>
     12c:	e28500a0 	add	r0, r5, #160	; 0xa0
     130:	eb000214 	bl	988 <restore_mmu_state>
     134:	e3a0004a 	mov	r0, #74	; 0x4a
     138:	eb0000d2 	bl	488 <save_mem_status>
     13c:	e3a0004b 	mov	r0, #75	; 0x4b
     140:	eb0000d0 	bl	488 <save_mem_status>
     144:	eb0002d0 	bl	c8c <mem_flush_tlb>
     148:	e3a00001 	mov	r0, #1
     14c:	eb000abd 	bl	2c48 <mem_clk_init>
     150:	e5943014 	ldr	r3, [r4, #20]
     154:	e3130002 	tst	r3, #2
     158:	1a000009 	bne	184 <resume1_c_part+0xa8>
     15c:	e3a0004e 	mov	r0, #78	; 0x4e
     160:	eb0000c8 	bl	488 <save_mem_status>
     164:	e5940000 	ldr	r0, [r4]
     168:	e59f1084 	ldr	r1, [pc, #132]	; 1f4 <resume1_c_part+0x118>
     16c:	eb000337 	bl	e50 <jump_to_resume>
     170:	e3a00000 	mov	r0, #0
     174:	e8bd8038 	pop	{r3, r4, r5, pc}
     178:	e59f0078 	ldr	r0, [pc, #120]	; 1f8 <resume1_c_part+0x11c>
     17c:	eb0005e1 	bl	1908 <serial_puts_nommu>
     180:	eaffffe6 	b	120 <resume1_c_part+0x44>
     184:	e59f0070 	ldr	r0, [pc, #112]	; 1fc <resume1_c_part+0x120>
     188:	eb00065a 	bl	1af8 <serial_puts>
     18c:	eb00021f 	bl	a10 <get_cur_cluster_id>
     190:	e1a01000 	mov	r1, r0
     194:	e59f0064 	ldr	r0, [pc, #100]	; 200 <resume1_c_part+0x124>
     198:	eb000738 	bl	1e80 <printk>
     19c:	e5951014 	ldr	r1, [r5, #20]
     1a0:	e59f005c 	ldr	r0, [pc, #92]	; 204 <resume1_c_part+0x128>
     1a4:	eb000735 	bl	1e80 <printk>
     1a8:	e5951018 	ldr	r1, [r5, #24]
     1ac:	e59f0054 	ldr	r0, [pc, #84]	; 208 <resume1_c_part+0x12c>
     1b0:	eb000732 	bl	1e80 <printk>
     1b4:	e5953014 	ldr	r3, [r5, #20]
     1b8:	e3130008 	tst	r3, #8
     1bc:	e3a03000 	mov	r3, #0
     1c0:	130018b4 	movwne	r1, #2228	; 0x8b4
     1c4:	134f31c2 	movtne	r3, #61890	; 0xf1c2
     1c8:	03001824 	movweq	r1, #2084	; 0x824
     1cc:	034f31c2 	movteq	r3, #61890	; 0xf1c2
     1d0:	134f11c2 	movtne	r1, #61890	; 0xf1c2
     1d4:	159328b4 	ldrne	r2, [r3, #2228]	; 0x8b4
     1d8:	159f002c 	ldrne	r0, [pc, #44]	; 20c <resume1_c_part+0x130>
     1dc:	034f11c2 	movteq	r1, #61890	; 0xf1c2
     1e0:	059f0028 	ldreq	r0, [pc, #40]	; 210 <resume1_c_part+0x134>
     1e4:	05932824 	ldreq	r2, [r3, #2084]	; 0x824
     1e8:	eb000724 	bl	1e80 <printk>
     1ec:	eaffffda 	b	15c <resume1_c_part+0x80>
     1f0:	000033b0 			; <UNDEFINED> instruction: 0x000033b0
     1f4:	000033cc 	andeq	r3, r0, ip, asr #7
     1f8:	00003008 	andeq	r3, r0, r8
     1fc:	0000302c 	andeq	r3, r0, ip, lsr #32
     200:	0000305c 	andeq	r3, r0, ip, asr r0
     204:	00003078 	andeq	r3, r0, r8, ror r0
     208:	0000309c 	muleq	r0, ip, r0
     20c:	000030cc 	andeq	r3, r0, ip, asr #1
     210:	000030e4 	andeq	r3, r0, r4, ror #1

00000214 <set_pll>:
     214:	e92d4038 	push	{r3, r4, r5, lr}
     218:	ee100fb0 	mrc	15, 0, r0, cr0, cr0, {5}
     21c:	e2100003 	ands	r0, r0, #3
     220:	1a000036 	bne	300 <set_pll+0xec>
     224:	e59f2140 	ldr	r2, [pc, #320]	; 36c <set_pll+0x158>
     228:	e59f1140 	ldr	r1, [pc, #320]	; 370 <set_pll+0x15c>
     22c:	e5923000 	ldr	r3, [r2]
     230:	e4830004 	str	r0, [r3], #4
     234:	e1530001 	cmp	r3, r1
     238:	9afffffc 	bls	230 <set_pll+0x1c>
     23c:	e5823000 	str	r3, [r2]
     240:	e3a00000 	mov	r0, #0
     244:	e59f5128 	ldr	r5, [pc, #296]	; 374 <set_pll+0x160>
     248:	eb000a7e 	bl	2c48 <mem_clk_init>
     24c:	e1a04000 	mov	r4, r0
     250:	eb00005d 	bl	3cc <mem_status_init_nommu>
     254:	e3a00020 	mov	r0, #32
     258:	eb0000e2 	bl	5e8 <save_mem_status_nommu>
     25c:	e3a03801 	mov	r3, #65536	; 0x10000
     260:	e3a01000 	mov	r1, #0
     264:	e5843050 	str	r3, [r4, #80]	; 0x50
     268:	e1a00005 	mov	r0, r5
     26c:	e3441308 	movt	r1, #17160	; 0x4308
     270:	e3a020e8 	mov	r2, #232	; 0xe8
     274:	ebffff84 	bl	8c <mem_memcpy>
     278:	e3a00021 	mov	r0, #33	; 0x21
     27c:	eb0000d9 	bl	5e8 <save_mem_status_nommu>
     280:	e5953014 	ldr	r3, [r5, #20]
     284:	e3130004 	tst	r3, #4
     288:	1a00002d 	bne	344 <set_pll+0x130>
     28c:	e59f00e4 	ldr	r0, [pc, #228]	; 378 <set_pll+0x164>
     290:	eb000aed 	bl	2e4c <mem_clk_set_misc>
     294:	e3a00023 	mov	r0, #35	; 0x23
     298:	eb0000d2 	bl	5e8 <save_mem_status_nommu>
     29c:	e3a03c11 	mov	r3, #4352	; 0x1100
     2a0:	e3a00024 	mov	r0, #36	; 0x24
     2a4:	e3483200 	movt	r3, #33280	; 0x8200
     2a8:	e5843000 	str	r3, [r4]
     2ac:	eb0000cd 	bl	5e8 <save_mem_status_nommu>
     2b0:	e3a00001 	mov	r0, #1
     2b4:	e3a01000 	mov	r1, #0
     2b8:	eb00010e 	bl	6f8 <init_perfcounters>
     2bc:	eb000130 	bl	784 <change_runtime_env>
     2c0:	e3a0000a 	mov	r0, #10
     2c4:	eb00015d 	bl	840 <delay_ms>
     2c8:	e5950014 	ldr	r0, [r5, #20]
     2cc:	e3100002 	tst	r0, #2
     2d0:	1a000016 	bne	330 <set_pll+0x11c>
     2d4:	e3a00026 	mov	r0, #38	; 0x26
     2d8:	eb0000c2 	bl	5e8 <save_mem_status_nommu>
     2dc:	e5943050 	ldr	r3, [r4, #80]	; 0x50
     2e0:	e3a00027 	mov	r0, #39	; 0x27
     2e4:	e3833a01 	orr	r3, r3, #4096	; 0x1000
     2e8:	e5843050 	str	r3, [r4, #80]	; 0x50
     2ec:	eb0000bd 	bl	5e8 <save_mem_status_nommu>
     2f0:	eb000123 	bl	784 <change_runtime_env>
     2f4:	e3a00064 	mov	r0, #100	; 0x64
     2f8:	e8bd4038 	pop	{r3, r4, r5, lr}
     2fc:	ea00012d 	b	7b8 <delay_us>
     300:	e3a03000 	mov	r3, #0
     304:	ee083f33 	mcr	15, 0, r3, cr8, cr3, {1}
     308:	f57ff04f 	dsb	sy
     30c:	e300357d 	movw	r3, #1405	; 0x57d
     310:	e3a020ff 	mov	r2, #255	; 0xff
     314:	e340307c 	movt	r3, #124	; 0x7c
     318:	e0803003 	add	r3, r0, r3
     31c:	e1a03103 	lsl	r3, r3, #2
     320:	e5832000 	str	r2, [r3]
     324:	f57ff04f 	dsb	sy
     328:	e320f004 	sev
     32c:	eaffffe8 	b	2d4 <set_pll+0xc0>
     330:	e2000008 	and	r0, r0, #8
     334:	eb000552 	bl	1884 <serial_init_nommu>
     338:	e59f003c 	ldr	r0, [pc, #60]	; 37c <set_pll+0x168>
     33c:	eb000571 	bl	1908 <serial_puts_nommu>
     340:	eaffffe3 	b	2d4 <set_pll+0xc0>
     344:	e3130008 	tst	r3, #8
     348:	e3a03000 	mov	r3, #0
     34c:	13032033 	movwne	r2, #12339	; 0x3033
     350:	134031c2 	movtne	r3, #450	; 0x1c2
     354:	13402030 	movtne	r2, #48	; 0x30
     358:	034031c2 	movteq	r3, #450	; 0x1c2
     35c:	03032333 	movweq	r2, #13107	; 0x3333
     360:	158328b4 	strne	r2, [r3, #2228]	; 0x8b4
     364:	05832824 	streq	r2, [r3, #2084]	; 0x824
     368:	eaffffc7 	b	28c <set_pll+0x78>
     36c:	000031a4 	andeq	r3, r0, r4, lsr #3
     370:	000035b4 			; <UNDEFINED> instruction: 0x000035b4
     374:	000033b0 			; <UNDEFINED> instruction: 0x000033b0
     378:	0000340c 	andeq	r3, r0, ip, lsl #8
     37c:	000030fc 	strdeq	r3, [r0], -ip

00000380 <busy_waiting>:
     380:	e24dd008 	sub	sp, sp, #8
     384:	e3a03001 	mov	r3, #1
     388:	e58d3004 	str	r3, [sp, #4]
     38c:	e59d3004 	ldr	r3, [sp, #4]
     390:	e3530001 	cmp	r3, #1
     394:	0afffffc 	beq	38c <busy_waiting+0xc>
     398:	e28dd008 	add	sp, sp, #8
     39c:	e12fff1e 	bx	lr

000003a0 <save_mem_flag>:
     3a0:	e12fff1e 	bx	lr

000003a4 <clear_mem_flag>:
     3a4:	e12fff1e 	bx	lr

000003a8 <mem_status_init>:
     3a8:	e30115f0 	movw	r1, #5616	; 0x15f0
     3ac:	e30331a8 	movw	r3, #12712	; 0x31a8
     3b0:	e1a02001 	mov	r2, r1
     3b4:	e3403000 	movt	r3, #0
     3b8:	e34f11f0 	movt	r1, #61936	; 0xf1f0
     3bc:	e34021f0 	movt	r2, #496	; 0x1f0
     3c0:	e3a00001 	mov	r0, #1
     3c4:	e8830006 	stm	r3, {r1, r2}
     3c8:	ea0009c0 	b	2ad0 <hwspinlock_init>

000003cc <mem_status_init_nommu>:
     3cc:	e30115f0 	movw	r1, #5616	; 0x15f0
     3d0:	e30331a8 	movw	r3, #12712	; 0x31a8
     3d4:	e1a02001 	mov	r2, r1
     3d8:	e3403000 	movt	r3, #0
     3dc:	e34f11f0 	movt	r1, #61936	; 0xf1f0
     3e0:	e34021f0 	movt	r2, #496	; 0x1f0
     3e4:	e3a00000 	mov	r0, #0
     3e8:	e8830006 	stm	r3, {r1, r2}
     3ec:	ea0009b7 	b	2ad0 <hwspinlock_init>

000003f0 <mem_status_clear>:
     3f0:	e92d4010 	push	{r4, lr}
     3f4:	e3a00002 	mov	r0, #2
     3f8:	e59f4080 	ldr	r4, [pc, #128]	; 480 <mem_status_clear+0x90>
     3fc:	e3041e20 	movw	r1, #20000	; 0x4e20
     400:	e5943000 	ldr	r3, [r4]
     404:	e5933000 	ldr	r3, [r3]
     408:	e5843008 	str	r3, [r4, #8]
     40c:	eb0009bb 	bl	2b00 <hwspin_lock_timeout>
     410:	e3500000 	cmp	r0, #0
     414:	18bd8010 	popne	{r4, pc}
     418:	e5942000 	ldr	r2, [r4]
     41c:	e3a01001 	mov	r1, #1
     420:	e5943008 	ldr	r3, [r4, #8]
     424:	e281c001 	add	ip, r1, #1
     428:	e7d13811 	bfi	r3, r1, #16, #2
     42c:	e21c1003 	ands	r1, ip, #3
     430:	e5843008 	str	r3, [r4, #8]
     434:	e5c40009 	strb	r0, [r4, #9]
     438:	e594c008 	ldr	ip, [r4, #8]
     43c:	e1a0300c 	mov	r3, ip
     440:	e582c000 	str	ip, [r2]
     444:	e7df3f9f 	bfc	r3, #31, #1
     448:	e5843008 	str	r3, [r4, #8]
     44c:	e5823000 	str	r3, [r2]
     450:	e5943008 	ldr	r3, [r4, #8]
     454:	e3833102 	orr	r3, r3, #-2147483648	; 0x80000000
     458:	e5843008 	str	r3, [r4, #8]
     45c:	e5823000 	str	r3, [r2]
     460:	e5943008 	ldr	r3, [r4, #8]
     464:	e7df3f9f 	bfc	r3, #31, #1
     468:	e5843008 	str	r3, [r4, #8]
     46c:	e5823000 	str	r3, [r2]
     470:	1affffea 	bne	420 <mem_status_clear+0x30>
     474:	e3a00002 	mov	r0, #2
     478:	e8bd4010 	pop	{r4, lr}
     47c:	ea0009be 	b	2b7c <hwspin_unlock>
     480:	000031a8 	andeq	r3, r0, r8, lsr #3

00000484 <mem_status_exit>:
     484:	e12fff1e 	bx	lr

00000488 <save_mem_status>:
     488:	e92d4010 	push	{r4, lr}
     48c:	e24dd008 	sub	sp, sp, #8
     490:	e58d0004 	str	r0, [sp, #4]
     494:	e3041e20 	movw	r1, #20000	; 0x4e20
     498:	e3a00002 	mov	r0, #2
     49c:	eb000997 	bl	2b00 <hwspin_lock_timeout>
     4a0:	e2503000 	subs	r3, r0, #0
     4a4:	1a000017 	bne	508 <save_mem_status+0x80>
     4a8:	e59f2068 	ldr	r2, [pc, #104]	; 518 <save_mem_status+0x90>
     4ac:	e3a04001 	mov	r4, #1
     4b0:	e59de004 	ldr	lr, [sp, #4]
     4b4:	e3a00002 	mov	r0, #2
     4b8:	e592c008 	ldr	ip, [r2, #8]
     4bc:	e5921000 	ldr	r1, [r2]
     4c0:	e7d1c814 	bfi	ip, r4, #16, #2
     4c4:	e582c008 	str	ip, [r2, #8]
     4c8:	e5c2e009 	strb	lr, [r2, #9]
     4cc:	e592e008 	ldr	lr, [r2, #8]
     4d0:	e1a0c00e 	mov	ip, lr
     4d4:	e581e000 	str	lr, [r1]
     4d8:	e7dfcf93 	bfi	ip, r3, #31, #1
     4dc:	e582c008 	str	ip, [r2, #8]
     4e0:	e581c000 	str	ip, [r1]
     4e4:	e592c008 	ldr	ip, [r2, #8]
     4e8:	e38cc102 	orr	ip, ip, #-2147483648	; 0x80000000
     4ec:	e582c008 	str	ip, [r2, #8]
     4f0:	e581c000 	str	ip, [r1]
     4f4:	e592c008 	ldr	ip, [r2, #8]
     4f8:	e7dfcf93 	bfi	ip, r3, #31, #1
     4fc:	e582c008 	str	ip, [r2, #8]
     500:	e581c000 	str	ip, [r1]
     504:	eb00099c 	bl	2b7c <hwspin_unlock>
     508:	f57ff04f 	dsb	sy
     50c:	f57ff06f 	isb	sy
     510:	e28dd008 	add	sp, sp, #8
     514:	e8bd8010 	pop	{r4, pc}
     518:	000031a8 	andeq	r3, r0, r8, lsr #3

0000051c <get_mem_status>:
     51c:	e92d4010 	push	{r4, lr}
     520:	e3a02001 	mov	r2, #1
     524:	e59f4040 	ldr	r4, [pc, #64]	; 56c <get_mem_status+0x50>
     528:	e3a00002 	mov	r0, #2
     52c:	e3041e20 	movw	r1, #20000	; 0x4e20
     530:	e5943008 	ldr	r3, [r4, #8]
     534:	e7d13812 	bfi	r3, r2, #16, #2
     538:	e5843008 	str	r3, [r4, #8]
     53c:	eb00096f 	bl	2b00 <hwspin_lock_timeout>
     540:	e3500000 	cmp	r0, #0
     544:	1a000006 	bne	564 <get_mem_status+0x48>
     548:	e5943000 	ldr	r3, [r4]
     54c:	e3a00002 	mov	r0, #2
     550:	e5942008 	ldr	r2, [r4, #8]
     554:	e5832000 	str	r2, [r3]
     558:	e5933000 	ldr	r3, [r3]
     55c:	e5843008 	str	r3, [r4, #8]
     560:	eb000985 	bl	2b7c <hwspin_unlock>
     564:	e5d40008 	ldrb	r0, [r4, #8]
     568:	e8bd8010 	pop	{r4, pc}
     56c:	000031a8 	andeq	r3, r0, r8, lsr #3

00000570 <show_mem_status>:
     570:	e92d4070 	push	{r4, r5, r6, lr}
     574:	e3a04001 	mov	r4, #1
     578:	e59f5060 	ldr	r5, [pc, #96]	; 5e0 <show_mem_status+0x70>
     57c:	e1a06005 	mov	r6, r5
     580:	e5953008 	ldr	r3, [r5, #8]
     584:	e3041e20 	movw	r1, #20000	; 0x4e20
     588:	e3a00002 	mov	r0, #2
     58c:	e7d13814 	bfi	r3, r4, #16, #2
     590:	e5853008 	str	r3, [r5, #8]
     594:	eb000959 	bl	2b00 <hwspin_lock_timeout>
     598:	e3500000 	cmp	r0, #0
     59c:	0a000007 	beq	5c0 <show_mem_status+0x50>
     5a0:	e1a01004 	mov	r1, r4
     5a4:	e59f0038 	ldr	r0, [pc, #56]	; 5e4 <show_mem_status+0x74>
     5a8:	e5d52008 	ldrb	r2, [r5, #8]
     5ac:	e2844001 	add	r4, r4, #1
     5b0:	eb000632 	bl	1e80 <printk>
     5b4:	e3540004 	cmp	r4, #4
     5b8:	1afffff0 	bne	580 <show_mem_status+0x10>
     5bc:	e8bd8070 	pop	{r4, r5, r6, pc}
     5c0:	e5963000 	ldr	r3, [r6]
     5c4:	e3a00002 	mov	r0, #2
     5c8:	e5962008 	ldr	r2, [r6, #8]
     5cc:	e5832000 	str	r2, [r3]
     5d0:	e5933000 	ldr	r3, [r3]
     5d4:	e5863008 	str	r3, [r6, #8]
     5d8:	eb000967 	bl	2b7c <hwspin_unlock>
     5dc:	eaffffef 	b	5a0 <show_mem_status+0x30>
     5e0:	000031a8 	andeq	r3, r0, r8, lsr #3
     5e4:	00003110 	andeq	r3, r0, r0, lsl r1

000005e8 <save_mem_status_nommu>:
     5e8:	e92d4030 	push	{r4, r5, lr}
     5ec:	e24dd00c 	sub	sp, sp, #12
     5f0:	e58d0004 	str	r0, [sp, #4]
     5f4:	e3041e20 	movw	r1, #20000	; 0x4e20
     5f8:	e3a00002 	mov	r0, #2
     5fc:	eb00096a 	bl	2bac <hwspin_lock_timeout_nommu>
     600:	e250c000 	subs	ip, r0, #0
     604:	0a000001 	beq	610 <save_mem_status_nommu+0x28>
     608:	e28dd00c 	add	sp, sp, #12
     60c:	e8bd8030 	pop	{r4, r5, pc}
     610:	e59f3060 	ldr	r3, [pc, #96]	; 678 <save_mem_status_nommu+0x90>
     614:	e3a05001 	mov	r5, #1
     618:	e59d4004 	ldr	r4, [sp, #4]
     61c:	e3a00002 	mov	r0, #2
     620:	e593100c 	ldr	r1, [r3, #12]
     624:	e5932004 	ldr	r2, [r3, #4]
     628:	e7d11815 	bfi	r1, r5, #16, #2
     62c:	e583100c 	str	r1, [r3, #12]
     630:	e5c3400d 	strb	r4, [r3, #13]
     634:	e593400c 	ldr	r4, [r3, #12]
     638:	e1a01004 	mov	r1, r4
     63c:	e5824000 	str	r4, [r2]
     640:	e7df1f9c 	bfi	r1, ip, #31, #1
     644:	e583100c 	str	r1, [r3, #12]
     648:	e5821000 	str	r1, [r2]
     64c:	e593100c 	ldr	r1, [r3, #12]
     650:	e3811102 	orr	r1, r1, #-2147483648	; 0x80000000
     654:	e583100c 	str	r1, [r3, #12]
     658:	e5821000 	str	r1, [r2]
     65c:	e593100c 	ldr	r1, [r3, #12]
     660:	e7df1f9c 	bfi	r1, ip, #31, #1
     664:	e583100c 	str	r1, [r3, #12]
     668:	e5821000 	str	r1, [r2]
     66c:	e28dd00c 	add	sp, sp, #12
     670:	e8bd4030 	pop	{r4, r5, lr}
     674:	ea000967 	b	2c18 <hwspin_unlock_nommu>
     678:	000031a8 	andeq	r3, r0, r8, lsr #3

0000067c <io_init>:
     67c:	e3a03000 	mov	r3, #0
     680:	e3012111 	movw	r2, #4369	; 0x1111
     684:	e34f31c2 	movt	r3, #61890	; 0xf1c2
     688:	e3402011 	movt	r2, #17
     68c:	e5832890 	str	r2, [r3, #2192]	; 0x890
     690:	e12fff1e 	bx	lr

00000694 <io_init_high>:
     694:	e3a03000 	mov	r3, #0
     698:	e34f31c2 	movt	r3, #61890	; 0xf1c2
     69c:	e59328a0 	ldr	r2, [r3, #2208]	; 0x8a0
     6a0:	e382203f 	orr	r2, r2, #63	; 0x3f
     6a4:	e58328a0 	str	r2, [r3, #2208]	; 0x8a0
     6a8:	e12fff1e 	bx	lr

000006ac <io_init_low>:
     6ac:	e3a03000 	mov	r3, #0
     6b0:	e34f31c2 	movt	r3, #61890	; 0xf1c2
     6b4:	e59328a0 	ldr	r2, [r3, #2208]	; 0x8a0
     6b8:	e3c2203f 	bic	r2, r2, #63	; 0x3f
     6bc:	e58328a0 	str	r2, [r3, #2208]	; 0x8a0
     6c0:	e12fff1e 	bx	lr

000006c4 <io_high>:
     6c4:	e92d4070 	push	{r4, r5, r6, lr}
     6c8:	e3a04000 	mov	r4, #0
     6cc:	e34f41c2 	movt	r4, #61890	; 0xf1c2
     6d0:	e3a05001 	mov	r5, #1
     6d4:	e1a05015 	lsl	r5, r5, r0
     6d8:	e3020710 	movw	r0, #10000	; 0x2710
     6dc:	e59468a0 	ldr	r6, [r4, #2208]	; 0x8a0
     6e0:	e1c66005 	bic	r6, r6, r5
     6e4:	e58468a0 	str	r6, [r4, #2208]	; 0x8a0
     6e8:	e1865005 	orr	r5, r6, r5
     6ec:	eb000031 	bl	7b8 <delay_us>
     6f0:	e58458a0 	str	r5, [r4, #2208]	; 0x8a0
     6f4:	e8bd8070 	pop	{r4, r5, r6, pc}

000006f8 <init_perfcounters>:
     6f8:	e3500000 	cmp	r0, #0
     6fc:	13a00007 	movne	r0, #7
     700:	03a00001 	moveq	r0, #1
     704:	e3510000 	cmp	r1, #0
     708:	13800008 	orrne	r0, r0, #8
     70c:	e3800010 	orr	r0, r0, #16
     710:	ee090f1c 	mcr	15, 0, r0, cr9, cr12, {0}
     714:	e3a0313e 	mov	r3, #-2147483633	; 0x8000000f
     718:	ee093f3c 	mcr	15, 0, r3, cr9, cr12, {1}
     71c:	ee093f7c 	mcr	15, 0, r3, cr9, cr12, {3}
     720:	f57ff04f 	dsb	sy
     724:	f57ff06f 	isb	sy
     728:	e12fff1e 	bx	lr

0000072c <backup_perfcounter>:
     72c:	ee192f1c 	mrc	15, 0, r2, cr9, cr12, {0}
     730:	e30331bc 	movw	r3, #12732	; 0x31bc
     734:	e3403000 	movt	r3, #0
     738:	e5832000 	str	r2, [r3]
     73c:	ee192f3c 	mrc	15, 0, r2, cr9, cr12, {1}
     740:	e5832004 	str	r2, [r3, #4]
     744:	e12fff1e 	bx	lr

00000748 <restore_perfcounter>:
     748:	e30331bc 	movw	r3, #12732	; 0x31bc
     74c:	e3403000 	movt	r3, #0
     750:	e5933000 	ldr	r3, [r3]
     754:	ee093f1c 	mcr	15, 0, r3, cr9, cr12, {0}
     758:	e30331bc 	movw	r3, #12732	; 0x31bc
     75c:	e3403000 	movt	r3, #0
     760:	e5933004 	ldr	r3, [r3, #4]
     764:	ee093f3c 	mcr	15, 0, r3, cr9, cr12, {1}
     768:	e12fff1e 	bx	lr

0000076c <get_cyclecount>:
     76c:	ee190f1d 	mrc	15, 0, r0, cr9, cr13, {0}
     770:	e12fff1e 	bx	lr

00000774 <reset_counter>:
     774:	ee193f1c 	mrc	15, 0, r3, cr9, cr12, {0}
     778:	e3833004 	orr	r3, r3, #4
     77c:	ee093f1c 	mcr	15, 0, r3, cr9, cr12, {0}
     780:	e12fff1e 	bx	lr

00000784 <change_runtime_env>:
     784:	e92d4010 	push	{r4, lr}
     788:	ee192f1d 	mrc	15, 0, r2, cr9, cr13, {0}
     78c:	ee193f1d 	mrc	15, 0, r3, cr9, cr13, {0}
     790:	e59f401c 	ldr	r4, [pc, #28]	; 7b4 <change_runtime_env+0x30>
     794:	e1520003 	cmp	r2, r3
     798:	81e02002 	mvnhi	r2, r2
     79c:	90623003 	rsbls	r3, r2, r3
     7a0:	80823003 	addhi	r3, r2, r3
     7a4:	e5843008 	str	r3, [r4, #8]
     7a8:	eb0009f8 	bl	2f90 <mem_clk_get_cpu_freq>
     7ac:	e584000c 	str	r0, [r4, #12]
     7b0:	e8bd8010 	pop	{r4, pc}
     7b4:	000031bc 			; <UNDEFINED> instruction: 0x000031bc

000007b8 <delay_us>:
     7b8:	e92d4038 	push	{r3, r4, r5, lr}
     7bc:	e1a05000 	mov	r5, r0
     7c0:	e59f4074 	ldr	r4, [pc, #116]	; 83c <delay_us+0x84>
     7c4:	e594000c 	ldr	r0, [r4, #12]
     7c8:	e3500ffa 	cmp	r0, #1000	; 0x3e8
     7cc:	8a000002 	bhi	7dc <delay_us+0x24>
     7d0:	f57ff05f 	dmb	sy
     7d4:	f57ff06f 	isb	sy
     7d8:	e8bd8038 	pop	{r3, r4, r5, pc}
     7dc:	e3a01ffa 	mov	r1, #1000	; 0x3e8
     7e0:	eb000788 	bl	2608 <raw_lib_udiv>
     7e4:	ee193f1d 	mrc	15, 0, r3, cr9, cr13, {0}
     7e8:	e5942008 	ldr	r2, [r4, #8]
     7ec:	e0255590 	mla	r5, r0, r5, r5
     7f0:	e0622003 	rsb	r2, r2, r3
     7f4:	e0825005 	add	r5, r2, r5
     7f8:	ee192f3c 	mrc	15, 0, r2, cr9, cr12, {1}
     7fc:	e202213e 	and	r2, r2, #-2147483633	; 0x8000000f
     800:	e352013e 	cmp	r2, #-2147483633	; 0x8000000f
     804:	0a000008 	beq	82c <delay_us+0x74>
     808:	e3a02017 	mov	r2, #23
     80c:	ee092f1c 	mcr	15, 0, r2, cr9, cr12, {0}
     810:	e3a0213e 	mov	r2, #-2147483633	; 0x8000000f
     814:	ee092f3c 	mcr	15, 0, r2, cr9, cr12, {1}
     818:	ee092f7c 	mcr	15, 0, r2, cr9, cr12, {3}
     81c:	f57ff04f 	dsb	sy
     820:	f57ff06f 	isb	sy
     824:	ea000000 	b	82c <delay_us+0x74>
     828:	ee193f1d 	mrc	15, 0, r3, cr9, cr13, {0}
     82c:	e0653003 	rsb	r3, r5, r3
     830:	e3530000 	cmp	r3, #0
     834:	bafffffb 	blt	828 <delay_us+0x70>
     838:	eaffffe4 	b	7d0 <delay_us+0x18>
     83c:	000031bc 			; <UNDEFINED> instruction: 0x000031bc

00000840 <delay_ms>:
     840:	e350000a 	cmp	r0, #10
     844:	e92d4010 	push	{r4, lr}
     848:	e1a04000 	mov	r4, r0
     84c:	9a000004 	bls	864 <delay_ms+0x24>
     850:	e3020710 	movw	r0, #10000	; 0x2710
     854:	e244400a 	sub	r4, r4, #10
     858:	ebffffd6 	bl	7b8 <delay_us>
     85c:	e354000a 	cmp	r4, #10
     860:	8afffffa 	bhi	850 <delay_ms+0x10>
     864:	e3a00ffa 	mov	r0, #1000	; 0x3e8
     868:	e0000490 	mul	r0, r0, r4
     86c:	e8bd4010 	pop	{r4, lr}
     870:	eaffffd0 	b	7b8 <delay_us>

00000874 <init_event_counter>:
     874:	e3500000 	cmp	r0, #0
     878:	13a00007 	movne	r0, #7
     87c:	03a00001 	moveq	r0, #1
     880:	e3510000 	cmp	r1, #0
     884:	13800008 	orrne	r0, r0, #8
     888:	e3800010 	orr	r0, r0, #16
     88c:	ee090f1c 	mcr	15, 0, r0, cr9, cr12, {0}
     890:	e3a0313e 	mov	r3, #-2147483633	; 0x8000000f
     894:	ee093f3c 	mcr	15, 0, r3, cr9, cr12, {1}
     898:	ee093f7c 	mcr	15, 0, r3, cr9, cr12, {3}
     89c:	e12fff1e 	bx	lr

000008a0 <set_event_counter>:
     8a0:	e2403002 	sub	r3, r0, #2
     8a4:	e3530003 	cmp	r3, #3
     8a8:	959f2018 	ldrls	r2, [pc, #24]	; 8c8 <set_event_counter+0x28>
     8ac:	83a03000 	movhi	r3, #0
     8b0:	97923103 	ldrls	r3, [r2, r3, lsl #2]
     8b4:	ee093fbc 	mcr	15, 0, r3, cr9, cr12, {5}
     8b8:	ee090f3d 	mcr	15, 0, r0, cr9, cr13, {1}
     8bc:	f57ff04f 	dsb	sy
     8c0:	f57ff06f 	isb	sy
     8c4:	e12fff1e 	bx	lr
     8c8:	00002fec 	andeq	r2, r0, ip, ror #31

000008cc <get_event_counter>:
     8cc:	e2400002 	sub	r0, r0, #2
     8d0:	e3500003 	cmp	r0, #3
     8d4:	959f3018 	ldrls	r3, [pc, #24]	; 8f4 <get_event_counter+0x28>
     8d8:	83a03000 	movhi	r3, #0
     8dc:	97933100 	ldrls	r3, [r3, r0, lsl #2]
     8e0:	ee093fbc 	mcr	15, 0, r3, cr9, cr12, {5}
     8e4:	ee190f5d 	mrc	15, 0, r0, cr9, cr13, {2}
     8e8:	f57ff04f 	dsb	sy
     8ec:	f57ff06f 	isb	sy
     8f0:	e12fff1e 	bx	lr
     8f4:	00002fec 	andeq	r2, r0, ip, ror #31
	...

00000900 <save_mmu_state>:
     900:	ee503f10 	mrc	15, 2, r3, cr0, cr0, {0}
     904:	e5803000 	str	r3, [r0]
     908:	ee113f50 	mrc	15, 0, r3, cr1, cr0, {2}
     90c:	e5803008 	str	r3, [r0, #8]
     910:	ee133f10 	mrc	15, 0, r3, cr3, cr0, {0}
     914:	e5803018 	str	r3, [r0, #24]
     918:	ee123f10 	mrc	15, 0, r3, cr2, cr0, {0}
     91c:	e580300c 	str	r3, [r0, #12]
     920:	ee123f30 	mrc	15, 0, r3, cr2, cr0, {1}
     924:	e5803010 	str	r3, [r0, #16]
     928:	ee123f50 	mrc	15, 0, r3, cr2, cr0, {2}
     92c:	e5803014 	str	r3, [r0, #20]
     930:	ee113f10 	mrc	15, 0, r3, cr1, cr0, {0}
     934:	e5803004 	str	r3, [r0, #4]
     938:	e12fff1e 	bx	lr

0000093c <restore_secure_mmu_state>:
     93c:	e5903000 	ldr	r3, [r0]
     940:	ee403f10 	mcr	15, 2, r3, cr0, cr0, {0}
     944:	e5903008 	ldr	r3, [r0, #8]
     948:	ee013f50 	mcr	15, 0, r3, cr1, cr0, {2}
     94c:	e5903018 	ldr	r3, [r0, #24]
     950:	ee033f10 	mcr	15, 0, r3, cr3, cr0, {0}
     954:	e590300c 	ldr	r3, [r0, #12]
     958:	ee023f10 	mcr	15, 0, r3, cr2, cr0, {0}
     95c:	e5903010 	ldr	r3, [r0, #16]
     960:	ee023f30 	mcr	15, 0, r3, cr2, cr0, {1}
     964:	e5903014 	ldr	r3, [r0, #20]
     968:	ee023f50 	mcr	15, 0, r3, cr2, cr0, {2}
     96c:	e5903004 	ldr	r3, [r0, #4]
     970:	ee013f10 	mcr	15, 0, r3, cr1, cr0, {0}
     974:	ee103f10 	mrc	15, 0, r3, cr0, cr0, {0}
     978:	e1a03003 	mov	r3, r3
     97c:	e1a03003 	mov	r3, r3
     980:	f57ff06f 	isb	sy
     984:	e12fff1e 	bx	lr

00000988 <restore_mmu_state>:
     988:	e5903000 	ldr	r3, [r0]
     98c:	ee403f10 	mcr	15, 2, r3, cr0, cr0, {0}
     990:	e5903008 	ldr	r3, [r0, #8]
     994:	ee013f50 	mcr	15, 0, r3, cr1, cr0, {2}
     998:	e5903018 	ldr	r3, [r0, #24]
     99c:	ee033f10 	mcr	15, 0, r3, cr3, cr0, {0}
     9a0:	e5903010 	ldr	r3, [r0, #16]
     9a4:	ee023f10 	mcr	15, 0, r3, cr2, cr0, {0}
     9a8:	ee023f30 	mcr	15, 0, r3, cr2, cr0, {1}
     9ac:	e5903014 	ldr	r3, [r0, #20]
     9b0:	ee023f50 	mcr	15, 0, r3, cr2, cr0, {2}
     9b4:	ea000001 	b	9c0 <__turn_mmu_on>
     9b8:	e320f000 	nop	{0}
     9bc:	e320f000 	nop	{0}

000009c0 <__turn_mmu_on>:
     9c0:	e1a00000 	nop			; (mov r0, r0)
     9c4:	e5903004 	ldr	r3, [r0, #4]
     9c8:	ee013f10 	mcr	15, 0, r3, cr1, cr0, {0}
     9cc:	ee103f10 	mrc	15, 0, r3, cr0, cr0, {0}
     9d0:	e1a03003 	mov	r3, r3
     9d4:	e1a03003 	mov	r3, r3
     9d8:	f57ff06f 	isb	sy
     9dc:	e12fff1e 	bx	lr

000009e0 <save_sp>:
     9e0:	e1a0000d 	mov	r0, sp
     9e4:	e59fd4bc 	ldr	sp, [pc, #1212]	; ea8 <jump_to_resume0_nommu+0x28>
     9e8:	e1a0f00e 	mov	pc, lr

000009ec <save_sp_nommu>:
     9ec:	e1a0000d 	mov	r0, sp
     9f0:	e59fd4b4 	ldr	sp, [pc, #1204]	; eac <jump_to_resume0_nommu+0x2c>
     9f4:	e1a0f00e 	mov	pc, lr

000009f8 <restore_sp>:
     9f8:	e1a0d000 	mov	sp, r0
     9fc:	e1a0f00e 	mov	pc, lr

00000a00 <get_sp>:
     a00:	e1a0000d 	mov	r0, sp
     a04:	e1a0f00e 	mov	pc, lr
     a08:	e320f000 	nop	{0}
     a0c:	e320f000 	nop	{0}

00000a10 <get_cur_cluster_id>:
     a10:	ee100fb0 	mrc	15, 0, r0, cr0, cr0, {5}
     a14:	e7e30450 	ubfx	r0, r0, #8, #4
     a18:	e1a0f00e 	mov	pc, lr
     a1c:	e320f000 	nop	{0}

00000a20 <invalidate_dcache>:
     a20:	f57ff05f 	dmb	sy
     a24:	ee300f30 	mrc	15, 1, r0, cr0, cr0, {1}
     a28:	e2103407 	ands	r3, r0, #117440512	; 0x7000000
     a2c:	e1a03ba3 	lsr	r3, r3, #23
     a30:	0a00001a 	beq	aa0 <inv_finished>
     a34:	e3a0a000 	mov	sl, #0

00000a38 <inv_loop1>:
     a38:	e08a20aa 	add	r2, sl, sl, lsr #1
     a3c:	e1a01230 	lsr	r1, r0, r2
     a40:	e2011007 	and	r1, r1, #7
     a44:	e3510002 	cmp	r1, #2
     a48:	ba000011 	blt	a94 <inv_skip>
     a4c:	ee40af10 	mcr	15, 2, sl, cr0, cr0, {0}
     a50:	f57ff06f 	isb	sy
     a54:	ee301f10 	mrc	15, 1, r1, cr0, cr0, {0}
     a58:	e2012007 	and	r2, r1, #7
     a5c:	e2822004 	add	r2, r2, #4
     a60:	e59f4448 	ldr	r4, [pc, #1096]	; eb0 <jump_to_resume0_nommu+0x30>
     a64:	e01441a1 	ands	r4, r4, r1, lsr #3
     a68:	e16f5f14 	clz	r5, r4
     a6c:	e59f7440 	ldr	r7, [pc, #1088]	; eb4 <jump_to_resume0_nommu+0x34>
     a70:	e01776a1 	ands	r7, r7, r1, lsr #13

00000a74 <inv_loop2>:
     a74:	e1a09004 	mov	r9, r4

00000a78 <inv_loop3>:
     a78:	e18ab519 	orr	fp, sl, r9, lsl r5
     a7c:	e18bb217 	orr	fp, fp, r7, lsl r2
     a80:	ee07bf56 	mcr	15, 0, fp, cr7, cr6, {2}
     a84:	e2599001 	subs	r9, r9, #1
     a88:	aafffffa 	bge	a78 <inv_loop3>
     a8c:	e2577001 	subs	r7, r7, #1
     a90:	aafffff7 	bge	a74 <inv_loop2>

00000a94 <inv_skip>:
     a94:	e28aa002 	add	sl, sl, #2
     a98:	e153000a 	cmp	r3, sl
     a9c:	caffffe5 	bgt	a38 <inv_loop1>

00000aa0 <inv_finished>:
     aa0:	e3a0a000 	mov	sl, #0
     aa4:	ee40af10 	mcr	15, 2, sl, cr0, cr0, {0}
     aa8:	f57ff04f 	dsb	sy
     aac:	f57ff06f 	isb	sy
     ab0:	e1a0f00e 	mov	pc, lr

00000ab4 <invalidate_icache>:
     ab4:	e3a00000 	mov	r0, #0
     ab8:	ee070f11 	mcr	15, 0, r0, cr7, cr1, {0}
     abc:	ee070f15 	mcr	15, 0, r0, cr7, cr5, {0}
     ac0:	f57ff04f 	dsb	sy
     ac4:	f57ff06f 	isb	sy
     ac8:	e1a0f00e 	mov	pc, lr

00000acc <flush_dcache>:
     acc:	e92d1fff 	push	{r0, r1, r2, r3, r4, r5, r6, r7, r8, r9, sl, fp, ip}
     ad0:	f57ff05f 	dmb	sy
     ad4:	ee300f30 	mrc	15, 1, r0, cr0, cr0, {1}
     ad8:	e2103407 	ands	r3, r0, #117440512	; 0x7000000
     adc:	e1a03ba3 	lsr	r3, r3, #23
     ae0:	0a00001a 	beq	b50 <finished>
     ae4:	e3a0a000 	mov	sl, #0

00000ae8 <loop1>:
     ae8:	e08a20aa 	add	r2, sl, sl, lsr #1
     aec:	e1a01230 	lsr	r1, r0, r2
     af0:	e2011007 	and	r1, r1, #7
     af4:	e3510002 	cmp	r1, #2
     af8:	ba000011 	blt	b44 <skip>
     afc:	ee40af10 	mcr	15, 2, sl, cr0, cr0, {0}
     b00:	f57ff06f 	isb	sy
     b04:	ee301f10 	mrc	15, 1, r1, cr0, cr0, {0}
     b08:	e2012007 	and	r2, r1, #7
     b0c:	e2822004 	add	r2, r2, #4
     b10:	e59f4398 	ldr	r4, [pc, #920]	; eb0 <jump_to_resume0_nommu+0x30>
     b14:	e01441a1 	ands	r4, r4, r1, lsr #3
     b18:	e16f5f14 	clz	r5, r4
     b1c:	e59f7390 	ldr	r7, [pc, #912]	; eb4 <jump_to_resume0_nommu+0x34>
     b20:	e01776a1 	ands	r7, r7, r1, lsr #13

00000b24 <loop2>:
     b24:	e1a09004 	mov	r9, r4

00000b28 <loop3>:
     b28:	e18ab519 	orr	fp, sl, r9, lsl r5
     b2c:	e18bb217 	orr	fp, fp, r7, lsl r2
     b30:	ee07bf5e 	mcr	15, 0, fp, cr7, cr14, {2}
     b34:	e2599001 	subs	r9, r9, #1
     b38:	aafffffa 	bge	b28 <loop3>
     b3c:	e2577001 	subs	r7, r7, #1
     b40:	aafffff7 	bge	b24 <loop2>

00000b44 <skip>:
     b44:	e28aa002 	add	sl, sl, #2
     b48:	e153000a 	cmp	r3, sl
     b4c:	caffffe5 	bgt	ae8 <loop1>

00000b50 <finished>:
     b50:	e3a0a000 	mov	sl, #0
     b54:	ee40af10 	mcr	15, 2, sl, cr0, cr0, {0}
     b58:	f57ff04f 	dsb	sy
     b5c:	f57ff06f 	isb	sy
     b60:	e8bd1fff 	pop	{r0, r1, r2, r3, r4, r5, r6, r7, r8, r9, sl, fp, ip}
     b64:	e1a0f00e 	mov	pc, lr

00000b68 <flush_icache>:
     b68:	e92d000f 	push	{r0, r1, r2, r3}
     b6c:	e3a00000 	mov	r0, #0
     b70:	ee070f15 	mcr	15, 0, r0, cr7, cr5, {0}
     b74:	ee070f11 	mcr	15, 0, r0, cr7, cr1, {0}
     b78:	ee070fd1 	mcr	15, 0, r0, cr7, cr1, {6}
     b7c:	f57ff06f 	isb	sy
     b80:	f57ff04f 	dsb	sy
     b84:	e8bd000f 	pop	{r0, r1, r2, r3}
     b88:	e1a0f00e 	mov	pc, lr

00000b8c <disable_cache>:
     b8c:	e92d000f 	push	{r0, r1, r2, r3}
     b90:	ee110f10 	mrc	15, 0, r0, cr1, cr0, {0}
     b94:	e3c00a01 	bic	r0, r0, #4096	; 0x1000
     b98:	e3c00004 	bic	r0, r0, #4
     b9c:	ee010f10 	mcr	15, 0, r0, cr1, cr0, {0}
     ba0:	f57ff06f 	isb	sy
     ba4:	e8bd000f 	pop	{r0, r1, r2, r3}
     ba8:	e1a0f00e 	mov	pc, lr

00000bac <disable_dcache>:
     bac:	e92d000f 	push	{r0, r1, r2, r3}
     bb0:	ee110f10 	mrc	15, 0, r0, cr1, cr0, {0}
     bb4:	e3c00004 	bic	r0, r0, #4
     bb8:	ee010f10 	mcr	15, 0, r0, cr1, cr0, {0}
     bbc:	f57ff06f 	isb	sy
     bc0:	e8bd000f 	pop	{r0, r1, r2, r3}
     bc4:	e1a0f00e 	mov	pc, lr

00000bc8 <disable_icache>:
     bc8:	e92d000f 	push	{r0, r1, r2, r3}
     bcc:	ee110f10 	mrc	15, 0, r0, cr1, cr0, {0}
     bd0:	e3c00a01 	bic	r0, r0, #4096	; 0x1000
     bd4:	ee010f10 	mcr	15, 0, r0, cr1, cr0, {0}
     bd8:	f57ff06f 	isb	sy
     bdc:	e8bd000f 	pop	{r0, r1, r2, r3}
     be0:	e1a0f00e 	mov	pc, lr

00000be4 <disable_l2cache>:
     be4:	e92d000f 	push	{r0, r1, r2, r3}
     be8:	ee110f30 	mrc	15, 0, r0, cr1, cr0, {1}
     bec:	e3c00002 	bic	r0, r0, #2
     bf0:	ee010f30 	mcr	15, 0, r0, cr1, cr0, {1}
     bf4:	f57ff06f 	isb	sy
     bf8:	e8bd000f 	pop	{r0, r1, r2, r3}
     bfc:	e1a0f00e 	mov	pc, lr

00000c00 <enable_cache>:
     c00:	e92d000f 	push	{r0, r1, r2, r3}
     c04:	ee110f10 	mrc	15, 0, r0, cr1, cr0, {0}
     c08:	e3800a01 	orr	r0, r0, #4096	; 0x1000
     c0c:	e3800004 	orr	r0, r0, #4
     c10:	ee010f10 	mcr	15, 0, r0, cr1, cr0, {0}
     c14:	f57ff06f 	isb	sy
     c18:	e8bd000f 	pop	{r0, r1, r2, r3}
     c1c:	e1a0f00e 	mov	pc, lr

00000c20 <enable_icache>:
     c20:	e92d000f 	push	{r0, r1, r2, r3}
     c24:	ee110f10 	mrc	15, 0, r0, cr1, cr0, {0}
     c28:	e3800a01 	orr	r0, r0, #4096	; 0x1000
     c2c:	ee010f10 	mcr	15, 0, r0, cr1, cr0, {0}
     c30:	f57ff06f 	isb	sy
     c34:	e8bd000f 	pop	{r0, r1, r2, r3}
     c38:	e1a0f00e 	mov	pc, lr

00000c3c <invalidate_branch_predictor>:
     c3c:	e92d000f 	push	{r0, r1, r2, r3}
     c40:	e3a00000 	mov	r0, #0
     c44:	ee070fd5 	mcr	15, 0, r0, cr7, cr5, {6}
     c48:	f57ff06f 	isb	sy
     c4c:	e8bd000f 	pop	{r0, r1, r2, r3}
     c50:	e1a0f00e 	mov	pc, lr

00000c54 <disable_program_flow_prediction>:
     c54:	e92d000f 	push	{r0, r1, r2, r3}
     c58:	ee110f10 	mrc	15, 0, r0, cr1, cr0, {0}
     c5c:	e3c00b02 	bic	r0, r0, #2048	; 0x800
     c60:	ee010f10 	mcr	15, 0, r0, cr1, cr0, {0}
     c64:	f57ff06f 	isb	sy
     c68:	e8bd000f 	pop	{r0, r1, r2, r3}
     c6c:	e1a0f00e 	mov	pc, lr

00000c70 <enable_program_flow_prediction>:
     c70:	e92d000f 	push	{r0, r1, r2, r3}
     c74:	ee110f10 	mrc	15, 0, r0, cr1, cr0, {0}
     c78:	e3800b02 	orr	r0, r0, #2048	; 0x800
     c7c:	ee010f10 	mcr	15, 0, r0, cr1, cr0, {0}
     c80:	f57ff06f 	isb	sy
     c84:	e8bd000f 	pop	{r0, r1, r2, r3}
     c88:	e1a0f00e 	mov	pc, lr

00000c8c <mem_flush_tlb>:
     c8c:	e92d000f 	push	{r0, r1, r2, r3}
     c90:	e3a00000 	mov	r0, #0
     c94:	ee080f15 	mcr	15, 0, r0, cr8, cr5, {0}
     c98:	ee080f16 	mcr	15, 0, r0, cr8, cr6, {0}
     c9c:	ee080f13 	mcr	15, 0, r0, cr8, cr3, {0}
     ca0:	f57ff04f 	dsb	sy
     ca4:	f57ff06f 	isb	sy
     ca8:	e8bd000f 	pop	{r0, r1, r2, r3}
     cac:	e1a0f00e 	mov	pc, lr

00000cb0 <mem_preload_tlb>:
     cb0:	e92d000f 	push	{r0, r1, r2, r3}
     cb4:	e3a0020f 	mov	r0, #-268435456	; 0xf0000000
     cb8:	e5901000 	ldr	r1, [r0]
     cbc:	e59f01f4 	ldr	r0, [pc, #500]	; eb8 <jump_to_resume0_nommu+0x38>
     cc0:	e5901000 	ldr	r1, [r0]
     cc4:	e59f01f0 	ldr	r0, [pc, #496]	; ebc <jump_to_resume0_nommu+0x3c>
     cc8:	e5901000 	ldr	r1, [r0]
     ccc:	e59f01ec 	ldr	r0, [pc, #492]	; ec0 <jump_to_resume0_nommu+0x40>
     cd0:	e5901000 	ldr	r1, [r0]
     cd4:	e59f01e8 	ldr	r0, [pc, #488]	; ec4 <jump_to_resume0_nommu+0x44>
     cd8:	e5901000 	ldr	r1, [r0]
     cdc:	e59f01e4 	ldr	r0, [pc, #484]	; ec8 <jump_to_resume0_nommu+0x48>
     ce0:	e5901000 	ldr	r1, [r0]
     ce4:	e59f01e0 	ldr	r0, [pc, #480]	; ecc <jump_to_resume0_nommu+0x4c>
     ce8:	e5901000 	ldr	r1, [r0]
     cec:	e59f01dc 	ldr	r0, [pc, #476]	; ed0 <jump_to_resume0_nommu+0x50>
     cf0:	e5901000 	ldr	r1, [r0]
     cf4:	e59f01d8 	ldr	r0, [pc, #472]	; ed4 <jump_to_resume0_nommu+0x54>
     cf8:	e5901000 	ldr	r1, [r0]
     cfc:	e59f01d4 	ldr	r0, [pc, #468]	; ed8 <jump_to_resume0_nommu+0x58>
     d00:	e5901000 	ldr	r1, [r0]
     d04:	e59f01d0 	ldr	r0, [pc, #464]	; edc <jump_to_resume0_nommu+0x5c>
     d08:	e5901000 	ldr	r1, [r0]
     d0c:	e59f01cc 	ldr	r0, [pc, #460]	; ee0 <jump_to_resume0_nommu+0x60>
     d10:	e5901000 	ldr	r1, [r0]
     d14:	e59f01c8 	ldr	r0, [pc, #456]	; ee4 <jump_to_resume0_nommu+0x64>
     d18:	e5901000 	ldr	r1, [r0]
     d1c:	e59f01c4 	ldr	r0, [pc, #452]	; ee8 <jump_to_resume0_nommu+0x68>
     d20:	e5901000 	ldr	r1, [r0]
     d24:	e59f01c0 	ldr	r0, [pc, #448]	; eec <jump_to_resume0_nommu+0x6c>
     d28:	e5901000 	ldr	r1, [r0]
     d2c:	e59f01bc 	ldr	r0, [pc, #444]	; ef0 <jump_to_resume0_nommu+0x70>
     d30:	e5901000 	ldr	r1, [r0]
     d34:	e59f01b8 	ldr	r0, [pc, #440]	; ef4 <jump_to_resume0_nommu+0x74>
     d38:	e5901000 	ldr	r1, [r0]
     d3c:	e59f01b4 	ldr	r0, [pc, #436]	; ef8 <jump_to_resume0_nommu+0x78>
     d40:	e5901000 	ldr	r1, [r0]
     d44:	e59f01b0 	ldr	r0, [pc, #432]	; efc <jump_to_resume0_nommu+0x7c>
     d48:	e5901000 	ldr	r1, [r0]
     d4c:	e59f01ac 	ldr	r0, [pc, #428]	; f00 <jump_to_resume0_nommu+0x80>
     d50:	e5901000 	ldr	r1, [r0]
     d54:	e59f01a8 	ldr	r0, [pc, #424]	; f04 <jump_to_resume0_nommu+0x84>
     d58:	e5901000 	ldr	r1, [r0]
     d5c:	e59f01a4 	ldr	r0, [pc, #420]	; f08 <jump_to_resume0_nommu+0x88>
     d60:	e5901000 	ldr	r1, [r0]
     d64:	e59f01a0 	ldr	r0, [pc, #416]	; f0c <jump_to_resume0_nommu+0x8c>
     d68:	e5901000 	ldr	r1, [r0]
     d6c:	e59f019c 	ldr	r0, [pc, #412]	; f10 <jump_to_resume0_nommu+0x90>
     d70:	e5901000 	ldr	r1, [r0]
     d74:	e59f0198 	ldr	r0, [pc, #408]	; f14 <jump_to_resume0_nommu+0x94>
     d78:	e5901000 	ldr	r1, [r0]
     d7c:	e59f0194 	ldr	r0, [pc, #404]	; f18 <jump_to_resume0_nommu+0x98>
     d80:	e5901000 	ldr	r1, [r0]
     d84:	e59f0190 	ldr	r0, [pc, #400]	; f1c <jump_to_resume0_nommu+0x9c>
     d88:	e5901000 	ldr	r1, [r0]
     d8c:	e59f018c 	ldr	r0, [pc, #396]	; f20 <jump_to_resume0_nommu+0xa0>
     d90:	e5901000 	ldr	r1, [r0]
     d94:	e59f0188 	ldr	r0, [pc, #392]	; f24 <jump_to_resume0_nommu+0xa4>
     d98:	e5901000 	ldr	r1, [r0]
     d9c:	e3a0020f 	mov	r0, #-268435456	; 0xf0000000
     da0:	e5901000 	ldr	r1, [r0]
     da4:	e59f017c 	ldr	r0, [pc, #380]	; f28 <jump_to_resume0_nommu+0xa8>
     da8:	e5901000 	ldr	r1, [r0]
     dac:	f57ff04f 	dsb	sy
     db0:	f57ff06f 	isb	sy
     db4:	e8bd000f 	pop	{r0, r1, r2, r3}
     db8:	e1a0f00e 	mov	pc, lr

00000dbc <disable_mmu>:
     dbc:	ee111f10 	mrc	15, 0, r1, cr1, cr0, {0}
     dc0:	e3c11a01 	bic	r1, r1, #4096	; 0x1000
     dc4:	e3c11005 	bic	r1, r1, #5
     dc8:	ea000004 	b	de0 <__turn_mmu_off>
     dcc:	e320f000 	nop	{0}
     dd0:	e320f000 	nop	{0}
     dd4:	e320f000 	nop	{0}
     dd8:	e320f000 	nop	{0}
     ddc:	e320f000 	nop	{0}

00000de0 <__turn_mmu_off>:
     de0:	ee011f10 	mcr	15, 0, r1, cr1, cr0, {0}
     de4:	ee103f10 	mrc	15, 0, r3, cr0, cr0, {0}
     de8:	e1a03003 	mov	r3, r3
     dec:	e1a03003 	mov	r3, r3
     df0:	e1a0f00e 	mov	pc, lr

00000df4 <enable_mmu>:
     df4:	ee111f10 	mrc	15, 0, r1, cr1, cr0, {0}
     df8:	e3811a01 	orr	r1, r1, #4096	; 0x1000
     dfc:	e3811005 	orr	r1, r1, #5
     e00:	ea000006 	b	e20 <__turn_mmu_on>
     e04:	e320f000 	nop	{0}
     e08:	e320f000 	nop	{0}
     e0c:	e320f000 	nop	{0}
     e10:	e320f000 	nop	{0}
     e14:	e320f000 	nop	{0}
     e18:	e320f000 	nop	{0}
     e1c:	e320f000 	nop	{0}

00000e20 <__turn_mmu_on>:
     e20:	ee011f10 	mcr	15, 0, r1, cr1, cr0, {0}
     e24:	ee103f10 	mrc	15, 0, r3, cr0, cr0, {0}
     e28:	e1a03003 	mov	r3, r3
     e2c:	e1a03003 	mov	r3, r3
     e30:	e1a0f00e 	mov	pc, lr

00000e34 <jump_to_suspend>:
     e34:	ee020f10 	mcr	15, 0, r0, cr2, cr0, {0}
     e38:	f57ff04f 	dsb	sy
     e3c:	f57ff06f 	isb	sy
     e40:	e1a0f001 	mov	pc, r1
     e44:	e320f000 	nop	{0}
     e48:	e320f000 	nop	{0}
     e4c:	e320f000 	nop	{0}

00000e50 <jump_to_resume>:
     e50:	e1a0c000 	mov	ip, r0
     e54:	e1a08001 	mov	r8, r1
     e58:	ebfffef0 	bl	a20 <invalidate_dcache>
     e5c:	e1a01008 	mov	r1, r8
     e60:	e1a0e00c 	mov	lr, ip
     e64:	e8913fff 	ldm	r1, {r0, r1, r2, r3, r4, r5, r6, r7, r8, r9, sl, fp, ip, sp}
     e68:	e1a0f00e 	mov	pc, lr
     e6c:	e320f000 	nop	{0}

00000e70 <jump_to_resume0>:
     e70:	e1a0e000 	mov	lr, r0
     e74:	e1a0f00e 	mov	pc, lr
     e78:	e320f000 	nop	{0}
     e7c:	e320f000 	nop	{0}

00000e80 <jump_to_resume0_nommu>:
     e80:	ee111f10 	mrc	15, 0, r1, cr1, cr0, {0}
     e84:	e3c11a01 	bic	r1, r1, #4096	; 0x1000
     e88:	e3c11007 	bic	r1, r1, #7
     e8c:	ee011f10 	mcr	15, 0, r1, cr1, cr0, {0}
     e90:	ee103f10 	mrc	15, 0, r3, cr0, cr0, {0}
     e94:	e1a03003 	mov	r3, r3
     e98:	e1a03003 	mov	r3, r3
     e9c:	e1a0e000 	mov	lr, r0
     ea0:	f57ff06f 	isb	sy
     ea4:	e1a0f00e 	mov	pc, lr
     ea8:	f0003ffc 			; <UNDEFINED> instruction: 0xf0003ffc
     eac:	00003ffc 	strdeq	r3, [r0], -ip
     eb0:	000003ff 	strdeq	r0, [r0], -pc	; <UNPREDICTABLE>
     eb4:	00007fff 	strdeq	r7, [r0], -pc	; <UNPREDICTABLE>
     eb8:	f0001000 			; <UNDEFINED> instruction: 0xf0001000
     ebc:	f0002000 			; <UNDEFINED> instruction: 0xf0002000
     ec0:	f0003000 			; <UNDEFINED> instruction: 0xf0003000
     ec4:	f0040000 			; <UNDEFINED> instruction: 0xf0040000
     ec8:	f0041000 			; <UNDEFINED> instruction: 0xf0041000
     ecc:	f0042000 			; <UNDEFINED> instruction: 0xf0042000
     ed0:	f0043000 			; <UNDEFINED> instruction: 0xf0043000
     ed4:	f0044000 			; <UNDEFINED> instruction: 0xf0044000
     ed8:	f0045000 			; <UNDEFINED> instruction: 0xf0045000
     edc:	f0046000 			; <UNDEFINED> instruction: 0xf0046000
     ee0:	f0047000 			; <UNDEFINED> instruction: 0xf0047000
     ee4:	f0048000 			; <UNDEFINED> instruction: 0xf0048000
     ee8:	f0049000 			; <UNDEFINED> instruction: 0xf0049000
     eec:	f004a000 			; <UNDEFINED> instruction: 0xf004a000
     ef0:	f004b000 			; <UNDEFINED> instruction: 0xf004b000
     ef4:	f004c000 			; <UNDEFINED> instruction: 0xf004c000
     ef8:	f004d000 			; <UNDEFINED> instruction: 0xf004d000
     efc:	f004e000 			; <UNDEFINED> instruction: 0xf004e000
     f00:	f004f000 			; <UNDEFINED> instruction: 0xf004f000
     f04:	f0050000 			; <UNDEFINED> instruction: 0xf0050000
     f08:	f0051000 			; <UNDEFINED> instruction: 0xf0051000
     f0c:	f0052000 			; <UNDEFINED> instruction: 0xf0052000
     f10:	f0053000 			; <UNDEFINED> instruction: 0xf0053000
     f14:	f1c17000 			; <UNDEFINED> instruction: 0xf1c17000
     f18:	f1c18000 			; <UNDEFINED> instruction: 0xf1c18000
     f1c:	f1c20800 			; <UNDEFINED> instruction: 0xf1c20800
     f20:	f1f01400 			; <UNDEFINED> instruction: 0xf1f01400
     f24:	f1c28000 			; <UNDEFINED> instruction: 0xf1c28000
     f28:	f1c20000 			; <UNDEFINED> instruction: 0xf1c20000
     f2c:	e320f000 	nop	{0}
     f30:	e320f000 	nop	{0}
     f34:	e320f000 	nop	{0}
     f38:	e320f000 	nop	{0}
     f3c:	e320f000 	nop	{0}

00000f40 <__save_processor_state>:
     f40:	ee503f10 	mrc	15, 2, r3, cr0, cr0, {0}
     f44:	e1a02c23 	lsr	r2, r3, #24
     f48:	e7e7c453 	ubfx	ip, r3, #8, #8
     f4c:	e7e71853 	ubfx	r1, r3, #16, #8
     f50:	e5c03000 	strb	r3, [r0]
     f54:	e5c0c001 	strb	ip, [r0, #1]
     f58:	e5c01002 	strb	r1, [r0, #2]
     f5c:	e5c02003 	strb	r2, [r0, #3]
     f60:	ee113f10 	mrc	15, 0, r3, cr1, cr0, {0}
     f64:	e1a02c23 	lsr	r2, r3, #24
     f68:	e7e7c453 	ubfx	ip, r3, #8, #8
     f6c:	e7e71853 	ubfx	r1, r3, #16, #8
     f70:	e5c03004 	strb	r3, [r0, #4]
     f74:	e5c0c005 	strb	ip, [r0, #5]
     f78:	e5c01006 	strb	r1, [r0, #6]
     f7c:	e5c02007 	strb	r2, [r0, #7]
     f80:	ee113f50 	mrc	15, 0, r3, cr1, cr0, {2}
     f84:	e1a02c23 	lsr	r2, r3, #24
     f88:	e7e7c453 	ubfx	ip, r3, #8, #8
     f8c:	e7e71853 	ubfx	r1, r3, #16, #8
     f90:	e5c0300c 	strb	r3, [r0, #12]
     f94:	e5c0c00d 	strb	ip, [r0, #13]
     f98:	e5c0100e 	strb	r1, [r0, #14]
     f9c:	e5c0200f 	strb	r2, [r0, #15]
     fa0:	ee123f10 	mrc	15, 0, r3, cr2, cr0, {0}
     fa4:	e1a02c23 	lsr	r2, r3, #24
     fa8:	e7e7c453 	ubfx	ip, r3, #8, #8
     fac:	e7e71853 	ubfx	r1, r3, #16, #8
     fb0:	e5c0301c 	strb	r3, [r0, #28]
     fb4:	e5c0c01d 	strb	ip, [r0, #29]
     fb8:	e5c0101e 	strb	r1, [r0, #30]
     fbc:	e5c0201f 	strb	r2, [r0, #31]
     fc0:	ee123f30 	mrc	15, 0, r3, cr2, cr0, {1}
     fc4:	e1a02c23 	lsr	r2, r3, #24
     fc8:	e7e7c453 	ubfx	ip, r3, #8, #8
     fcc:	e7e71853 	ubfx	r1, r3, #16, #8
     fd0:	e5c03020 	strb	r3, [r0, #32]
     fd4:	e5c0c021 	strb	ip, [r0, #33]	; 0x21
     fd8:	e5c01022 	strb	r1, [r0, #34]	; 0x22
     fdc:	e5c02023 	strb	r2, [r0, #35]	; 0x23
     fe0:	ee123f50 	mrc	15, 0, r3, cr2, cr0, {2}
     fe4:	e1a02c23 	lsr	r2, r3, #24
     fe8:	e7e7c453 	ubfx	ip, r3, #8, #8
     fec:	e7e71853 	ubfx	r1, r3, #16, #8
     ff0:	e5c03024 	strb	r3, [r0, #36]	; 0x24
     ff4:	e5c0c025 	strb	ip, [r0, #37]	; 0x25
     ff8:	e5c01026 	strb	r1, [r0, #38]	; 0x26
     ffc:	e5c02027 	strb	r2, [r0, #39]	; 0x27
    1000:	ee133f10 	mrc	15, 0, r3, cr3, cr0, {0}
    1004:	e1a02c23 	lsr	r2, r3, #24
    1008:	e7e7c453 	ubfx	ip, r3, #8, #8
    100c:	e7e71853 	ubfx	r1, r3, #16, #8
    1010:	e5c03028 	strb	r3, [r0, #40]	; 0x28
    1014:	e5c0c029 	strb	ip, [r0, #41]	; 0x29
    1018:	e5c0102a 	strb	r1, [r0, #42]	; 0x2a
    101c:	e5c0202b 	strb	r2, [r0, #43]	; 0x2b
    1020:	ee153f10 	mrc	15, 0, r3, cr5, cr0, {0}
    1024:	e1a02c23 	lsr	r2, r3, #24
    1028:	e7e7c453 	ubfx	ip, r3, #8, #8
    102c:	e7e71853 	ubfx	r1, r3, #16, #8
    1030:	e5c0302c 	strb	r3, [r0, #44]	; 0x2c
    1034:	e5c0c02d 	strb	ip, [r0, #45]	; 0x2d
    1038:	e5c0102e 	strb	r1, [r0, #46]	; 0x2e
    103c:	e5c0202f 	strb	r2, [r0, #47]	; 0x2f
    1040:	ee153f30 	mrc	15, 0, r3, cr5, cr0, {1}
    1044:	e1a02c23 	lsr	r2, r3, #24
    1048:	e7e7c453 	ubfx	ip, r3, #8, #8
    104c:	e7e71853 	ubfx	r1, r3, #16, #8
    1050:	e5c03030 	strb	r3, [r0, #48]	; 0x30
    1054:	e5c0c031 	strb	ip, [r0, #49]	; 0x31
    1058:	e5c01032 	strb	r1, [r0, #50]	; 0x32
    105c:	e5c02033 	strb	r2, [r0, #51]	; 0x33
    1060:	ee153f11 	mrc	15, 0, r3, cr5, cr1, {0}
    1064:	e1a02c23 	lsr	r2, r3, #24
    1068:	e7e7c453 	ubfx	ip, r3, #8, #8
    106c:	e7e71853 	ubfx	r1, r3, #16, #8
    1070:	e5c03034 	strb	r3, [r0, #52]	; 0x34
    1074:	e5c0c035 	strb	ip, [r0, #53]	; 0x35
    1078:	e5c01036 	strb	r1, [r0, #54]	; 0x36
    107c:	e5c02037 	strb	r2, [r0, #55]	; 0x37
    1080:	ee153f31 	mrc	15, 0, r3, cr5, cr1, {1}
    1084:	e1a02c23 	lsr	r2, r3, #24
    1088:	e7e7c453 	ubfx	ip, r3, #8, #8
    108c:	e7e71853 	ubfx	r1, r3, #16, #8
    1090:	e5c03038 	strb	r3, [r0, #56]	; 0x38
    1094:	e5c0c039 	strb	ip, [r0, #57]	; 0x39
    1098:	e5c0103a 	strb	r1, [r0, #58]	; 0x3a
    109c:	e5c0203b 	strb	r2, [r0, #59]	; 0x3b
    10a0:	ee163f10 	mrc	15, 0, r3, cr6, cr0, {0}
    10a4:	e1a02c23 	lsr	r2, r3, #24
    10a8:	e7e7c453 	ubfx	ip, r3, #8, #8
    10ac:	e7e71853 	ubfx	r1, r3, #16, #8
    10b0:	e5c0303c 	strb	r3, [r0, #60]	; 0x3c
    10b4:	e5c0c03d 	strb	ip, [r0, #61]	; 0x3d
    10b8:	e5c0103e 	strb	r1, [r0, #62]	; 0x3e
    10bc:	e5c0203f 	strb	r2, [r0, #63]	; 0x3f
    10c0:	ee163f50 	mrc	15, 0, r3, cr6, cr0, {2}
    10c4:	e1a02c23 	lsr	r2, r3, #24
    10c8:	e7e7c453 	ubfx	ip, r3, #8, #8
    10cc:	e7e71853 	ubfx	r1, r3, #16, #8
    10d0:	e5c03040 	strb	r3, [r0, #64]	; 0x40
    10d4:	e5c0c041 	strb	ip, [r0, #65]	; 0x41
    10d8:	e5c01042 	strb	r1, [r0, #66]	; 0x42
    10dc:	e5c02043 	strb	r2, [r0, #67]	; 0x43
    10e0:	ee173f14 	mrc	15, 0, r3, cr7, cr4, {0}
    10e4:	e1a02c23 	lsr	r2, r3, #24
    10e8:	e7e7c453 	ubfx	ip, r3, #8, #8
    10ec:	e7e71853 	ubfx	r1, r3, #16, #8
    10f0:	e5c03044 	strb	r3, [r0, #68]	; 0x44
    10f4:	e5c0c045 	strb	ip, [r0, #69]	; 0x45
    10f8:	e5c01046 	strb	r1, [r0, #70]	; 0x46
    10fc:	e5c02047 	strb	r2, [r0, #71]	; 0x47
    1100:	ee193f1c 	mrc	15, 0, r3, cr9, cr12, {0}
    1104:	e1a02c23 	lsr	r2, r3, #24
    1108:	e7e7c453 	ubfx	ip, r3, #8, #8
    110c:	e7e71853 	ubfx	r1, r3, #16, #8
    1110:	e5c03048 	strb	r3, [r0, #72]	; 0x48
    1114:	e5c0c049 	strb	ip, [r0, #73]	; 0x49
    1118:	e5c0104a 	strb	r1, [r0, #74]	; 0x4a
    111c:	e5c0204b 	strb	r2, [r0, #75]	; 0x4b
    1120:	ee193f3c 	mrc	15, 0, r3, cr9, cr12, {1}
    1124:	e1a02c23 	lsr	r2, r3, #24
    1128:	e7e7c453 	ubfx	ip, r3, #8, #8
    112c:	e7e71853 	ubfx	r1, r3, #16, #8
    1130:	e5c0304c 	strb	r3, [r0, #76]	; 0x4c
    1134:	e5c0c04d 	strb	ip, [r0, #77]	; 0x4d
    1138:	e5c0104e 	strb	r1, [r0, #78]	; 0x4e
    113c:	e5c0204f 	strb	r2, [r0, #79]	; 0x4f
    1140:	ee193f5c 	mrc	15, 0, r3, cr9, cr12, {2}
    1144:	e1a02c23 	lsr	r2, r3, #24
    1148:	e7e7c453 	ubfx	ip, r3, #8, #8
    114c:	e7e71853 	ubfx	r1, r3, #16, #8
    1150:	e5c03050 	strb	r3, [r0, #80]	; 0x50
    1154:	e5c0c051 	strb	ip, [r0, #81]	; 0x51
    1158:	e5c01052 	strb	r1, [r0, #82]	; 0x52
    115c:	e5c02053 	strb	r2, [r0, #83]	; 0x53
    1160:	ee193f7c 	mrc	15, 0, r3, cr9, cr12, {3}
    1164:	e1a02c23 	lsr	r2, r3, #24
    1168:	e7e7c453 	ubfx	ip, r3, #8, #8
    116c:	e7e71853 	ubfx	r1, r3, #16, #8
    1170:	e5c03054 	strb	r3, [r0, #84]	; 0x54
    1174:	e5c0c055 	strb	ip, [r0, #85]	; 0x55
    1178:	e5c01056 	strb	r1, [r0, #86]	; 0x56
    117c:	e5c02057 	strb	r2, [r0, #87]	; 0x57
    1180:	ee193fbc 	mrc	15, 0, r3, cr9, cr12, {5}
    1184:	e1a02c23 	lsr	r2, r3, #24
    1188:	e7e7c453 	ubfx	ip, r3, #8, #8
    118c:	e7e71853 	ubfx	r1, r3, #16, #8
    1190:	e5c0305c 	strb	r3, [r0, #92]	; 0x5c
    1194:	e5c0c05d 	strb	ip, [r0, #93]	; 0x5d
    1198:	e5c0105e 	strb	r1, [r0, #94]	; 0x5e
    119c:	e5c0205f 	strb	r2, [r0, #95]	; 0x5f
    11a0:	ee193f1d 	mrc	15, 0, r3, cr9, cr13, {0}
    11a4:	e1a02c23 	lsr	r2, r3, #24
    11a8:	e7e7c453 	ubfx	ip, r3, #8, #8
    11ac:	e7e71853 	ubfx	r1, r3, #16, #8
    11b0:	e5c03060 	strb	r3, [r0, #96]	; 0x60
    11b4:	e5c0c061 	strb	ip, [r0, #97]	; 0x61
    11b8:	e5c01062 	strb	r1, [r0, #98]	; 0x62
    11bc:	e5c02063 	strb	r2, [r0, #99]	; 0x63
    11c0:	ee193f3d 	mrc	15, 0, r3, cr9, cr13, {1}
    11c4:	e1a02c23 	lsr	r2, r3, #24
    11c8:	e7e7c453 	ubfx	ip, r3, #8, #8
    11cc:	e7e71853 	ubfx	r1, r3, #16, #8
    11d0:	e5c03064 	strb	r3, [r0, #100]	; 0x64
    11d4:	e5c0c065 	strb	ip, [r0, #101]	; 0x65
    11d8:	e5c01066 	strb	r1, [r0, #102]	; 0x66
    11dc:	e5c02067 	strb	r2, [r0, #103]	; 0x67
    11e0:	ee193f5d 	mrc	15, 0, r3, cr9, cr13, {2}
    11e4:	e1a02c23 	lsr	r2, r3, #24
    11e8:	e7e7c453 	ubfx	ip, r3, #8, #8
    11ec:	e7e71853 	ubfx	r1, r3, #16, #8
    11f0:	e5c03068 	strb	r3, [r0, #104]	; 0x68
    11f4:	e5c0c069 	strb	ip, [r0, #105]	; 0x69
    11f8:	e5c0106a 	strb	r1, [r0, #106]	; 0x6a
    11fc:	e5c0206b 	strb	r2, [r0, #107]	; 0x6b
    1200:	ee193f1e 	mrc	15, 0, r3, cr9, cr14, {0}
    1204:	e1a02c23 	lsr	r2, r3, #24
    1208:	e7e7c453 	ubfx	ip, r3, #8, #8
    120c:	e7e71853 	ubfx	r1, r3, #16, #8
    1210:	e5c0306c 	strb	r3, [r0, #108]	; 0x6c
    1214:	e5c0c06d 	strb	ip, [r0, #109]	; 0x6d
    1218:	e5c0106e 	strb	r1, [r0, #110]	; 0x6e
    121c:	e5c0206f 	strb	r2, [r0, #111]	; 0x6f
    1220:	ee193f3e 	mrc	15, 0, r3, cr9, cr14, {1}
    1224:	e1a02c23 	lsr	r2, r3, #24
    1228:	e7e7c453 	ubfx	ip, r3, #8, #8
    122c:	e7e71853 	ubfx	r1, r3, #16, #8
    1230:	e5c03070 	strb	r3, [r0, #112]	; 0x70
    1234:	e5c0c071 	strb	ip, [r0, #113]	; 0x71
    1238:	e5c01072 	strb	r1, [r0, #114]	; 0x72
    123c:	e5c02073 	strb	r2, [r0, #115]	; 0x73
    1240:	ee193f5e 	mrc	15, 0, r3, cr9, cr14, {2}
    1244:	e1a02c23 	lsr	r2, r3, #24
    1248:	e7e7c453 	ubfx	ip, r3, #8, #8
    124c:	e7e71853 	ubfx	r1, r3, #16, #8
    1250:	e5c03074 	strb	r3, [r0, #116]	; 0x74
    1254:	e5c0c075 	strb	ip, [r0, #117]	; 0x75
    1258:	e5c01076 	strb	r1, [r0, #118]	; 0x76
    125c:	e5c02077 	strb	r2, [r0, #119]	; 0x77
    1260:	ee1a3f12 	mrc	15, 0, r3, cr10, cr2, {0}
    1264:	e1a02c23 	lsr	r2, r3, #24
    1268:	e7e7c453 	ubfx	ip, r3, #8, #8
    126c:	e7e71853 	ubfx	r1, r3, #16, #8
    1270:	e5c03078 	strb	r3, [r0, #120]	; 0x78
    1274:	e5c0c079 	strb	ip, [r0, #121]	; 0x79
    1278:	e5c0107a 	strb	r1, [r0, #122]	; 0x7a
    127c:	e5c0207b 	strb	r2, [r0, #123]	; 0x7b
    1280:	ee1a3f32 	mrc	15, 0, r3, cr10, cr2, {1}
    1284:	e1a02c23 	lsr	r2, r3, #24
    1288:	e7e7c453 	ubfx	ip, r3, #8, #8
    128c:	e7e71853 	ubfx	r1, r3, #16, #8
    1290:	e5c0307c 	strb	r3, [r0, #124]	; 0x7c
    1294:	e5c0c07d 	strb	ip, [r0, #125]	; 0x7d
    1298:	e5c0107e 	strb	r1, [r0, #126]	; 0x7e
    129c:	e5c0207f 	strb	r2, [r0, #127]	; 0x7f
    12a0:	ee1c3f10 	mrc	15, 0, r3, cr12, cr0, {0}
    12a4:	e1a02c23 	lsr	r2, r3, #24
    12a8:	e7e7c453 	ubfx	ip, r3, #8, #8
    12ac:	e7e71853 	ubfx	r1, r3, #16, #8
    12b0:	e5c03080 	strb	r3, [r0, #128]	; 0x80
    12b4:	e5c0c081 	strb	ip, [r0, #129]	; 0x81
    12b8:	e5c01082 	strb	r1, [r0, #130]	; 0x82
    12bc:	e5c02083 	strb	r2, [r0, #131]	; 0x83
    12c0:	ee1d3f30 	mrc	15, 0, r3, cr13, cr0, {1}
    12c4:	e1a02c23 	lsr	r2, r3, #24
    12c8:	e7e7c453 	ubfx	ip, r3, #8, #8
    12cc:	e7e71853 	ubfx	r1, r3, #16, #8
    12d0:	e5c03090 	strb	r3, [r0, #144]	; 0x90
    12d4:	e5c0c091 	strb	ip, [r0, #145]	; 0x91
    12d8:	e5c01092 	strb	r1, [r0, #146]	; 0x92
    12dc:	e5c02093 	strb	r2, [r0, #147]	; 0x93
    12e0:	ee1d3f50 	mrc	15, 0, r3, cr13, cr0, {2}
    12e4:	e1a02c23 	lsr	r2, r3, #24
    12e8:	e7e7c453 	ubfx	ip, r3, #8, #8
    12ec:	e7e71853 	ubfx	r1, r3, #16, #8
    12f0:	e5c03094 	strb	r3, [r0, #148]	; 0x94
    12f4:	e5c0c095 	strb	ip, [r0, #149]	; 0x95
    12f8:	e5c01096 	strb	r1, [r0, #150]	; 0x96
    12fc:	e5c02097 	strb	r2, [r0, #151]	; 0x97
    1300:	ee1d3f70 	mrc	15, 0, r3, cr13, cr0, {3}
    1304:	e1a02c23 	lsr	r2, r3, #24
    1308:	e7e7c453 	ubfx	ip, r3, #8, #8
    130c:	e7e71853 	ubfx	r1, r3, #16, #8
    1310:	e5c03098 	strb	r3, [r0, #152]	; 0x98
    1314:	e5c0c099 	strb	ip, [r0, #153]	; 0x99
    1318:	e5c0109a 	strb	r1, [r0, #154]	; 0x9a
    131c:	e5c0209b 	strb	r2, [r0, #155]	; 0x9b
    1320:	ee1d3f90 	mrc	15, 0, r3, cr13, cr0, {4}
    1324:	e1a02c23 	lsr	r2, r3, #24
    1328:	e7e7c453 	ubfx	ip, r3, #8, #8
    132c:	e7e71853 	ubfx	r1, r3, #16, #8
    1330:	e5c0309c 	strb	r3, [r0, #156]	; 0x9c
    1334:	e5c0c09d 	strb	ip, [r0, #157]	; 0x9d
    1338:	e5c0109e 	strb	r1, [r0, #158]	; 0x9e
    133c:	e5c0209f 	strb	r2, [r0, #159]	; 0x9f
    1340:	e12fff1e 	bx	lr

00001344 <__restore_processor_state>:
    1344:	e5d03000 	ldrb	r3, [r0]
    1348:	e5d0c001 	ldrb	ip, [r0, #1]
    134c:	e5d01002 	ldrb	r1, [r0, #2]
    1350:	e5d02003 	ldrb	r2, [r0, #3]
    1354:	e183340c 	orr	r3, r3, ip, lsl #8
    1358:	e1833801 	orr	r3, r3, r1, lsl #16
    135c:	e1833c02 	orr	r3, r3, r2, lsl #24
    1360:	ee403f10 	mcr	15, 2, r3, cr0, cr0, {0}
    1364:	e5d0300c 	ldrb	r3, [r0, #12]
    1368:	e5d0c00d 	ldrb	ip, [r0, #13]
    136c:	e5d0100e 	ldrb	r1, [r0, #14]
    1370:	e5d0200f 	ldrb	r2, [r0, #15]
    1374:	e183340c 	orr	r3, r3, ip, lsl #8
    1378:	e1833801 	orr	r3, r3, r1, lsl #16
    137c:	e1833c02 	orr	r3, r3, r2, lsl #24
    1380:	ee013f50 	mcr	15, 0, r3, cr1, cr0, {2}
    1384:	e5d0301c 	ldrb	r3, [r0, #28]
    1388:	e5d0c01d 	ldrb	ip, [r0, #29]
    138c:	e5d0101e 	ldrb	r1, [r0, #30]
    1390:	e5d0201f 	ldrb	r2, [r0, #31]
    1394:	e183340c 	orr	r3, r3, ip, lsl #8
    1398:	e1833801 	orr	r3, r3, r1, lsl #16
    139c:	e1833c02 	orr	r3, r3, r2, lsl #24
    13a0:	ee023f10 	mcr	15, 0, r3, cr2, cr0, {0}
    13a4:	f57ff04f 	dsb	sy
    13a8:	f57ff06f 	isb	sy
    13ac:	e5d03020 	ldrb	r3, [r0, #32]
    13b0:	e5d0c021 	ldrb	ip, [r0, #33]	; 0x21
    13b4:	e5d01022 	ldrb	r1, [r0, #34]	; 0x22
    13b8:	e5d02023 	ldrb	r2, [r0, #35]	; 0x23
    13bc:	e183340c 	orr	r3, r3, ip, lsl #8
    13c0:	e1833801 	orr	r3, r3, r1, lsl #16
    13c4:	e1833c02 	orr	r3, r3, r2, lsl #24
    13c8:	ee023f30 	mcr	15, 0, r3, cr2, cr0, {1}
    13cc:	f57ff04f 	dsb	sy
    13d0:	f57ff06f 	isb	sy
    13d4:	e5d03024 	ldrb	r3, [r0, #36]	; 0x24
    13d8:	e5d0c025 	ldrb	ip, [r0, #37]	; 0x25
    13dc:	e5d01026 	ldrb	r1, [r0, #38]	; 0x26
    13e0:	e5d02027 	ldrb	r2, [r0, #39]	; 0x27
    13e4:	e183340c 	orr	r3, r3, ip, lsl #8
    13e8:	e1833801 	orr	r3, r3, r1, lsl #16
    13ec:	e1833c02 	orr	r3, r3, r2, lsl #24
    13f0:	ee023f50 	mcr	15, 0, r3, cr2, cr0, {2}
    13f4:	f57ff04f 	dsb	sy
    13f8:	f57ff06f 	isb	sy
    13fc:	e5d03028 	ldrb	r3, [r0, #40]	; 0x28
    1400:	e5d0c029 	ldrb	ip, [r0, #41]	; 0x29
    1404:	e5d0102a 	ldrb	r1, [r0, #42]	; 0x2a
    1408:	e5d0202b 	ldrb	r2, [r0, #43]	; 0x2b
    140c:	e183340c 	orr	r3, r3, ip, lsl #8
    1410:	e1833801 	orr	r3, r3, r1, lsl #16
    1414:	e1833c02 	orr	r3, r3, r2, lsl #24
    1418:	ee033f10 	mcr	15, 0, r3, cr3, cr0, {0}
    141c:	e5d03044 	ldrb	r3, [r0, #68]	; 0x44
    1420:	e5d0c045 	ldrb	ip, [r0, #69]	; 0x45
    1424:	e5d01046 	ldrb	r1, [r0, #70]	; 0x46
    1428:	e5d02047 	ldrb	r2, [r0, #71]	; 0x47
    142c:	e183340c 	orr	r3, r3, ip, lsl #8
    1430:	e1833801 	orr	r3, r3, r1, lsl #16
    1434:	e1833c02 	orr	r3, r3, r2, lsl #24
    1438:	ee073f14 	mcr	15, 0, r3, cr7, cr4, {0}
    143c:	e5d0305c 	ldrb	r3, [r0, #92]	; 0x5c
    1440:	e5d0c05d 	ldrb	ip, [r0, #93]	; 0x5d
    1444:	e5d0105e 	ldrb	r1, [r0, #94]	; 0x5e
    1448:	e5d0205f 	ldrb	r2, [r0, #95]	; 0x5f
    144c:	e183340c 	orr	r3, r3, ip, lsl #8
    1450:	e1833801 	orr	r3, r3, r1, lsl #16
    1454:	e1833c02 	orr	r3, r3, r2, lsl #24
    1458:	ee093fbc 	mcr	15, 0, r3, cr9, cr12, {5}
    145c:	e5d03060 	ldrb	r3, [r0, #96]	; 0x60
    1460:	e5d0c061 	ldrb	ip, [r0, #97]	; 0x61
    1464:	e5d01062 	ldrb	r1, [r0, #98]	; 0x62
    1468:	e5d02063 	ldrb	r2, [r0, #99]	; 0x63
    146c:	e183340c 	orr	r3, r3, ip, lsl #8
    1470:	e1833801 	orr	r3, r3, r1, lsl #16
    1474:	e1833c02 	orr	r3, r3, r2, lsl #24
    1478:	ee093f1d 	mcr	15, 0, r3, cr9, cr13, {0}
    147c:	e5d03064 	ldrb	r3, [r0, #100]	; 0x64
    1480:	e5d0c065 	ldrb	ip, [r0, #101]	; 0x65
    1484:	e5d01066 	ldrb	r1, [r0, #102]	; 0x66
    1488:	e5d02067 	ldrb	r2, [r0, #103]	; 0x67
    148c:	e183340c 	orr	r3, r3, ip, lsl #8
    1490:	e1833801 	orr	r3, r3, r1, lsl #16
    1494:	e1833c02 	orr	r3, r3, r2, lsl #24
    1498:	ee093f3d 	mcr	15, 0, r3, cr9, cr13, {1}
    149c:	e5d03068 	ldrb	r3, [r0, #104]	; 0x68
    14a0:	e5d0c069 	ldrb	ip, [r0, #105]	; 0x69
    14a4:	e5d0106a 	ldrb	r1, [r0, #106]	; 0x6a
    14a8:	e5d0206b 	ldrb	r2, [r0, #107]	; 0x6b
    14ac:	e183340c 	orr	r3, r3, ip, lsl #8
    14b0:	e1833801 	orr	r3, r3, r1, lsl #16
    14b4:	e1833c02 	orr	r3, r3, r2, lsl #24
    14b8:	ee093f5d 	mcr	15, 0, r3, cr9, cr13, {2}
    14bc:	e5d0306c 	ldrb	r3, [r0, #108]	; 0x6c
    14c0:	e5d0c06d 	ldrb	ip, [r0, #109]	; 0x6d
    14c4:	e5d0106e 	ldrb	r1, [r0, #110]	; 0x6e
    14c8:	e5d0206f 	ldrb	r2, [r0, #111]	; 0x6f
    14cc:	e183340c 	orr	r3, r3, ip, lsl #8
    14d0:	e1833801 	orr	r3, r3, r1, lsl #16
    14d4:	e1833c02 	orr	r3, r3, r2, lsl #24
    14d8:	ee093f1e 	mcr	15, 0, r3, cr9, cr14, {0}
    14dc:	e5d03070 	ldrb	r3, [r0, #112]	; 0x70
    14e0:	e5d0c071 	ldrb	ip, [r0, #113]	; 0x71
    14e4:	e5d01072 	ldrb	r1, [r0, #114]	; 0x72
    14e8:	e5d02073 	ldrb	r2, [r0, #115]	; 0x73
    14ec:	e183340c 	orr	r3, r3, ip, lsl #8
    14f0:	e1833801 	orr	r3, r3, r1, lsl #16
    14f4:	e1833c02 	orr	r3, r3, r2, lsl #24
    14f8:	ee093f3e 	mcr	15, 0, r3, cr9, cr14, {1}
    14fc:	e5d03074 	ldrb	r3, [r0, #116]	; 0x74
    1500:	e5d0c075 	ldrb	ip, [r0, #117]	; 0x75
    1504:	e5d01076 	ldrb	r1, [r0, #118]	; 0x76
    1508:	e5d02077 	ldrb	r2, [r0, #119]	; 0x77
    150c:	e183340c 	orr	r3, r3, ip, lsl #8
    1510:	e1833801 	orr	r3, r3, r1, lsl #16
    1514:	e1833c02 	orr	r3, r3, r2, lsl #24
    1518:	ee093f5e 	mcr	15, 0, r3, cr9, cr14, {2}
    151c:	e5d03078 	ldrb	r3, [r0, #120]	; 0x78
    1520:	e5d0c079 	ldrb	ip, [r0, #121]	; 0x79
    1524:	e5d0107a 	ldrb	r1, [r0, #122]	; 0x7a
    1528:	e5d0207b 	ldrb	r2, [r0, #123]	; 0x7b
    152c:	e183340c 	orr	r3, r3, ip, lsl #8
    1530:	e1833801 	orr	r3, r3, r1, lsl #16
    1534:	e1833c02 	orr	r3, r3, r2, lsl #24
    1538:	ee0a3f12 	mcr	15, 0, r3, cr10, cr2, {0}
    153c:	e5d0307c 	ldrb	r3, [r0, #124]	; 0x7c
    1540:	e5d0c07d 	ldrb	ip, [r0, #125]	; 0x7d
    1544:	e5d0107e 	ldrb	r1, [r0, #126]	; 0x7e
    1548:	e5d0207f 	ldrb	r2, [r0, #127]	; 0x7f
    154c:	e183340c 	orr	r3, r3, ip, lsl #8
    1550:	e1833801 	orr	r3, r3, r1, lsl #16
    1554:	e1833c02 	orr	r3, r3, r2, lsl #24
    1558:	ee0a3f32 	mcr	15, 0, r3, cr10, cr2, {1}
    155c:	e5d03080 	ldrb	r3, [r0, #128]	; 0x80
    1560:	e5d0c081 	ldrb	ip, [r0, #129]	; 0x81
    1564:	e5d01082 	ldrb	r1, [r0, #130]	; 0x82
    1568:	e5d02083 	ldrb	r2, [r0, #131]	; 0x83
    156c:	e183340c 	orr	r3, r3, ip, lsl #8
    1570:	e1833801 	orr	r3, r3, r1, lsl #16
    1574:	e1833c02 	orr	r3, r3, r2, lsl #24
    1578:	ee0c3f10 	mcr	15, 0, r3, cr12, cr0, {0}
    157c:	e5d03090 	ldrb	r3, [r0, #144]	; 0x90
    1580:	e5d0c091 	ldrb	ip, [r0, #145]	; 0x91
    1584:	e5d01092 	ldrb	r1, [r0, #146]	; 0x92
    1588:	e5d02093 	ldrb	r2, [r0, #147]	; 0x93
    158c:	e183340c 	orr	r3, r3, ip, lsl #8
    1590:	e1833801 	orr	r3, r3, r1, lsl #16
    1594:	e1833c02 	orr	r3, r3, r2, lsl #24
    1598:	ee0d3f30 	mcr	15, 0, r3, cr13, cr0, {1}
    159c:	e5d03094 	ldrb	r3, [r0, #148]	; 0x94
    15a0:	e5d0c095 	ldrb	ip, [r0, #149]	; 0x95
    15a4:	e5d01096 	ldrb	r1, [r0, #150]	; 0x96
    15a8:	e5d02097 	ldrb	r2, [r0, #151]	; 0x97
    15ac:	e183340c 	orr	r3, r3, ip, lsl #8
    15b0:	e1833801 	orr	r3, r3, r1, lsl #16
    15b4:	e1833c02 	orr	r3, r3, r2, lsl #24
    15b8:	ee0d3f50 	mcr	15, 0, r3, cr13, cr0, {2}
    15bc:	e5d03098 	ldrb	r3, [r0, #152]	; 0x98
    15c0:	e5d0c099 	ldrb	ip, [r0, #153]	; 0x99
    15c4:	e5d0109a 	ldrb	r1, [r0, #154]	; 0x9a
    15c8:	e5d0209b 	ldrb	r2, [r0, #155]	; 0x9b
    15cc:	e183340c 	orr	r3, r3, ip, lsl #8
    15d0:	e1833801 	orr	r3, r3, r1, lsl #16
    15d4:	e1833c02 	orr	r3, r3, r2, lsl #24
    15d8:	ee0d3f70 	mcr	15, 0, r3, cr13, cr0, {3}
    15dc:	e5d0309c 	ldrb	r3, [r0, #156]	; 0x9c
    15e0:	e5d0c09d 	ldrb	ip, [r0, #157]	; 0x9d
    15e4:	e5d0109e 	ldrb	r1, [r0, #158]	; 0x9e
    15e8:	e5d0209f 	ldrb	r2, [r0, #159]	; 0x9f
    15ec:	e183340c 	orr	r3, r3, ip, lsl #8
    15f0:	e1833801 	orr	r3, r3, r1, lsl #16
    15f4:	e1833c02 	orr	r3, r3, r2, lsl #24
    15f8:	ee0d3f90 	mcr	15, 0, r3, cr13, cr0, {4}
    15fc:	f57ff04f 	dsb	sy
    1600:	f57ff06f 	isb	sy
    1604:	e12fff1e 	bx	lr

00001608 <disable_cache_invalidate>:
    1608:	e3a03000 	mov	r3, #0
    160c:	e34f31c2 	movt	r3, #61890	; 0xf1c2
    1610:	e5932d3c 	ldr	r2, [r3, #3388]	; 0xd3c
    1614:	e3822003 	orr	r2, r2, #3
    1618:	e5832d3c 	str	r2, [r3, #3388]	; 0xd3c
    161c:	e12fff1e 	bx	lr

00001620 <set_copro_default>:
    1620:	e3a03002 	mov	r3, #2
    1624:	ee403f10 	mcr	15, 2, r3, cr0, cr0, {0}
    1628:	e3003878 	movw	r3, #2168	; 0x878
    162c:	e34030c5 	movt	r3, #197	; 0xc5
    1630:	ee013f10 	mcr	15, 0, r3, cr1, cr0, {0}
    1634:	e3063040 	movw	r3, #24640	; 0x6040
    1638:	ee013f30 	mcr	15, 0, r3, cr1, cr0, {1}
    163c:	e3a03000 	mov	r3, #0
    1640:	ee013f50 	mcr	15, 0, r3, cr1, cr0, {2}
    1644:	ee023f10 	mcr	15, 0, r3, cr2, cr0, {0}
    1648:	ee023f30 	mcr	15, 0, r3, cr2, cr0, {1}
    164c:	ee023f50 	mcr	15, 0, r3, cr2, cr0, {2}
    1650:	ee033f10 	mcr	15, 0, r3, cr3, cr0, {0}
    1654:	ee053f10 	mcr	15, 0, r3, cr5, cr0, {0}
    1658:	ee053f30 	mcr	15, 0, r3, cr5, cr0, {1}
    165c:	ee053f11 	mcr	15, 0, r3, cr5, cr1, {0}
    1660:	ee053f31 	mcr	15, 0, r3, cr5, cr1, {1}
    1664:	ee063f10 	mcr	15, 0, r3, cr6, cr0, {0}
    1668:	ee063f50 	mcr	15, 0, r3, cr6, cr0, {2}
    166c:	ee073f14 	mcr	15, 0, r3, cr7, cr4, {0}
    1670:	ee093f1e 	mcr	15, 0, r3, cr9, cr14, {0}
    1674:	ee093f3e 	mcr	15, 0, r3, cr9, cr14, {1}
    1678:	ee093f5e 	mcr	15, 0, r3, cr9, cr14, {2}
    167c:	e30831a4 	movw	r3, #33188	; 0x81a4
    1680:	e340300a 	movt	r3, #10
    1684:	ee0a3f12 	mcr	15, 0, r3, cr10, cr2, {0}
    1688:	e30438e0 	movw	r3, #18656	; 0x48e0
    168c:	e34434e0 	movt	r3, #17632	; 0x44e0
    1690:	ee0a3f32 	mcr	15, 0, r3, cr10, cr2, {1}
    1694:	e3a03000 	mov	r3, #0
    1698:	ee0d3f30 	mcr	15, 0, r3, cr13, cr0, {1}
    169c:	ee0d3f50 	mcr	15, 0, r3, cr13, cr0, {2}
    16a0:	ee0d3f70 	mcr	15, 0, r3, cr13, cr0, {3}
    16a4:	ee0d3f90 	mcr	15, 0, r3, cr13, cr0, {4}
    16a8:	f57ff04f 	dsb	sy
    16ac:	f57ff06f 	isb	sy
    16b0:	e12fff1e 	bx	lr

000016b4 <save_processor_state>:
    16b4:	e30301cc 	movw	r0, #12748	; 0x31cc
    16b8:	e3400000 	movt	r0, #0
    16bc:	eafffe1f 	b	f40 <__save_processor_state>

000016c0 <restore_processor_state>:
    16c0:	e30301cc 	movw	r0, #12748	; 0x31cc
    16c4:	e3400000 	movt	r0, #0
    16c8:	eaffff1d 	b	1344 <__restore_processor_state>

000016cc <restore_processor_ttbr0>:
    16cc:	e30331cc 	movw	r3, #12748	; 0x31cc
    16d0:	e3403000 	movt	r3, #0
    16d4:	e593301c 	ldr	r3, [r3, #28]
    16d8:	ee023f10 	mcr	15, 0, r3, cr2, cr0, {0}
    16dc:	e12fff1e 	bx	lr

000016e0 <set_ttbr0>:
    16e0:	ee123f30 	mrc	15, 0, r3, cr2, cr0, {1}
    16e4:	ee023f10 	mcr	15, 0, r3, cr2, cr0, {0}
    16e8:	f57ff06f 	isb	sy
    16ec:	e12fff1e 	bx	lr

000016f0 <set_serial_gpio>:
    16f0:	e92d4038 	push	{r3, r4, r5, lr}
    16f4:	e1a04000 	mov	r4, r0
    16f8:	e1a05001 	mov	r5, r1
    16fc:	eb000451 	bl	2848 <config_gpio_clk>
    1700:	e3540000 	cmp	r4, #0
    1704:	1a000018 	bne	176c <set_serial_gpio+0x7c>
    1708:	e30f10ff 	movw	r1, #61695	; 0xf0ff
    170c:	e3a02c03 	mov	r2, #768	; 0x300
    1710:	e3000828 	movw	r0, #2088	; 0x828
    1714:	e30038b4 	movw	r3, #2228	; 0x8b4
    1718:	e3550000 	cmp	r5, #0
    171c:	e34f1ff0 	movt	r1, #65520	; 0xfff0
    1720:	e3402003 	movt	r2, #3
    1724:	e34001c2 	movt	r0, #450	; 0x1c2
    1728:	e34031c2 	movt	r3, #450	; 0x1c2
    172c:	03e01eff 	mvneq	r1, #4080	; 0xff0
    1730:	03a02e22 	moveq	r2, #544	; 0x220
    1734:	01a03000 	moveq	r3, r0
    1738:	e5930000 	ldr	r0, [r3]
    173c:	e0001001 	and	r1, r0, r1
    1740:	e5831000 	str	r1, [r3]
    1744:	f57ff04f 	dsb	sy
    1748:	f57ff06f 	isb	sy
    174c:	f57ff04f 	dsb	sy
    1750:	f57ff06f 	isb	sy
    1754:	e5931000 	ldr	r1, [r3]
    1758:	e1812002 	orr	r2, r1, r2
    175c:	e5832000 	str	r2, [r3]
    1760:	f57ff04f 	dsb	sy
    1764:	f57ff06f 	isb	sy
    1768:	e8bd8038 	pop	{r3, r4, r5, pc}
    176c:	e3a02000 	mov	r2, #0
    1770:	e59f001c 	ldr	r0, [pc, #28]	; 1794 <set_serial_gpio+0xa4>
    1774:	e34f21c2 	movt	r2, #61890	; 0xf1c2
    1778:	e30038b4 	movw	r3, #2228	; 0x8b4
    177c:	e592c8b4 	ldr	ip, [r2, #2228]	; 0x8b4
    1780:	e3e01000 	mvn	r1, #0
    1784:	e3a02000 	mov	r2, #0
    1788:	e34f31c2 	movt	r3, #61890	; 0xf1c2
    178c:	e580c000 	str	ip, [r0]
    1790:	eaffffe8 	b	1738 <set_serial_gpio+0x48>
    1794:	0000326c 	andeq	r3, r0, ip, ror #4

00001798 <set_serial_clk>:
    1798:	e92d4038 	push	{r3, r4, r5, lr}
    179c:	e1a04000 	mov	r4, r0
    17a0:	eb000534 	bl	2c78 <mem_get_ba>
    17a4:	e5903058 	ldr	r3, [r0, #88]	; 0x58
    17a8:	e7e12c53 	ubfx	r2, r3, #24, #2
    17ac:	e3520003 	cmp	r2, #3
    17b0:	159f1084 	ldrne	r1, [pc, #132]	; 183c <set_serial_clk+0xa4>
    17b4:	03a00000 	moveq	r0, #0
    17b8:	17910102 	ldrne	r0, [r1, r2, lsl #2]
    17bc:	e203101f 	and	r1, r3, #31
    17c0:	e2811001 	add	r1, r1, #1
    17c4:	e7e13853 	ubfx	r3, r3, #16, #2
    17c8:	e1a01311 	lsl	r1, r1, r3
    17cc:	eb000324 	bl	2464 <__aeabi_uidiv>
    17d0:	e3540000 	cmp	r4, #0
    17d4:	e3a04000 	mov	r4, #0
    17d8:	134f41c2 	movtne	r4, #61890	; 0xf1c2
    17dc:	159f305c 	ldrne	r3, [pc, #92]	; 1840 <set_serial_clk+0xa8>
    17e0:	1594206c 	ldrne	r2, [r4, #108]	; 0x6c
    17e4:	034041c2 	movteq	r4, #450	; 0x1c2
    17e8:	e1a05000 	mov	r5, r0
    17ec:	15832004 	strne	r2, [r3, #4]
    17f0:	159422d8 	ldrne	r2, [r4, #728]	; 0x2d8
    17f4:	15832008 	strne	r2, [r3, #8]
    17f8:	e59432d8 	ldr	r3, [r4, #728]	; 0x2d8
    17fc:	e3c33801 	bic	r3, r3, #65536	; 0x10000
    1800:	e58432d8 	str	r3, [r4, #728]	; 0x2d8
    1804:	e59432d8 	ldr	r3, [r4, #728]	; 0x2d8
    1808:	e3833801 	orr	r3, r3, #65536	; 0x10000
    180c:	e58432d8 	str	r3, [r4, #728]	; 0x2d8
    1810:	ebfffbdb 	bl	784 <change_runtime_env>
    1814:	e3a00001 	mov	r0, #1
    1818:	ebfffbe6 	bl	7b8 <delay_us>
    181c:	e594306c 	ldr	r3, [r4, #108]	; 0x6c
    1820:	e1a00005 	mov	r0, r5
    1824:	e3c33801 	bic	r3, r3, #65536	; 0x10000
    1828:	e584306c 	str	r3, [r4, #108]	; 0x6c
    182c:	e594306c 	ldr	r3, [r4, #108]	; 0x6c
    1830:	e3833801 	orr	r3, r3, #65536	; 0x10000
    1834:	e584306c 	str	r3, [r4, #108]	; 0x6c
    1838:	e8bd8038 	pop	{r3, r4, r5, pc}
    183c:	00002ffc 	strdeq	r2, [r0], -ip
    1840:	0000326c 	andeq	r3, r0, ip, ror #4

00001844 <serial_exit>:
    1844:	e59f3034 	ldr	r3, [pc, #52]	; 1880 <serial_exit+0x3c>
    1848:	e3a02000 	mov	r2, #0
    184c:	e34f21c2 	movt	r2, #61890	; 0xf1c2
    1850:	e5931004 	ldr	r1, [r3, #4]
    1854:	e582106c 	str	r1, [r2, #108]	; 0x6c
    1858:	e5931008 	ldr	r1, [r3, #8]
    185c:	e58212d8 	str	r1, [r2, #728]	; 0x2d8
    1860:	e593100c 	ldr	r1, [r3, #12]
    1864:	e3510000 	cmp	r1, #0
    1868:	e5931000 	ldr	r1, [r3]
    186c:	05821828 	streq	r1, [r2, #2088]	; 0x828
    1870:	158218b4 	strne	r1, [r2, #2228]	; 0x8b4
    1874:	e3a02000 	mov	r2, #0
    1878:	e5832010 	str	r2, [r3, #16]
    187c:	e12fff1e 	bx	lr
    1880:	0000326c 	andeq	r3, r0, ip, ror #4

00001884 <serial_init_nommu>:
    1884:	e92d4038 	push	{r3, r4, r5, lr}
    1888:	e1a01000 	mov	r1, r0
    188c:	e3a00000 	mov	r0, #0
    1890:	ebffff96 	bl	16f0 <set_serial_gpio>
    1894:	e3a00000 	mov	r0, #0
    1898:	ebffffbe 	bl	1798 <set_serial_clk>
    189c:	e30b33c5 	movw	r3, #46021	; 0xb3c5
    18a0:	e2800ae1 	add	r0, r0, #921600	; 0xe1000
    18a4:	e34931a2 	movt	r3, #37282	; 0x91a2
    18a8:	e3a02902 	mov	r2, #32768	; 0x8000
    18ac:	e0831093 	umull	r1, r3, r3, r0
    18b0:	e34021c2 	movt	r2, #450	; 0x1c2
    18b4:	e592000c 	ldr	r0, [r2, #12]
    18b8:	e3a0c001 	mov	ip, #1
    18bc:	e582c0a4 	str	ip, [r2, #164]	; 0xa4
    18c0:	e303126c 	movw	r1, #12908	; 0x326c
    18c4:	e3401000 	movt	r1, #0
    18c8:	e3805080 	orr	r5, r0, #128	; 0x80
    18cc:	e3c00080 	bic	r0, r0, #128	; 0x80
    18d0:	e1a04e23 	lsr	r4, r3, #28
    18d4:	e7e73a53 	ubfx	r3, r3, #20, #8
    18d8:	e582500c 	str	r5, [r2, #12]
    18dc:	e5824004 	str	r4, [r2, #4]
    18e0:	e5823000 	str	r3, [r2]
    18e4:	e3a03000 	mov	r3, #0
    18e8:	e582000c 	str	r0, [r2, #12]
    18ec:	e58230a4 	str	r3, [r2, #164]	; 0xa4
    18f0:	e3a03003 	mov	r3, #3
    18f4:	e582300c 	str	r3, [r2, #12]
    18f8:	e3a030e1 	mov	r3, #225	; 0xe1
    18fc:	e5823008 	str	r3, [r2, #8]
    1900:	e581c010 	str	ip, [r1, #16]
    1904:	e8bd8038 	pop	{r3, r4, r5, pc}

00001908 <serial_puts_nommu>:
    1908:	e59f30a4 	ldr	r3, [pc, #164]	; 19b4 <serial_puts_nommu+0xac>
    190c:	e52d4004 	push	{r4}		; (str r4, [sp, #-4]!)
    1910:	e5933010 	ldr	r3, [r3, #16]
    1914:	e3530000 	cmp	r3, #0
    1918:	03e00000 	mvneq	r0, #0
    191c:	0a000017 	beq	1980 <serial_puts_nommu+0x78>
    1920:	e5d03000 	ldrb	r3, [r0]
    1924:	e3530000 	cmp	r3, #0
    1928:	0a000013 	beq	197c <serial_puts_nommu+0x74>
    192c:	e3a01902 	mov	r1, #32768	; 0x8000
    1930:	e2400001 	sub	r0, r0, #1
    1934:	e34011c2 	movt	r1, #450	; 0x1c2
    1938:	e3a0400d 	mov	r4, #13
    193c:	e353000a 	cmp	r3, #10
    1940:	0a000010 	beq	1988 <serial_puts_nommu+0x80>
    1944:	e5f0c001 	ldrb	ip, [r0, #1]!
    1948:	e591207c 	ldr	r2, [r1, #124]	; 0x7c
    194c:	e3a03902 	mov	r3, #32768	; 0x8000
    1950:	e34031c2 	movt	r3, #450	; 0x1c2
    1954:	e3120002 	tst	r2, #2
    1958:	0afffffa 	beq	1948 <serial_puts_nommu+0x40>
    195c:	f57ff04f 	dsb	sy
    1960:	f57ff06f 	isb	sy
    1964:	e583c000 	str	ip, [r3]
    1968:	f57ff04f 	dsb	sy
    196c:	f57ff06f 	isb	sy
    1970:	e5d03001 	ldrb	r3, [r0, #1]
    1974:	e3530000 	cmp	r3, #0
    1978:	1affffef 	bne	193c <serial_puts_nommu+0x34>
    197c:	e1a00003 	mov	r0, r3
    1980:	e8bd0010 	pop	{r4}
    1984:	e12fff1e 	bx	lr
    1988:	e591207c 	ldr	r2, [r1, #124]	; 0x7c
    198c:	e3a03902 	mov	r3, #32768	; 0x8000
    1990:	e34031c2 	movt	r3, #450	; 0x1c2
    1994:	e3120002 	tst	r2, #2
    1998:	0afffffa 	beq	1988 <serial_puts_nommu+0x80>
    199c:	f57ff04f 	dsb	sy
    19a0:	f57ff06f 	isb	sy
    19a4:	e5834000 	str	r4, [r3]
    19a8:	f57ff04f 	dsb	sy
    19ac:	f57ff06f 	isb	sy
    19b0:	eaffffe3 	b	1944 <serial_puts_nommu+0x3c>
    19b4:	0000326c 	andeq	r3, r0, ip, ror #4

000019b8 <serial_gets_nommu>:
    19b8:	e59f3080 	ldr	r3, [pc, #128]	; 1a40 <serial_gets_nommu+0x88>
    19bc:	e52d4004 	push	{r4}		; (str r4, [sp, #-4]!)
    19c0:	e5933010 	ldr	r3, [r3, #16]
    19c4:	e3530000 	cmp	r3, #0
    19c8:	03e00000 	mvneq	r0, #0
    19cc:	1a000001 	bne	19d8 <serial_gets_nommu+0x20>
    19d0:	e8bd0010 	pop	{r4}
    19d4:	e12fff1e 	bx	lr
    19d8:	e3510000 	cmp	r1, #0
    19dc:	03a00001 	moveq	r0, #1
    19e0:	0afffffa 	beq	19d0 <serial_gets_nommu+0x18>
    19e4:	e3a0c902 	mov	ip, #32768	; 0x8000
    19e8:	e3a04000 	mov	r4, #0
    19ec:	e340c1c2 	movt	ip, #450	; 0x1c2
    19f0:	e30f3fff 	movw	r3, #65535	; 0xffff
    19f4:	ea000001 	b	1a00 <serial_gets_nommu+0x48>
    19f8:	e2533001 	subs	r3, r3, #1
    19fc:	3a000006 	bcc	1a1c <serial_gets_nommu+0x64>
    1a00:	e59c207c 	ldr	r2, [ip, #124]	; 0x7c
    1a04:	e3120008 	tst	r2, #8
    1a08:	0afffffa 	beq	19f8 <serial_gets_nommu+0x40>
    1a0c:	e3530000 	cmp	r3, #0
    1a10:	1a000001 	bne	1a1c <serial_gets_nommu+0x64>
    1a14:	e2840001 	add	r0, r4, #1
    1a18:	eaffffec 	b	19d0 <serial_gets_nommu+0x18>
    1a1c:	e59c3000 	ldr	r3, [ip]
    1a20:	e6ef3073 	uxtb	r3, r3
    1a24:	e3530000 	cmp	r3, #0
    1a28:	0afffff9 	beq	1a14 <serial_gets_nommu+0x5c>
    1a2c:	e7c03004 	strb	r3, [r0, r4]
    1a30:	e2844001 	add	r4, r4, #1
    1a34:	e1540001 	cmp	r4, r1
    1a38:	1affffec 	bne	19f0 <serial_gets_nommu+0x38>
    1a3c:	eafffff4 	b	1a14 <serial_gets_nommu+0x5c>
    1a40:	0000326c 	andeq	r3, r0, ip, ror #4

00001a44 <serial_init_manager>:
    1a44:	e303326c 	movw	r3, #12908	; 0x326c
    1a48:	e3a02001 	mov	r2, #1
    1a4c:	e3403000 	movt	r3, #0
    1a50:	e5832010 	str	r2, [r3, #16]
    1a54:	e12fff1e 	bx	lr

00001a58 <serial_exit_manager>:
    1a58:	e303326c 	movw	r3, #12908	; 0x326c
    1a5c:	e3a02000 	mov	r2, #0
    1a60:	e3403000 	movt	r3, #0
    1a64:	e5832010 	str	r2, [r3, #16]
    1a68:	e12fff1e 	bx	lr

00001a6c <serial_init>:
    1a6c:	e92d4038 	push	{r3, r4, r5, lr}
    1a70:	e1a03000 	mov	r3, r0
    1a74:	e303426c 	movw	r4, #12908	; 0x326c
    1a78:	e1a01003 	mov	r1, r3
    1a7c:	e3404000 	movt	r4, #0
    1a80:	e3a00001 	mov	r0, #1
    1a84:	e584300c 	str	r3, [r4, #12]
    1a88:	ebffff18 	bl	16f0 <set_serial_gpio>
    1a8c:	e3a00001 	mov	r0, #1
    1a90:	ebffff40 	bl	1798 <set_serial_clk>
    1a94:	e30b33c5 	movw	r3, #46021	; 0xb3c5
    1a98:	e2800ae1 	add	r0, r0, #921600	; 0xe1000
    1a9c:	e34931a2 	movt	r3, #37282	; 0x91a2
    1aa0:	e3a02902 	mov	r2, #32768	; 0x8000
    1aa4:	e0831093 	umull	r1, r3, r3, r0
    1aa8:	e34f21c2 	movt	r2, #61890	; 0xf1c2
    1aac:	e592000c 	ldr	r0, [r2, #12]
    1ab0:	e3a01001 	mov	r1, #1
    1ab4:	e58210a4 	str	r1, [r2, #164]	; 0xa4
    1ab8:	e3805080 	orr	r5, r0, #128	; 0x80
    1abc:	e3c00080 	bic	r0, r0, #128	; 0x80
    1ac0:	e1a0ce23 	lsr	ip, r3, #28
    1ac4:	e7e73a53 	ubfx	r3, r3, #20, #8
    1ac8:	e582500c 	str	r5, [r2, #12]
    1acc:	e582c004 	str	ip, [r2, #4]
    1ad0:	e5823000 	str	r3, [r2]
    1ad4:	e3a03000 	mov	r3, #0
    1ad8:	e582000c 	str	r0, [r2, #12]
    1adc:	e58230a4 	str	r3, [r2, #164]	; 0xa4
    1ae0:	e3a03003 	mov	r3, #3
    1ae4:	e582300c 	str	r3, [r2, #12]
    1ae8:	e3a030e1 	mov	r3, #225	; 0xe1
    1aec:	e5823008 	str	r3, [r2, #8]
    1af0:	e5841010 	str	r1, [r4, #16]
    1af4:	e8bd8038 	pop	{r3, r4, r5, pc}

00001af8 <serial_puts>:
    1af8:	e59f30a4 	ldr	r3, [pc, #164]	; 1ba4 <serial_puts+0xac>
    1afc:	e52d4004 	push	{r4}		; (str r4, [sp, #-4]!)
    1b00:	e5933010 	ldr	r3, [r3, #16]
    1b04:	e3530000 	cmp	r3, #0
    1b08:	03e00000 	mvneq	r0, #0
    1b0c:	0a000017 	beq	1b70 <serial_puts+0x78>
    1b10:	e5d03000 	ldrb	r3, [r0]
    1b14:	e3530000 	cmp	r3, #0
    1b18:	0a000013 	beq	1b6c <serial_puts+0x74>
    1b1c:	e3a01902 	mov	r1, #32768	; 0x8000
    1b20:	e2400001 	sub	r0, r0, #1
    1b24:	e34f11c2 	movt	r1, #61890	; 0xf1c2
    1b28:	e3a0400d 	mov	r4, #13
    1b2c:	e353000a 	cmp	r3, #10
    1b30:	0a000010 	beq	1b78 <serial_puts+0x80>
    1b34:	e5f0c001 	ldrb	ip, [r0, #1]!
    1b38:	e591207c 	ldr	r2, [r1, #124]	; 0x7c
    1b3c:	e3a03902 	mov	r3, #32768	; 0x8000
    1b40:	e34f31c2 	movt	r3, #61890	; 0xf1c2
    1b44:	e3120002 	tst	r2, #2
    1b48:	0afffffa 	beq	1b38 <serial_puts+0x40>
    1b4c:	f57ff04f 	dsb	sy
    1b50:	f57ff06f 	isb	sy
    1b54:	e583c000 	str	ip, [r3]
    1b58:	f57ff04f 	dsb	sy
    1b5c:	f57ff06f 	isb	sy
    1b60:	e5d03001 	ldrb	r3, [r0, #1]
    1b64:	e3530000 	cmp	r3, #0
    1b68:	1affffef 	bne	1b2c <serial_puts+0x34>
    1b6c:	e1a00003 	mov	r0, r3
    1b70:	e8bd0010 	pop	{r4}
    1b74:	e12fff1e 	bx	lr
    1b78:	e591207c 	ldr	r2, [r1, #124]	; 0x7c
    1b7c:	e3a03902 	mov	r3, #32768	; 0x8000
    1b80:	e34f31c2 	movt	r3, #61890	; 0xf1c2
    1b84:	e3120002 	tst	r2, #2
    1b88:	0afffffa 	beq	1b78 <serial_puts+0x80>
    1b8c:	f57ff04f 	dsb	sy
    1b90:	f57ff06f 	isb	sy
    1b94:	e5834000 	str	r4, [r3]
    1b98:	f57ff04f 	dsb	sy
    1b9c:	f57ff06f 	isb	sy
    1ba0:	eaffffe3 	b	1b34 <serial_puts+0x3c>
    1ba4:	0000326c 	andeq	r3, r0, ip, ror #4

00001ba8 <serial_gets>:
    1ba8:	e59f3080 	ldr	r3, [pc, #128]	; 1c30 <serial_gets+0x88>
    1bac:	e52d4004 	push	{r4}		; (str r4, [sp, #-4]!)
    1bb0:	e5933010 	ldr	r3, [r3, #16]
    1bb4:	e3530000 	cmp	r3, #0
    1bb8:	03e00000 	mvneq	r0, #0
    1bbc:	1a000001 	bne	1bc8 <serial_gets+0x20>
    1bc0:	e8bd0010 	pop	{r4}
    1bc4:	e12fff1e 	bx	lr
    1bc8:	e3510000 	cmp	r1, #0
    1bcc:	03a00001 	moveq	r0, #1
    1bd0:	0afffffa 	beq	1bc0 <serial_gets+0x18>
    1bd4:	e3a0c902 	mov	ip, #32768	; 0x8000
    1bd8:	e3a04000 	mov	r4, #0
    1bdc:	e34fc1c2 	movt	ip, #61890	; 0xf1c2
    1be0:	e30f3fff 	movw	r3, #65535	; 0xffff
    1be4:	ea000001 	b	1bf0 <serial_gets+0x48>
    1be8:	e2533001 	subs	r3, r3, #1
    1bec:	3a000006 	bcc	1c0c <serial_gets+0x64>
    1bf0:	e59c207c 	ldr	r2, [ip, #124]	; 0x7c
    1bf4:	e3120008 	tst	r2, #8
    1bf8:	0afffffa 	beq	1be8 <serial_gets+0x40>
    1bfc:	e3530000 	cmp	r3, #0
    1c00:	1a000001 	bne	1c0c <serial_gets+0x64>
    1c04:	e2840001 	add	r0, r4, #1
    1c08:	eaffffec 	b	1bc0 <serial_gets+0x18>
    1c0c:	e59c3000 	ldr	r3, [ip]
    1c10:	e6ef3073 	uxtb	r3, r3
    1c14:	e3530000 	cmp	r3, #0
    1c18:	0afffff9 	beq	1c04 <serial_gets+0x5c>
    1c1c:	e7c03004 	strb	r3, [r0, r4]
    1c20:	e2844001 	add	r4, r4, #1
    1c24:	e1540001 	cmp	r4, r1
    1c28:	1affffec 	bne	1be0 <serial_gets+0x38>
    1c2c:	eafffff4 	b	1c04 <serial_gets+0x5c>
    1c30:	0000326c 	andeq	r3, r0, ip, ror #4

00001c34 <utoa>:
    1c34:	e92d45f0 	push	{r4, r5, r6, r7, r8, sl, lr}
    1c38:	e3500000 	cmp	r0, #0
    1c3c:	e59f60a8 	ldr	r6, [pc, #168]	; 1cec <utoa+0xb8>
    1c40:	e1a07001 	mov	r7, r1
    1c44:	e1a04000 	mov	r4, r0
    1c48:	e1a05002 	mov	r5, r2
    1c4c:	e24dd02c 	sub	sp, sp, #44	; 0x2c
    1c50:	13a08000 	movne	r8, #0
    1c54:	e28dc004 	add	ip, sp, #4
    1c58:	128da018 	addne	sl, sp, #24
    1c5c:	e8b6000f 	ldm	r6!, {r0, r1, r2, r3}
    1c60:	e5966000 	ldr	r6, [r6]
    1c64:	e8ac000f 	stmia	ip!, {r0, r1, r2, r3}
    1c68:	03a03030 	moveq	r3, #48	; 0x30
    1c6c:	05c74001 	strbeq	r4, [r7, #1]
    1c70:	e5cc6000 	strb	r6, [ip]
    1c74:	05c73000 	strbeq	r3, [r7]
    1c78:	1a000001 	bne	1c84 <utoa+0x50>
    1c7c:	ea000017 	b	1ce0 <utoa+0xac>
    1c80:	e1a08003 	mov	r8, r3
    1c84:	e1a00004 	mov	r0, r4
    1c88:	e1a01005 	mov	r1, r5
    1c8c:	eb00024e 	bl	25cc <__aeabi_uidivmod>
    1c90:	e28d3028 	add	r3, sp, #40	; 0x28
    1c94:	e1a00004 	mov	r0, r4
    1c98:	e0831001 	add	r1, r3, r1
    1c9c:	e5516024 	ldrb	r6, [r1, #-36]	; 0x24
    1ca0:	e1a01005 	mov	r1, r5
    1ca4:	e7ca6008 	strb	r6, [sl, r8]
    1ca8:	eb0001ed 	bl	2464 <__aeabi_uidiv>
    1cac:	e2504000 	subs	r4, r0, #0
    1cb0:	e2883001 	add	r3, r8, #1
    1cb4:	1afffff1 	bne	1c80 <utoa+0x4c>
    1cb8:	e2472001 	sub	r2, r7, #1
    1cbc:	e08a3008 	add	r3, sl, r8
    1cc0:	ea000000 	b	1cc8 <utoa+0x94>
    1cc4:	e5736001 	ldrb	r6, [r3, #-1]!
    1cc8:	e153000a 	cmp	r3, sl
    1ccc:	e5e26001 	strb	r6, [r2, #1]!
    1cd0:	1afffffb 	bne	1cc4 <utoa+0x90>
    1cd4:	e0878008 	add	r8, r7, r8
    1cd8:	e3a03000 	mov	r3, #0
    1cdc:	e5c83001 	strb	r3, [r8, #1]
    1ce0:	e1a00007 	mov	r0, r7
    1ce4:	e28dd02c 	add	sp, sp, #44	; 0x2c
    1ce8:	e8bd85f0 	pop	{r4, r5, r6, r7, r8, sl, pc}
    1cec:	00003128 	andeq	r3, r0, r8, lsr #2

00001cf0 <print_align>:
    1cf0:	e92d00f0 	push	{r4, r5, r6, r7}
    1cf4:	e1510002 	cmp	r1, r2
    1cf8:	e59f4094 	ldr	r4, [pc, #148]	; 1d94 <print_align+0xa4>
    1cfc:	e1a07001 	mov	r7, r1
    1d00:	e1a06002 	mov	r6, r2
    1d04:	e1a05000 	mov	r5, r0
    1d08:	e24dd018 	sub	sp, sp, #24
    1d0c:	e28dc004 	add	ip, sp, #4
    1d10:	e8b4000f 	ldm	r4!, {r0, r1, r2, r3}
    1d14:	e5944000 	ldr	r4, [r4]
    1d18:	e8ac000f 	stmia	ip!, {r0, r1, r2, r3}
    1d1c:	a3a00000 	movge	r0, #0
    1d20:	e5cc4000 	strb	r4, [ip]
    1d24:	aa000017 	bge	1d88 <print_align+0x98>
    1d28:	e0670006 	rsb	r0, r7, r6
    1d2c:	e3500000 	cmp	r0, #0
    1d30:	e1a01000 	mov	r1, r0
    1d34:	0a000013 	beq	1d88 <print_align+0x98>
    1d38:	e5d53000 	ldrb	r3, [r5]
    1d3c:	e3530000 	cmp	r3, #0
    1d40:	0a000005 	beq	1d5c <print_align+0x6c>
    1d44:	e1a03005 	mov	r3, r5
    1d48:	e2833001 	add	r3, r3, #1
    1d4c:	e5d32000 	ldrb	r2, [r3]
    1d50:	e1a05003 	mov	r5, r3
    1d54:	e3520000 	cmp	r2, #0
    1d58:	1afffffa 	bne	1d48 <print_align+0x58>
    1d5c:	e28dc003 	add	ip, sp, #3
    1d60:	ea000000 	b	1d68 <print_align+0x78>
    1d64:	e1a05003 	mov	r5, r3
    1d68:	e5fc2001 	ldrb	r2, [ip, #1]!
    1d6c:	e1a03005 	mov	r3, r5
    1d70:	e3520000 	cmp	r2, #0
    1d74:	e4c32001 	strb	r2, [r3], #1
    1d78:	0a000002 	beq	1d88 <print_align+0x98>
    1d7c:	e2511001 	subs	r1, r1, #1
    1d80:	1afffff7 	bne	1d64 <print_align+0x74>
    1d84:	e5c51001 	strb	r1, [r5, #1]
    1d88:	e28dd018 	add	sp, sp, #24
    1d8c:	e8bd00f0 	pop	{r4, r5, r6, r7}
    1d90:	e12fff1e 	bx	lr
    1d94:	0000313c 	andeq	r3, r0, ip, lsr r1

00001d98 <itoa.constprop.0>:
    1d98:	e92d01f0 	push	{r4, r5, r6, r7, r8}
    1d9c:	e3500000 	cmp	r0, #0
    1da0:	e59f50d4 	ldr	r5, [pc, #212]	; 1e7c <itoa.constprop.0+0xe4>
    1da4:	e1a06001 	mov	r6, r1
    1da8:	e1a0c000 	mov	ip, r0
    1dac:	e24dd02c 	sub	sp, sp, #44	; 0x2c
    1db0:	e28d4004 	add	r4, sp, #4
    1db4:	e8b5000f 	ldm	r5!, {r0, r1, r2, r3}
    1db8:	e5955000 	ldr	r5, [r5]
    1dbc:	e8a4000f 	stmia	r4!, {r0, r1, r2, r3}
    1dc0:	03a03030 	moveq	r3, #48	; 0x30
    1dc4:	05c6c001 	strbeq	ip, [r6, #1]
    1dc8:	e5c45000 	strb	r5, [r4]
    1dcc:	05c63000 	strbeq	r3, [r6]
    1dd0:	0a000025 	beq	1e6c <itoa.constprop.0+0xd4>
    1dd4:	e3065667 	movw	r5, #26215	; 0x6667
    1dd8:	b26cc000 	rsblt	ip, ip, #0
    1ddc:	b3a07001 	movlt	r7, #1
    1de0:	a3a07000 	movge	r7, #0
    1de4:	e3a03000 	mov	r3, #0
    1de8:	e28d0018 	add	r0, sp, #24
    1dec:	e3465666 	movt	r5, #26214	; 0x6666
    1df0:	ea000000 	b	1df8 <itoa.constprop.0+0x60>
    1df4:	e1a03004 	mov	r3, r4
    1df8:	e0c12c95 	smull	r2, r1, r5, ip
    1dfc:	e1a02fcc 	asr	r2, ip, #31
    1e00:	e28d8028 	add	r8, sp, #40	; 0x28
    1e04:	e2834001 	add	r4, r3, #1
    1e08:	e0622141 	rsb	r2, r2, r1, asr #2
    1e0c:	e0821102 	add	r1, r2, r2, lsl #2
    1e10:	e04c1081 	sub	r1, ip, r1, lsl #1
    1e14:	e252c000 	subs	ip, r2, #0
    1e18:	e0882001 	add	r2, r8, r1
    1e1c:	e5522024 	ldrb	r2, [r2, #-36]	; 0x24
    1e20:	e7c02003 	strb	r2, [r0, r3]
    1e24:	1afffff2 	bne	1df4 <itoa.constprop.0+0x5c>
    1e28:	e3570000 	cmp	r7, #0
    1e2c:	e1a0c003 	mov	ip, r3
    1e30:	13a0102d 	movne	r1, #45	; 0x2d
    1e34:	13a07001 	movne	r7, #1
    1e38:	15c61000 	strbne	r1, [r6]
    1e3c:	e2471001 	sub	r1, r7, #1
    1e40:	e0861001 	add	r1, r6, r1
    1e44:	ea000000 	b	1e4c <itoa.constprop.0+0xb4>
    1e48:	e7d02003 	ldrb	r2, [r0, r3]
    1e4c:	e2433001 	sub	r3, r3, #1
    1e50:	e5e12001 	strb	r2, [r1, #1]!
    1e54:	e3730001 	cmn	r3, #1
    1e58:	1afffffa 	bne	1e48 <itoa.constprop.0+0xb0>
    1e5c:	e2877001 	add	r7, r7, #1
    1e60:	e3a03000 	mov	r3, #0
    1e64:	e0867007 	add	r7, r6, r7
    1e68:	e7c7300c 	strb	r3, [r7, ip]
    1e6c:	e1a00006 	mov	r0, r6
    1e70:	e28dd02c 	add	sp, sp, #44	; 0x2c
    1e74:	e8bd01f0 	pop	{r4, r5, r6, r7, r8}
    1e78:	e12fff1e 	bx	lr
    1e7c:	00003128 	andeq	r3, r0, r8, lsr #2

00001e80 <printk>:
    1e80:	e92d000f 	push	{r0, r1, r2, r3}
    1e84:	e92d47f0 	push	{r4, r5, r6, r7, r8, r9, sl, lr}
    1e88:	e24dd018 	sub	sp, sp, #24
    1e8c:	e28d303c 	add	r3, sp, #60	; 0x3c
    1e90:	e59d4038 	ldr	r4, [sp, #56]	; 0x38
    1e94:	e58d3014 	str	r3, [sp, #20]
    1e98:	e59f82ac 	ldr	r8, [pc, #684]	; 214c <printk+0x2cc>
    1e9c:	e5d43000 	ldrb	r3, [r4]
    1ea0:	e3530000 	cmp	r3, #0
    1ea4:	01a05008 	moveq	r5, r8
    1ea8:	0a00002c 	beq	1f60 <printk+0xe0>
    1eac:	e3a09025 	mov	r9, #37	; 0x25
    1eb0:	e28d6004 	add	r6, sp, #4
    1eb4:	e1a05008 	mov	r5, r8
    1eb8:	ea000003 	b	1ecc <printk+0x4c>
    1ebc:	e5d43001 	ldrb	r3, [r4, #1]
    1ec0:	e2844001 	add	r4, r4, #1
    1ec4:	e3530000 	cmp	r3, #0
    1ec8:	0a000024 	beq	1f60 <printk+0xe0>
    1ecc:	e3530025 	cmp	r3, #37	; 0x25
    1ed0:	14c53001 	strbne	r3, [r5], #1
    1ed4:	1afffff8 	bne	1ebc <printk+0x3c>
    1ed8:	e5d43001 	ldrb	r3, [r4, #1]
    1edc:	e2432031 	sub	r2, r3, #49	; 0x31
    1ee0:	e3520008 	cmp	r2, #8
    1ee4:	92437030 	subls	r7, r3, #48	; 0x30
    1ee8:	95d43002 	ldrbls	r3, [r4, #2]
    1eec:	82844001 	addhi	r4, r4, #1
    1ef0:	83a07000 	movhi	r7, #0
    1ef4:	92844002 	addls	r4, r4, #2
    1ef8:	e2433063 	sub	r3, r3, #99	; 0x63
    1efc:	e3530015 	cmp	r3, #21
    1f00:	979ff103 	ldrls	pc, [pc, r3, lsl #2]
    1f04:	ea000070 	b	20cc <printk+0x24c>
    1f08:	000020b4 	strheq	r2, [r0], -r4
    1f0c:	000020e0 	andeq	r2, r0, r0, ror #1
    1f10:	000020cc 	andeq	r2, r0, ip, asr #1
    1f14:	000020cc 	andeq	r2, r0, ip, asr #1
    1f18:	000020cc 	andeq	r2, r0, ip, asr #1
    1f1c:	000020cc 	andeq	r2, r0, ip, asr #1
    1f20:	000020cc 	andeq	r2, r0, ip, asr #1
    1f24:	000020cc 	andeq	r2, r0, ip, asr #1
    1f28:	000020cc 	andeq	r2, r0, ip, asr #1
    1f2c:	000020cc 	andeq	r2, r0, ip, asr #1
    1f30:	000020cc 	andeq	r2, r0, ip, asr #1
    1f34:	000020cc 	andeq	r2, r0, ip, asr #1
    1f38:	000020cc 	andeq	r2, r0, ip, asr #1
    1f3c:	00002044 	andeq	r2, r0, r4, asr #32
    1f40:	000020cc 	andeq	r2, r0, ip, asr #1
    1f44:	000020cc 	andeq	r2, r0, ip, asr #1
    1f48:	00001ff4 	strdeq	r1, [r0], -r4
    1f4c:	000020cc 	andeq	r2, r0, ip, asr #1
    1f50:	00001f84 	andeq	r1, r0, r4, lsl #31
    1f54:	000020cc 	andeq	r2, r0, ip, asr #1
    1f58:	000020cc 	andeq	r2, r0, ip, asr #1
    1f5c:	00002044 	andeq	r2, r0, r4, asr #32
    1f60:	e3a03000 	mov	r3, #0
    1f64:	e59f01e0 	ldr	r0, [pc, #480]	; 214c <printk+0x2cc>
    1f68:	e4c53001 	strb	r3, [r5], #1
    1f6c:	ebfffee1 	bl	1af8 <serial_puts>
    1f70:	e0680005 	rsb	r0, r8, r5
    1f74:	e28dd018 	add	sp, sp, #24
    1f78:	e8bd47f0 	pop	{r4, r5, r6, r7, r8, r9, sl, lr}
    1f7c:	e28dd010 	add	sp, sp, #16
    1f80:	e12fff1e 	bx	lr
    1f84:	e59d0014 	ldr	r0, [sp, #20]
    1f88:	e1a01006 	mov	r1, r6
    1f8c:	e3a0200a 	mov	r2, #10
    1f90:	e2803004 	add	r3, r0, #4
    1f94:	e5900000 	ldr	r0, [r0]
    1f98:	e58d3014 	str	r3, [sp, #20]
    1f9c:	ebffff24 	bl	1c34 <utoa>
    1fa0:	e5d6a000 	ldrb	sl, [r6]
    1fa4:	e35a0000 	cmp	sl, #0
    1fa8:	0a000004 	beq	1fc0 <printk+0x140>
    1fac:	e1a0a006 	mov	sl, r6
    1fb0:	e5fa3001 	ldrb	r3, [sl, #1]!
    1fb4:	e3530000 	cmp	r3, #0
    1fb8:	1afffffc 	bne	1fb0 <printk+0x130>
    1fbc:	e066a00a 	rsb	sl, r6, sl
    1fc0:	e1a0100a 	mov	r1, sl
    1fc4:	e1a00006 	mov	r0, r6
    1fc8:	e1a02007 	mov	r2, r7
    1fcc:	ebffff47 	bl	1cf0 <print_align>
    1fd0:	e28d3003 	add	r3, sp, #3
    1fd4:	e080000a 	add	r0, r0, sl
    1fd8:	e1a01005 	mov	r1, r5
    1fdc:	e5f32001 	ldrb	r2, [r3, #1]!
    1fe0:	e3520000 	cmp	r2, #0
    1fe4:	e4c12001 	strb	r2, [r1], #1
    1fe8:	1afffffb 	bne	1fdc <printk+0x15c>
    1fec:	e0855000 	add	r5, r5, r0
    1ff0:	eaffffb1 	b	1ebc <printk+0x3c>
    1ff4:	e59d3014 	ldr	r3, [sp, #20]
    1ff8:	e1a01005 	mov	r1, r5
    1ffc:	e2832004 	add	r2, r3, #4
    2000:	e58d2014 	str	r2, [sp, #20]
    2004:	e5930000 	ldr	r0, [r3]
    2008:	e2402001 	sub	r2, r0, #1
    200c:	e5f23001 	ldrb	r3, [r2, #1]!
    2010:	e3530000 	cmp	r3, #0
    2014:	e4c13001 	strb	r3, [r1], #1
    2018:	1afffffb 	bne	200c <printk+0x18c>
    201c:	e5d03000 	ldrb	r3, [r0]
    2020:	e3530000 	cmp	r3, #0
    2024:	0a000004 	beq	203c <printk+0x1bc>
    2028:	e1a03000 	mov	r3, r0
    202c:	e5f32001 	ldrb	r2, [r3, #1]!
    2030:	e3520000 	cmp	r2, #0
    2034:	1afffffc 	bne	202c <printk+0x1ac>
    2038:	e0603003 	rsb	r3, r0, r3
    203c:	e0855003 	add	r5, r5, r3
    2040:	eaffff9d 	b	1ebc <printk+0x3c>
    2044:	e59d0014 	ldr	r0, [sp, #20]
    2048:	e1a01006 	mov	r1, r6
    204c:	e3a02010 	mov	r2, #16
    2050:	e2803004 	add	r3, r0, #4
    2054:	e5900000 	ldr	r0, [r0]
    2058:	e58d3014 	str	r3, [sp, #20]
    205c:	ebfffef4 	bl	1c34 <utoa>
    2060:	e5d6a000 	ldrb	sl, [r6]
    2064:	e35a0000 	cmp	sl, #0
    2068:	0a000004 	beq	2080 <printk+0x200>
    206c:	e1a0a006 	mov	sl, r6
    2070:	e5fa3001 	ldrb	r3, [sl, #1]!
    2074:	e3530000 	cmp	r3, #0
    2078:	1afffffc 	bne	2070 <printk+0x1f0>
    207c:	e066a00a 	rsb	sl, r6, sl
    2080:	e1a0100a 	mov	r1, sl
    2084:	e1a00006 	mov	r0, r6
    2088:	e1a02007 	mov	r2, r7
    208c:	ebffff17 	bl	1cf0 <print_align>
    2090:	e28d3003 	add	r3, sp, #3
    2094:	e080000a 	add	r0, r0, sl
    2098:	e1a01005 	mov	r1, r5
    209c:	e5f32001 	ldrb	r2, [r3, #1]!
    20a0:	e3520000 	cmp	r2, #0
    20a4:	e4c12001 	strb	r2, [r1], #1
    20a8:	1afffffb 	bne	209c <printk+0x21c>
    20ac:	e0855000 	add	r5, r5, r0
    20b0:	eaffff81 	b	1ebc <printk+0x3c>
    20b4:	e59d3014 	ldr	r3, [sp, #20]
    20b8:	e5932000 	ldr	r2, [r3]
    20bc:	e2833004 	add	r3, r3, #4
    20c0:	e58d3014 	str	r3, [sp, #20]
    20c4:	e5c52000 	strb	r2, [r5]
    20c8:	eaffff7b 	b	1ebc <printk+0x3c>
    20cc:	e5c59000 	strb	r9, [r5]
    20d0:	e5d43000 	ldrb	r3, [r4]
    20d4:	e5c53001 	strb	r3, [r5, #1]
    20d8:	e2855002 	add	r5, r5, #2
    20dc:	eaffff76 	b	1ebc <printk+0x3c>
    20e0:	e59d2014 	ldr	r2, [sp, #20]
    20e4:	e1a01006 	mov	r1, r6
    20e8:	e2823004 	add	r3, r2, #4
    20ec:	e5920000 	ldr	r0, [r2]
    20f0:	e58d3014 	str	r3, [sp, #20]
    20f4:	ebffff27 	bl	1d98 <itoa.constprop.0>
    20f8:	e5d6a000 	ldrb	sl, [r6]
    20fc:	e35a0000 	cmp	sl, #0
    2100:	0a000004 	beq	2118 <printk+0x298>
    2104:	e1a0a006 	mov	sl, r6
    2108:	e5fa3001 	ldrb	r3, [sl, #1]!
    210c:	e3530000 	cmp	r3, #0
    2110:	1afffffc 	bne	2108 <printk+0x288>
    2114:	e066a00a 	rsb	sl, r6, sl
    2118:	e1a0100a 	mov	r1, sl
    211c:	e1a00006 	mov	r0, r6
    2120:	e1a02007 	mov	r2, r7
    2124:	ebfffef1 	bl	1cf0 <print_align>
    2128:	e28d3003 	add	r3, sp, #3
    212c:	e080000a 	add	r0, r0, sl
    2130:	e1a01005 	mov	r1, r5
    2134:	e5f32001 	ldrb	r2, [r3, #1]!
    2138:	e3520000 	cmp	r2, #0
    213c:	e4c12001 	strb	r2, [r1], #1
    2140:	1afffffb 	bne	2134 <printk+0x2b4>
    2144:	e0855000 	add	r5, r5, r0
    2148:	eaffff5b 	b	1ebc <printk+0x3c>
    214c:	00003280 	andeq	r3, r0, r0, lsl #5

00002150 <printk_nommu>:
    2150:	e92d000f 	push	{r0, r1, r2, r3}
    2154:	e92d47f0 	push	{r4, r5, r6, r7, r8, r9, sl, lr}
    2158:	e24dd018 	sub	sp, sp, #24
    215c:	e28d303c 	add	r3, sp, #60	; 0x3c
    2160:	e59d4038 	ldr	r4, [sp, #56]	; 0x38
    2164:	e58d3014 	str	r3, [sp, #20]
    2168:	e59f82ac 	ldr	r8, [pc, #684]	; 241c <printk_nommu+0x2cc>
    216c:	e5d43000 	ldrb	r3, [r4]
    2170:	e3530000 	cmp	r3, #0
    2174:	01a05008 	moveq	r5, r8
    2178:	0a00002c 	beq	2230 <printk_nommu+0xe0>
    217c:	e3a09025 	mov	r9, #37	; 0x25
    2180:	e28d6004 	add	r6, sp, #4
    2184:	e1a05008 	mov	r5, r8
    2188:	ea000003 	b	219c <printk_nommu+0x4c>
    218c:	e5d43001 	ldrb	r3, [r4, #1]
    2190:	e2844001 	add	r4, r4, #1
    2194:	e3530000 	cmp	r3, #0
    2198:	0a000024 	beq	2230 <printk_nommu+0xe0>
    219c:	e3530025 	cmp	r3, #37	; 0x25
    21a0:	14c53001 	strbne	r3, [r5], #1
    21a4:	1afffff8 	bne	218c <printk_nommu+0x3c>
    21a8:	e5d43001 	ldrb	r3, [r4, #1]
    21ac:	e2432031 	sub	r2, r3, #49	; 0x31
    21b0:	e3520008 	cmp	r2, #8
    21b4:	92437030 	subls	r7, r3, #48	; 0x30
    21b8:	95d43002 	ldrbls	r3, [r4, #2]
    21bc:	82844001 	addhi	r4, r4, #1
    21c0:	83a07000 	movhi	r7, #0
    21c4:	92844002 	addls	r4, r4, #2
    21c8:	e2433063 	sub	r3, r3, #99	; 0x63
    21cc:	e3530015 	cmp	r3, #21
    21d0:	979ff103 	ldrls	pc, [pc, r3, lsl #2]
    21d4:	ea000070 	b	239c <printk_nommu+0x24c>
    21d8:	00002384 	andeq	r2, r0, r4, lsl #7
    21dc:	000023b0 			; <UNDEFINED> instruction: 0x000023b0
    21e0:	0000239c 	muleq	r0, ip, r3
    21e4:	0000239c 	muleq	r0, ip, r3
    21e8:	0000239c 	muleq	r0, ip, r3
    21ec:	0000239c 	muleq	r0, ip, r3
    21f0:	0000239c 	muleq	r0, ip, r3
    21f4:	0000239c 	muleq	r0, ip, r3
    21f8:	0000239c 	muleq	r0, ip, r3
    21fc:	0000239c 	muleq	r0, ip, r3
    2200:	0000239c 	muleq	r0, ip, r3
    2204:	0000239c 	muleq	r0, ip, r3
    2208:	0000239c 	muleq	r0, ip, r3
    220c:	00002314 	andeq	r2, r0, r4, lsl r3
    2210:	0000239c 	muleq	r0, ip, r3
    2214:	0000239c 	muleq	r0, ip, r3
    2218:	000022c4 	andeq	r2, r0, r4, asr #5
    221c:	0000239c 	muleq	r0, ip, r3
    2220:	00002254 	andeq	r2, r0, r4, asr r2
    2224:	0000239c 	muleq	r0, ip, r3
    2228:	0000239c 	muleq	r0, ip, r3
    222c:	00002314 	andeq	r2, r0, r4, lsl r3
    2230:	e3a03000 	mov	r3, #0
    2234:	e59f01e0 	ldr	r0, [pc, #480]	; 241c <printk_nommu+0x2cc>
    2238:	e4c53001 	strb	r3, [r5], #1
    223c:	ebfffdb1 	bl	1908 <serial_puts_nommu>
    2240:	e0680005 	rsb	r0, r8, r5
    2244:	e28dd018 	add	sp, sp, #24
    2248:	e8bd47f0 	pop	{r4, r5, r6, r7, r8, r9, sl, lr}
    224c:	e28dd010 	add	sp, sp, #16
    2250:	e12fff1e 	bx	lr
    2254:	e59d0014 	ldr	r0, [sp, #20]
    2258:	e1a01006 	mov	r1, r6
    225c:	e3a0200a 	mov	r2, #10
    2260:	e2803004 	add	r3, r0, #4
    2264:	e5900000 	ldr	r0, [r0]
    2268:	e58d3014 	str	r3, [sp, #20]
    226c:	ebfffe70 	bl	1c34 <utoa>
    2270:	e5d6a000 	ldrb	sl, [r6]
    2274:	e35a0000 	cmp	sl, #0
    2278:	0a000004 	beq	2290 <printk_nommu+0x140>
    227c:	e1a0a006 	mov	sl, r6
    2280:	e5fa3001 	ldrb	r3, [sl, #1]!
    2284:	e3530000 	cmp	r3, #0
    2288:	1afffffc 	bne	2280 <printk_nommu+0x130>
    228c:	e066a00a 	rsb	sl, r6, sl
    2290:	e1a0100a 	mov	r1, sl
    2294:	e1a00006 	mov	r0, r6
    2298:	e1a02007 	mov	r2, r7
    229c:	ebfffe93 	bl	1cf0 <print_align>
    22a0:	e28d3003 	add	r3, sp, #3
    22a4:	e080000a 	add	r0, r0, sl
    22a8:	e1a01005 	mov	r1, r5
    22ac:	e5f32001 	ldrb	r2, [r3, #1]!
    22b0:	e3520000 	cmp	r2, #0
    22b4:	e4c12001 	strb	r2, [r1], #1
    22b8:	1afffffb 	bne	22ac <printk_nommu+0x15c>
    22bc:	e0855000 	add	r5, r5, r0
    22c0:	eaffffb1 	b	218c <printk_nommu+0x3c>
    22c4:	e59d3014 	ldr	r3, [sp, #20]
    22c8:	e1a01005 	mov	r1, r5
    22cc:	e2832004 	add	r2, r3, #4
    22d0:	e58d2014 	str	r2, [sp, #20]
    22d4:	e5930000 	ldr	r0, [r3]
    22d8:	e2402001 	sub	r2, r0, #1
    22dc:	e5f23001 	ldrb	r3, [r2, #1]!
    22e0:	e3530000 	cmp	r3, #0
    22e4:	e4c13001 	strb	r3, [r1], #1
    22e8:	1afffffb 	bne	22dc <printk_nommu+0x18c>
    22ec:	e5d03000 	ldrb	r3, [r0]
    22f0:	e3530000 	cmp	r3, #0
    22f4:	0a000004 	beq	230c <printk_nommu+0x1bc>
    22f8:	e1a03000 	mov	r3, r0
    22fc:	e5f32001 	ldrb	r2, [r3, #1]!
    2300:	e3520000 	cmp	r2, #0
    2304:	1afffffc 	bne	22fc <printk_nommu+0x1ac>
    2308:	e0603003 	rsb	r3, r0, r3
    230c:	e0855003 	add	r5, r5, r3
    2310:	eaffff9d 	b	218c <printk_nommu+0x3c>
    2314:	e59d0014 	ldr	r0, [sp, #20]
    2318:	e1a01006 	mov	r1, r6
    231c:	e3a02010 	mov	r2, #16
    2320:	e2803004 	add	r3, r0, #4
    2324:	e5900000 	ldr	r0, [r0]
    2328:	e58d3014 	str	r3, [sp, #20]
    232c:	ebfffe40 	bl	1c34 <utoa>
    2330:	e5d6a000 	ldrb	sl, [r6]
    2334:	e35a0000 	cmp	sl, #0
    2338:	0a000004 	beq	2350 <printk_nommu+0x200>
    233c:	e1a0a006 	mov	sl, r6
    2340:	e5fa3001 	ldrb	r3, [sl, #1]!
    2344:	e3530000 	cmp	r3, #0
    2348:	1afffffc 	bne	2340 <printk_nommu+0x1f0>
    234c:	e066a00a 	rsb	sl, r6, sl
    2350:	e1a0100a 	mov	r1, sl
    2354:	e1a00006 	mov	r0, r6
    2358:	e1a02007 	mov	r2, r7
    235c:	ebfffe63 	bl	1cf0 <print_align>
    2360:	e28d3003 	add	r3, sp, #3
    2364:	e080000a 	add	r0, r0, sl
    2368:	e1a01005 	mov	r1, r5
    236c:	e5f32001 	ldrb	r2, [r3, #1]!
    2370:	e3520000 	cmp	r2, #0
    2374:	e4c12001 	strb	r2, [r1], #1
    2378:	1afffffb 	bne	236c <printk_nommu+0x21c>
    237c:	e0855000 	add	r5, r5, r0
    2380:	eaffff81 	b	218c <printk_nommu+0x3c>
    2384:	e59d3014 	ldr	r3, [sp, #20]
    2388:	e5932000 	ldr	r2, [r3]
    238c:	e2833004 	add	r3, r3, #4
    2390:	e58d3014 	str	r3, [sp, #20]
    2394:	e5c52000 	strb	r2, [r5]
    2398:	eaffff7b 	b	218c <printk_nommu+0x3c>
    239c:	e5c59000 	strb	r9, [r5]
    23a0:	e5d43000 	ldrb	r3, [r4]
    23a4:	e5c53001 	strb	r3, [r5, #1]
    23a8:	e2855002 	add	r5, r5, #2
    23ac:	eaffff76 	b	218c <printk_nommu+0x3c>
    23b0:	e59d2014 	ldr	r2, [sp, #20]
    23b4:	e1a01006 	mov	r1, r6
    23b8:	e2823004 	add	r3, r2, #4
    23bc:	e5920000 	ldr	r0, [r2]
    23c0:	e58d3014 	str	r3, [sp, #20]
    23c4:	ebfffe73 	bl	1d98 <itoa.constprop.0>
    23c8:	e5d6a000 	ldrb	sl, [r6]
    23cc:	e35a0000 	cmp	sl, #0
    23d0:	0a000004 	beq	23e8 <printk_nommu+0x298>
    23d4:	e1a0a006 	mov	sl, r6
    23d8:	e5fa3001 	ldrb	r3, [sl, #1]!
    23dc:	e3530000 	cmp	r3, #0
    23e0:	1afffffc 	bne	23d8 <printk_nommu+0x288>
    23e4:	e066a00a 	rsb	sl, r6, sl
    23e8:	e1a0100a 	mov	r1, sl
    23ec:	e1a00006 	mov	r0, r6
    23f0:	e1a02007 	mov	r2, r7
    23f4:	ebfffe3d 	bl	1cf0 <print_align>
    23f8:	e28d3003 	add	r3, sp, #3
    23fc:	e080000a 	add	r0, r0, sl
    2400:	e1a01005 	mov	r1, r5
    2404:	e5f32001 	ldrb	r2, [r3, #1]!
    2408:	e3520000 	cmp	r2, #0
    240c:	e4c12001 	strb	r2, [r1], #1
    2410:	1afffffb 	bne	2404 <printk_nommu+0x2b4>
    2414:	e0855000 	add	r5, r5, r0
    2418:	eaffff5b 	b	218c <printk_nommu+0x3c>
    241c:	00003280 	andeq	r3, r0, r0, lsl #5

00002420 <standby_delay>:
    2420:	e92d000f 	push	{r0, r1, r2, r3}
    2424:	e3a01011 	mov	r1, #17
    2428:	e1a03000 	mov	r3, r0

0000242c <standby_delay_loop2>:
    242c:	e2500001 	subs	r0, r0, #1
    2430:	8afffffd 	bhi	242c <standby_delay_loop2>
    2434:	e1a00003 	mov	r0, r3
    2438:	e2511001 	subs	r1, r1, #1
    243c:	8afffffa 	bhi	242c <standby_delay_loop2>
    2440:	e8bd000f 	pop	{r0, r1, r2, r3}
    2444:	e1a0f00e 	mov	pc, lr

00002448 <standby_delay_cycle>:
    2448:	e2500001 	subs	r0, r0, #1
    244c:	8afffffd 	bhi	2448 <standby_delay_cycle>
    2450:	e1a0f00e 	mov	pc, lr

00002454 <Ldiv0>:
    2454:	e52de008 	str	lr, [sp, #-8]!
    2458:	eb000067 	bl	25fc <__mem_div0>
    245c:	e3a00000 	mov	r0, #0
    2460:	e49df008 	ldr	pc, [sp], #8

00002464 <__aeabi_uidiv>:
    2464:	e2512001 	subs	r2, r1, #1
    2468:	01a0f00e 	moveq	pc, lr
    246c:	3afffff8 	bcc	2454 <Ldiv0>
    2470:	e1500001 	cmp	r0, r1
    2474:	9a00001a 	bls	24e4 <__aeabi_uidiv+0x80>
    2478:	e1110002 	tst	r1, r2
    247c:	0a00001b 	beq	24f0 <__aeabi_uidiv+0x8c>
    2480:	e16f3f11 	clz	r3, r1
    2484:	e16f2f10 	clz	r2, r0
    2488:	e0432002 	sub	r2, r3, r2
    248c:	e3a03001 	mov	r3, #1
    2490:	e1a01211 	lsl	r1, r1, r2
    2494:	e1a03213 	lsl	r3, r3, r2
    2498:	e3a02000 	mov	r2, #0
    249c:	e1500001 	cmp	r0, r1
    24a0:	20400001 	subcs	r0, r0, r1
    24a4:	21822003 	orrcs	r2, r2, r3
    24a8:	e15000a1 	cmp	r0, r1, lsr #1
    24ac:	204000a1 	subcs	r0, r0, r1, lsr #1
    24b0:	218220a3 	orrcs	r2, r2, r3, lsr #1
    24b4:	e1500121 	cmp	r0, r1, lsr #2
    24b8:	20400121 	subcs	r0, r0, r1, lsr #2
    24bc:	21822123 	orrcs	r2, r2, r3, lsr #2
    24c0:	e15001a1 	cmp	r0, r1, lsr #3
    24c4:	204001a1 	subcs	r0, r0, r1, lsr #3
    24c8:	218221a3 	orrcs	r2, r2, r3, lsr #3
    24cc:	e3500000 	cmp	r0, #0
    24d0:	11b03223 	lsrsne	r3, r3, #4
    24d4:	11a01221 	lsrne	r1, r1, #4
    24d8:	1affffef 	bne	249c <__aeabi_uidiv+0x38>
    24dc:	e1a00002 	mov	r0, r2
    24e0:	e1a0f00e 	mov	pc, lr
    24e4:	03a00001 	moveq	r0, #1
    24e8:	13a00000 	movne	r0, #0
    24ec:	e1a0f00e 	mov	pc, lr
    24f0:	e16f2f11 	clz	r2, r1
    24f4:	e262201f 	rsb	r2, r2, #31
    24f8:	e1a00230 	lsr	r0, r0, r2
    24fc:	e1a0f00e 	mov	pc, lr

00002500 <__aeabi_idiv>:
    2500:	e3510000 	cmp	r1, #0
    2504:	e020c001 	eor	ip, r0, r1
    2508:	0affffd1 	beq	2454 <Ldiv0>
    250c:	42611000 	rsbmi	r1, r1, #0
    2510:	e2512001 	subs	r2, r1, #1
    2514:	0a00001f 	beq	2598 <__aeabi_idiv+0x98>
    2518:	e1b03000 	movs	r3, r0
    251c:	42603000 	rsbmi	r3, r0, #0
    2520:	e1530001 	cmp	r3, r1
    2524:	9a00001e 	bls	25a4 <__aeabi_idiv+0xa4>
    2528:	e1110002 	tst	r1, r2
    252c:	0a000020 	beq	25b4 <__aeabi_idiv+0xb4>
    2530:	e16f2f11 	clz	r2, r1
    2534:	e16f0f13 	clz	r0, r3
    2538:	e0420000 	sub	r0, r2, r0
    253c:	e3a02001 	mov	r2, #1
    2540:	e1a01011 	lsl	r1, r1, r0
    2544:	e1a02012 	lsl	r2, r2, r0
    2548:	e3a00000 	mov	r0, #0
    254c:	e1530001 	cmp	r3, r1
    2550:	20433001 	subcs	r3, r3, r1
    2554:	21800002 	orrcs	r0, r0, r2
    2558:	e15300a1 	cmp	r3, r1, lsr #1
    255c:	204330a1 	subcs	r3, r3, r1, lsr #1
    2560:	218000a2 	orrcs	r0, r0, r2, lsr #1
    2564:	e1530121 	cmp	r3, r1, lsr #2
    2568:	20433121 	subcs	r3, r3, r1, lsr #2
    256c:	21800122 	orrcs	r0, r0, r2, lsr #2
    2570:	e15301a1 	cmp	r3, r1, lsr #3
    2574:	204331a1 	subcs	r3, r3, r1, lsr #3
    2578:	218001a2 	orrcs	r0, r0, r2, lsr #3
    257c:	e3530000 	cmp	r3, #0
    2580:	11b02222 	lsrsne	r2, r2, #4
    2584:	11a01221 	lsrne	r1, r1, #4
    2588:	1affffef 	bne	254c <__aeabi_idiv+0x4c>
    258c:	e35c0000 	cmp	ip, #0
    2590:	42600000 	rsbmi	r0, r0, #0
    2594:	e1a0f00e 	mov	pc, lr
    2598:	e13c0000 	teq	ip, r0
    259c:	42600000 	rsbmi	r0, r0, #0
    25a0:	e1a0f00e 	mov	pc, lr
    25a4:	33a00000 	movcc	r0, #0
    25a8:	01a00fcc 	asreq	r0, ip, #31
    25ac:	03800001 	orreq	r0, r0, #1
    25b0:	e1a0f00e 	mov	pc, lr
    25b4:	e16f2f11 	clz	r2, r1
    25b8:	e262201f 	rsb	r2, r2, #31
    25bc:	e35c0000 	cmp	ip, #0
    25c0:	e1a00233 	lsr	r0, r3, r2
    25c4:	42600000 	rsbmi	r0, r0, #0
    25c8:	e1a0f00e 	mov	pc, lr

000025cc <__aeabi_uidivmod>:
    25cc:	e92d5003 	push	{r0, r1, ip, lr}
    25d0:	ebffffa3 	bl	2464 <__aeabi_uidiv>
    25d4:	e8bd5006 	pop	{r1, r2, ip, lr}
    25d8:	e0030290 	mul	r3, r0, r2
    25dc:	e0411003 	sub	r1, r1, r3
    25e0:	e1a0f00e 	mov	pc, lr

000025e4 <__aeabi_idivmod>:
    25e4:	e92d5003 	push	{r0, r1, ip, lr}
    25e8:	ebffffc4 	bl	2500 <__aeabi_idiv>
    25ec:	e8bd5006 	pop	{r1, r2, ip, lr}
    25f0:	e0030290 	mul	r3, r0, r2
    25f4:	e0411003 	sub	r1, r1, r3
    25f8:	e1a0f00e 	mov	pc, lr

000025fc <__mem_div0>:
    25fc:	e3030150 	movw	r0, #12624	; 0x3150
    2600:	e3400000 	movt	r0, #0
    2604:	eafffe1d 	b	1e80 <printk>

00002608 <raw_lib_udiv>:
    2608:	e3510000 	cmp	r1, #0
    260c:	01a02001 	moveq	r2, r1
    2610:	0a00000d 	beq	264c <raw_lib_udiv+0x44>
    2614:	e3a03000 	mov	r3, #0
    2618:	ba000002 	blt	2628 <raw_lib_udiv+0x20>
    261c:	e1b01081 	lsls	r1, r1, #1
    2620:	e2833001 	add	r3, r3, #1
    2624:	5afffffc 	bpl	261c <raw_lib_udiv+0x14>
    2628:	e3a02000 	mov	r2, #0
    262c:	e1a0c082 	lsl	ip, r2, #1
    2630:	e1500001 	cmp	r0, r1
    2634:	20610000 	rsbcs	r0, r1, r0
    2638:	31a02082 	lslcc	r2, r2, #1
    263c:	238c2001 	orrcs	r2, ip, #1
    2640:	e1a010a1 	lsr	r1, r1, #1
    2644:	e2533001 	subs	r3, r3, #1
    2648:	5afffff7 	bpl	262c <raw_lib_udiv+0x24>
    264c:	e1a00002 	mov	r0, r2
    2650:	e12fff1e 	bx	lr

00002654 <mem_int_init>:
    2654:	e59f0080 	ldr	r0, [pc, #128]	; 26dc <mem_int_init+0x88>
    2658:	e3013184 	movw	r3, #4484	; 0x1184
    265c:	e3a02d47 	mov	r2, #4544	; 0x11c0
    2660:	e92d4010 	push	{r4, lr}
    2664:	e3a0ca02 	mov	ip, #8192	; 0x2000
    2668:	e3a04a01 	mov	r4, #4096	; 0x1000
    266c:	e34f31c8 	movt	r3, #61896	; 0xf1c8
    2670:	e3e01000 	mvn	r1, #0
    2674:	e34f21c8 	movt	r2, #61896	; 0xf1c8
    2678:	e34f41c8 	movt	r4, #61896	; 0xf1c8
    267c:	e34fc1c8 	movt	ip, #61896	; 0xf1c8
    2680:	e8801010 	stm	r0, {r4, ip}
    2684:	e4831004 	str	r1, [r3], #4
    2688:	e1530002 	cmp	r3, r2
    268c:	1afffffc 	bne	2684 <mem_int_init+0x30>
    2690:	e3013284 	movw	r3, #4740	; 0x1284
    2694:	e3a02d4b 	mov	r2, #4800	; 0x12c0
    2698:	e34f31c8 	movt	r3, #61896	; 0xf1c8
    269c:	e3e01000 	mvn	r1, #0
    26a0:	e34f21c8 	movt	r2, #61896	; 0xf1c8
    26a4:	e4831004 	str	r1, [r3], #4
    26a8:	e1530002 	cmp	r3, r2
    26ac:	1afffffc 	bne	26a4 <mem_int_init+0x50>
    26b0:	e3a03a02 	mov	r3, #8192	; 0x2000
    26b4:	e30023ff 	movw	r2, #1023	; 0x3ff
    26b8:	e34f31c8 	movt	r3, #61896	; 0xf1c8
    26bc:	e593100c 	ldr	r1, [r3, #12]
    26c0:	e1510002 	cmp	r1, r2
    26c4:	0a000002 	beq	26d4 <mem_int_init+0x80>
    26c8:	e5831010 	str	r1, [r3, #16]
    26cc:	e59f000c 	ldr	r0, [pc, #12]	; 26e0 <mem_int_init+0x8c>
    26d0:	ebfffdea 	bl	1e80 <printk>
    26d4:	e3a00000 	mov	r0, #0
    26d8:	e8bd8010 	pop	{r4, pc}
    26dc:	00003380 	andeq	r3, r0, r0, lsl #7
    26e0:	0000316c 	andeq	r3, r0, ip, ror #2

000026e4 <mem_int_exit>:
    26e4:	e3a02000 	mov	r2, #0
    26e8:	e24dd008 	sub	sp, sp, #8
    26ec:	e1a03002 	mov	r3, r2
    26f0:	e58d2004 	str	r2, [sp, #4]
    26f4:	e59f2038 	ldr	r2, [pc, #56]	; 2734 <mem_int_exit+0x50>
    26f8:	e5922000 	ldr	r2, [r2]
    26fc:	e282cc01 	add	ip, r2, #256	; 0x100
    2700:	e2822d0a 	add	r2, r2, #640	; 0x280
    2704:	e79c1003 	ldr	r1, [ip, r3]
    2708:	e58d1004 	str	r1, [sp, #4]
    270c:	e7921003 	ldr	r1, [r2, r3]
    2710:	e59d0004 	ldr	r0, [sp, #4]
    2714:	e1c11000 	bic	r1, r1, r0
    2718:	e7821003 	str	r1, [r2, r3]
    271c:	e2833004 	add	r3, r3, #4
    2720:	e3530040 	cmp	r3, #64	; 0x40
    2724:	1afffff6 	bne	2704 <mem_int_exit+0x20>
    2728:	e3a00000 	mov	r0, #0
    272c:	e28dd008 	add	sp, sp, #8
    2730:	e12fff1e 	bx	lr
    2734:	00003380 	andeq	r3, r0, r0, lsl #7

00002738 <mem_enable_int>:
    2738:	e59f3050 	ldr	r3, [pc, #80]	; 2790 <mem_enable_int+0x58>
    273c:	e3a01a01 	mov	r1, #4096	; 0x1000
    2740:	e3a02a02 	mov	r2, #8192	; 0x2000
    2744:	e3500000 	cmp	r0, #0
    2748:	e34f11c8 	movt	r1, #61896	; 0xf1c8
    274c:	e34f21c8 	movt	r2, #61896	; 0xf1c8
    2750:	e8830006 	stm	r3, {r1, r2}
    2754:	0a00000b 	beq	2788 <mem_enable_int+0x50>
    2758:	e1a032a0 	lsr	r3, r0, #5
    275c:	e200201f 	and	r2, r0, #31
    2760:	e3a0c001 	mov	ip, #1
    2764:	e2833040 	add	r3, r3, #64	; 0x40
    2768:	e3a00000 	mov	r0, #0
    276c:	e1a03103 	lsl	r3, r3, #2
    2770:	e24336e3 	sub	r3, r3, #238026752	; 0xe300000
    2774:	e2433a7f 	sub	r3, r3, #520192	; 0x7f000
    2778:	e5931000 	ldr	r1, [r3]
    277c:	e181221c 	orr	r2, r1, ip, lsl r2
    2780:	e5832000 	str	r2, [r3]
    2784:	e12fff1e 	bx	lr
    2788:	e3e00000 	mvn	r0, #0
    278c:	e12fff1e 	bx	lr
    2790:	00003380 	andeq	r3, r0, r0, lsl #7

00002794 <mem_query_int>:
    2794:	e59f3050 	ldr	r3, [pc, #80]	; 27ec <mem_query_int+0x58>
    2798:	e3a01a01 	mov	r1, #4096	; 0x1000
    279c:	e3a02a02 	mov	r2, #8192	; 0x2000
    27a0:	e3500000 	cmp	r0, #0
    27a4:	e34f11c8 	movt	r1, #61896	; 0xf1c8
    27a8:	e34f21c8 	movt	r2, #61896	; 0xf1c8
    27ac:	e8830006 	stm	r3, {r1, r2}
    27b0:	0a00000b 	beq	27e4 <mem_query_int+0x50>
    27b4:	e1a032a0 	lsr	r3, r0, #5
    27b8:	e3a02001 	mov	r2, #1
    27bc:	e200001f 	and	r0, r0, #31
    27c0:	e2833080 	add	r3, r3, #128	; 0x80
    27c4:	e1a03103 	lsl	r3, r3, #2
    27c8:	e24336e3 	sub	r3, r3, #238026752	; 0xe300000
    27cc:	e2433a7f 	sub	r3, r3, #520192	; 0x7f000
    27d0:	e5933000 	ldr	r3, [r3]
    27d4:	e0132012 	ands	r2, r3, r2, lsl r0
    27d8:	03e00000 	mvneq	r0, #0
    27dc:	13a00000 	movne	r0, #0
    27e0:	e12fff1e 	bx	lr
    27e4:	e3e00000 	mvn	r0, #0
    27e8:	e12fff1e 	bx	lr
    27ec:	00003380 	andeq	r3, r0, r0, lsl #7

000027f0 <mem_gpio_save>:
    27f0:	e3a03b02 	mov	r3, #2048	; 0x800
    27f4:	e3a02eb2 	mov	r2, #2848	; 0xb20
    27f8:	e2400004 	sub	r0, r0, #4
    27fc:	e34f31c2 	movt	r3, #61890	; 0xf1c2
    2800:	e34f21c2 	movt	r2, #61890	; 0xf1c2
    2804:	e4931004 	ldr	r1, [r3], #4
    2808:	e1530002 	cmp	r3, r2
    280c:	e5a01004 	str	r1, [r0, #4]!
    2810:	1afffffb 	bne	2804 <mem_gpio_save+0x14>
    2814:	e3a00000 	mov	r0, #0
    2818:	e12fff1e 	bx	lr

0000281c <mem_gpio_restore>:
    281c:	e3a03b02 	mov	r3, #2048	; 0x800
    2820:	e3a02eb2 	mov	r2, #2848	; 0xb20
    2824:	e2400004 	sub	r0, r0, #4
    2828:	e34f31c2 	movt	r3, #61890	; 0xf1c2
    282c:	e34f21c2 	movt	r2, #61890	; 0xf1c2
    2830:	e5b01004 	ldr	r1, [r0, #4]!
    2834:	e4831004 	str	r1, [r3], #4
    2838:	e1530002 	cmp	r3, r2
    283c:	1afffffb 	bne	2830 <mem_gpio_restore+0x14>
    2840:	e3a00000 	mov	r0, #0
    2844:	e12fff1e 	bx	lr

00002848 <config_gpio_clk>:
    2848:	e59f303c 	ldr	r3, [pc, #60]	; 288c <config_gpio_clk+0x44>
    284c:	e5932000 	ldr	r2, [r3]
    2850:	e3520000 	cmp	r2, #0
    2854:	112fff1e 	bxne	lr
    2858:	e3a01068 	mov	r1, #104	; 0x68
    285c:	e3500000 	cmp	r0, #0
    2860:	e1a02001 	mov	r2, r1
    2864:	e34011c2 	movt	r1, #450	; 0x1c2
    2868:	e34f21c2 	movt	r2, #61890	; 0xf1c2
    286c:	01a00001 	moveq	r0, r1
    2870:	11a00002 	movne	r0, r2
    2874:	e3a01001 	mov	r1, #1
    2878:	e5902000 	ldr	r2, [r0]
    287c:	e5831000 	str	r1, [r3]
    2880:	e3823020 	orr	r3, r2, #32
    2884:	e5803000 	str	r3, [r0]
    2888:	e12fff1e 	bx	lr
    288c:	00003388 	andeq	r3, r0, r8, lsl #7

00002890 <mem_tmr_save>:
    2890:	e3a03000 	mov	r3, #0
    2894:	e1a02000 	mov	r2, r0
    2898:	e34f31c2 	movt	r3, #61890	; 0xf1c2
    289c:	e303038c 	movw	r0, #13196	; 0x338c
    28a0:	e5931c00 	ldr	r1, [r3, #3072]	; 0xc00
    28a4:	e3a0cb03 	mov	ip, #3072	; 0xc00
    28a8:	e3400000 	movt	r0, #0
    28ac:	e34fc1c2 	movt	ip, #61890	; 0xf1c2
    28b0:	e580c000 	str	ip, [r0]
    28b4:	e3a00000 	mov	r0, #0
    28b8:	e5821000 	str	r1, [r2]
    28bc:	e5931c10 	ldr	r1, [r3, #3088]	; 0xc10
    28c0:	e5821010 	str	r1, [r2, #16]
    28c4:	e5931c14 	ldr	r1, [r3, #3092]	; 0xc14
    28c8:	e5821014 	str	r1, [r2, #20]
    28cc:	e5931c18 	ldr	r1, [r3, #3096]	; 0xc18
    28d0:	e5821018 	str	r1, [r2, #24]
    28d4:	e5931c20 	ldr	r1, [r3, #3104]	; 0xc20
    28d8:	e5821020 	str	r1, [r2, #32]
    28dc:	e5931c24 	ldr	r1, [r3, #3108]	; 0xc24
    28e0:	e5821024 	str	r1, [r2, #36]	; 0x24
    28e4:	e5933c28 	ldr	r3, [r3, #3112]	; 0xc28
    28e8:	e5823028 	str	r3, [r2, #40]	; 0x28
    28ec:	e12fff1e 	bx	lr

000028f0 <mem_tmr_restore>:
    28f0:	e303338c 	movw	r3, #13196	; 0x338c
    28f4:	e5901014 	ldr	r1, [r0, #20]
    28f8:	e3403000 	movt	r3, #0
    28fc:	e1a02000 	mov	r2, r0
    2900:	e5933000 	ldr	r3, [r3]
    2904:	e3a00000 	mov	r0, #0
    2908:	e5831014 	str	r1, [r3, #20]
    290c:	e5921018 	ldr	r1, [r2, #24]
    2910:	e5831018 	str	r1, [r3, #24]
    2914:	e5921010 	ldr	r1, [r2, #16]
    2918:	e5831010 	str	r1, [r3, #16]
    291c:	e5921024 	ldr	r1, [r2, #36]	; 0x24
    2920:	e5831024 	str	r1, [r3, #36]	; 0x24
    2924:	e5921028 	ldr	r1, [r2, #40]	; 0x28
    2928:	e5831028 	str	r1, [r3, #40]	; 0x28
    292c:	e5921020 	ldr	r1, [r2, #32]
    2930:	e5831020 	str	r1, [r3, #32]
    2934:	e5922000 	ldr	r2, [r2]
    2938:	e5832000 	str	r2, [r3]
    293c:	e12fff1e 	bx	lr

00002940 <mem_tmr_init>:
    2940:	e3a02000 	mov	r2, #0
    2944:	e303338c 	movw	r3, #13196	; 0x338c
    2948:	e34f21c2 	movt	r2, #61890	; 0xf1c2
    294c:	e3a01b03 	mov	r1, #3072	; 0xc00
    2950:	e592ccb4 	ldr	ip, [r2, #3252]	; 0xcb4
    2954:	e3403000 	movt	r3, #0
    2958:	e34f11c2 	movt	r1, #61890	; 0xf1c2
    295c:	e3a00000 	mov	r0, #0
    2960:	e8831002 	stm	r3, {r1, ip}
    2964:	e5921cb8 	ldr	r1, [r2, #3256]	; 0xcb8
    2968:	e5831008 	str	r1, [r3, #8]
    296c:	e5922ca0 	ldr	r2, [r2, #3232]	; 0xca0
    2970:	e583200c 	str	r2, [r3, #12]
    2974:	e12fff1e 	bx	lr

00002978 <mem_tmr_exit>:
    2978:	e303338c 	movw	r3, #13196	; 0x338c
    297c:	e3a00000 	mov	r0, #0
    2980:	e3403000 	movt	r3, #0
    2984:	e8931004 	ldm	r3, {r2, ip}
    2988:	e5931008 	ldr	r1, [r3, #8]
    298c:	e593300c 	ldr	r3, [r3, #12]
    2990:	e582c0b4 	str	ip, [r2, #180]	; 0xb4
    2994:	e58210b8 	str	r1, [r2, #184]	; 0xb8
    2998:	e58230a0 	str	r3, [r2, #160]	; 0xa0
    299c:	e12fff1e 	bx	lr

000029a0 <mem_tmr_enable_watchdog>:
    29a0:	e303338c 	movw	r3, #13196	; 0x338c
    29a4:	e3403000 	movt	r3, #0
    29a8:	e5933000 	ldr	r3, [r3]
    29ac:	e59320b4 	ldr	r2, [r3, #180]	; 0xb4
    29b0:	e3c22003 	bic	r2, r2, #3
    29b4:	e58320b4 	str	r2, [r3, #180]	; 0xb4
    29b8:	e59320b4 	ldr	r2, [r3, #180]	; 0xb4
    29bc:	e3822001 	orr	r2, r2, #1
    29c0:	e58320b4 	str	r2, [r3, #180]	; 0xb4
    29c4:	e3a020b0 	mov	r2, #176	; 0xb0
    29c8:	e58320b8 	str	r2, [r3, #184]	; 0xb8
    29cc:	e59320a0 	ldr	r2, [r3, #160]	; 0xa0
    29d0:	e3822001 	orr	r2, r2, #1
    29d4:	e58320a0 	str	r2, [r3, #160]	; 0xa0
    29d8:	e59320b8 	ldr	r2, [r3, #184]	; 0xb8
    29dc:	e3822001 	orr	r2, r2, #1
    29e0:	e58320b8 	str	r2, [r3, #184]	; 0xb8
    29e4:	e12fff1e 	bx	lr

000029e8 <mem_tmr_disable_watchdog>:
    29e8:	e303338c 	movw	r3, #13196	; 0x338c
    29ec:	e3403000 	movt	r3, #0
    29f0:	e5933000 	ldr	r3, [r3]
    29f4:	e59320b4 	ldr	r2, [r3, #180]	; 0xb4
    29f8:	e3c22003 	bic	r2, r2, #3
    29fc:	e58320b4 	str	r2, [r3, #180]	; 0xb4
    2a00:	e59320b4 	ldr	r2, [r3, #180]	; 0xb4
    2a04:	e3822002 	orr	r2, r2, #2
    2a08:	e58320b4 	str	r2, [r3, #180]	; 0xb4
    2a0c:	e59320a0 	ldr	r2, [r3, #160]	; 0xa0
    2a10:	e3c22001 	bic	r2, r2, #1
    2a14:	e58320a0 	str	r2, [r3, #160]	; 0xa0
    2a18:	e59320b8 	ldr	r2, [r3, #184]	; 0xb8
    2a1c:	e3c22001 	bic	r2, r2, #1
    2a20:	e58320b8 	str	r2, [r3, #184]	; 0xb8
    2a24:	e12fff1e 	bx	lr

00002a28 <mem_tmr_set>:
    2a28:	e303338c 	movw	r3, #13196	; 0x338c
    2a2c:	e3a01001 	mov	r1, #1
    2a30:	e3403000 	movt	r3, #0
    2a34:	e1a0c500 	lsl	ip, r0, #10
    2a38:	e5933000 	ldr	r3, [r3]
    2a3c:	e3a02000 	mov	r2, #0
    2a40:	e1a00002 	mov	r0, r2
    2a44:	e5831004 	str	r1, [r3, #4]
    2a48:	e5831000 	str	r1, [r3]
    2a4c:	e5832010 	str	r2, [r3, #16]
    2a50:	e3a020d0 	mov	r2, #208	; 0xd0
    2a54:	e583c014 	str	ip, [r3, #20]
    2a58:	e5832010 	str	r2, [r3, #16]
    2a5c:	e5932010 	ldr	r2, [r3, #16]
    2a60:	e3822002 	orr	r2, r2, #2
    2a64:	e5832010 	str	r2, [r3, #16]
    2a68:	e5932010 	ldr	r2, [r3, #16]
    2a6c:	e1822001 	orr	r2, r2, r1
    2a70:	e5832010 	str	r2, [r3, #16]
    2a74:	e12fff1e 	bx	lr

00002a78 <mem_tmstmp_save>:
    2a78:	e3a03000 	mov	r3, #0
    2a7c:	e1a02000 	mov	r2, r0
    2a80:	e34f3172 	movt	r3, #61810	; 0xf172
    2a84:	e303039c 	movw	r0, #13212	; 0x339c
    2a88:	e5931000 	ldr	r1, [r3]
    2a8c:	e3400000 	movt	r0, #0
    2a90:	e5803000 	str	r3, [r0]
    2a94:	e3a00000 	mov	r0, #0
    2a98:	e5821000 	str	r1, [r2]
    2a9c:	e5933020 	ldr	r3, [r3, #32]
    2aa0:	e5823020 	str	r3, [r2, #32]
    2aa4:	e12fff1e 	bx	lr

00002aa8 <mem_tmstmp_restore>:
    2aa8:	e303339c 	movw	r3, #13212	; 0x339c
    2aac:	e5901000 	ldr	r1, [r0]
    2ab0:	e3403000 	movt	r3, #0
    2ab4:	e1a02000 	mov	r2, r0
    2ab8:	e5933000 	ldr	r3, [r3]
    2abc:	e3a00000 	mov	r0, #0
    2ac0:	e5831000 	str	r1, [r3]
    2ac4:	e5922020 	ldr	r2, [r2, #32]
    2ac8:	e5832020 	str	r2, [r3, #32]
    2acc:	e12fff1e 	bx	lr

00002ad0 <hwspinlock_init>:
    2ad0:	e3a03000 	mov	r3, #0
    2ad4:	e3500001 	cmp	r0, #1
    2ad8:	034f31c2 	movteq	r3, #61890	; 0xf1c2
    2adc:	134031c2 	movtne	r3, #450	; 0x1c2
    2ae0:	e59322c4 	ldr	r2, [r3, #708]	; 0x2c4
    2ae4:	e3a00000 	mov	r0, #0
    2ae8:	e3822501 	orr	r2, r2, #4194304	; 0x400000
    2aec:	e58322c4 	str	r2, [r3, #708]	; 0x2c4
    2af0:	e5932064 	ldr	r2, [r3, #100]	; 0x64
    2af4:	e3822501 	orr	r2, r2, #4194304	; 0x400000
    2af8:	e5832064 	str	r2, [r3, #100]	; 0x64
    2afc:	e12fff1e 	bx	lr

00002b00 <hwspin_lock_timeout>:
    2b00:	e92d4008 	push	{r3, lr}
    2b04:	e10fc000 	mrs	ip, CPSR
    2b08:	f10c0080 	cpsid	i
    2b0c:	e3062040 	movw	r2, #24640	; 0x6040
    2b10:	e3432c70 	movt	r2, #15472	; 0x3c70
    2b14:	e59f3058 	ldr	r3, [pc, #88]	; 2b74 <hwspin_lock_timeout+0x74>
    2b18:	e0802002 	add	r2, r0, r2
    2b1c:	e1a02102 	lsl	r2, r2, #2
    2b20:	e583c000 	str	ip, [r3]
    2b24:	e5923000 	ldr	r3, [r2]
    2b28:	e3530001 	cmp	r3, #1
    2b2c:	1a00000e 	bne	2b6c <hwspin_lock_timeout+0x6c>
    2b30:	e1b01501 	lsls	r1, r1, #10
    2b34:	1a000002 	bne	2b44 <hwspin_lock_timeout+0x44>
    2b38:	ea000006 	b	2b58 <hwspin_lock_timeout+0x58>
    2b3c:	e2511001 	subs	r1, r1, #1
    2b40:	0a000004 	beq	2b58 <hwspin_lock_timeout+0x58>
    2b44:	e5923000 	ldr	r3, [r2]
    2b48:	e3530001 	cmp	r3, #1
    2b4c:	0afffffa 	beq	2b3c <hwspin_lock_timeout+0x3c>
    2b50:	e3a00000 	mov	r0, #0
    2b54:	e8bd8008 	pop	{r3, pc}
    2b58:	e121f00c 	msr	CPSR_c, ip
    2b5c:	e59f0014 	ldr	r0, [pc, #20]	; 2b78 <hwspin_lock_timeout+0x78>
    2b60:	ebfffcc6 	bl	1e80 <printk>
    2b64:	e3e00000 	mvn	r0, #0
    2b68:	e8bd8008 	pop	{r3, pc}
    2b6c:	e3a00000 	mov	r0, #0
    2b70:	e8bd8008 	pop	{r3, pc}
    2b74:	000033a0 	andeq	r3, r0, r0, lsr #7
    2b78:	00003188 	andeq	r3, r0, r8, lsl #3

00002b7c <hwspin_unlock>:
    2b7c:	e3063040 	movw	r3, #24640	; 0x6040
    2b80:	e30323a0 	movw	r2, #13216	; 0x33a0
    2b84:	e3433c70 	movt	r3, #15472	; 0x3c70
    2b88:	e3a01000 	mov	r1, #0
    2b8c:	e0803003 	add	r3, r0, r3
    2b90:	e3402000 	movt	r2, #0
    2b94:	e1a03103 	lsl	r3, r3, #2
    2b98:	e5922000 	ldr	r2, [r2]
    2b9c:	e5831000 	str	r1, [r3]
    2ba0:	e121f002 	msr	CPSR_c, r2
    2ba4:	e1a00001 	mov	r0, r1
    2ba8:	e12fff1e 	bx	lr

00002bac <hwspin_lock_timeout_nommu>:
    2bac:	e10fc000 	mrs	ip, CPSR
    2bb0:	f10c0080 	cpsid	i
    2bb4:	e3062040 	movw	r2, #24640	; 0x6040
    2bb8:	e59f3054 	ldr	r3, [pc, #84]	; 2c14 <hwspin_lock_timeout_nommu+0x68>
    2bbc:	e3402070 	movt	r2, #112	; 0x70
    2bc0:	e0802002 	add	r2, r0, r2
    2bc4:	e1a02102 	lsl	r2, r2, #2
    2bc8:	e583c000 	str	ip, [r3]
    2bcc:	e5923000 	ldr	r3, [r2]
    2bd0:	e3530001 	cmp	r3, #1
    2bd4:	1a00000c 	bne	2c0c <hwspin_lock_timeout_nommu+0x60>
    2bd8:	e1b01501 	lsls	r1, r1, #10
    2bdc:	1a000002 	bne	2bec <hwspin_lock_timeout_nommu+0x40>
    2be0:	ea000006 	b	2c00 <hwspin_lock_timeout_nommu+0x54>
    2be4:	e2511001 	subs	r1, r1, #1
    2be8:	0a000004 	beq	2c00 <hwspin_lock_timeout_nommu+0x54>
    2bec:	e5923000 	ldr	r3, [r2]
    2bf0:	e3530001 	cmp	r3, #1
    2bf4:	0afffffa 	beq	2be4 <hwspin_lock_timeout_nommu+0x38>
    2bf8:	e3a00000 	mov	r0, #0
    2bfc:	e12fff1e 	bx	lr
    2c00:	e121f00c 	msr	CPSR_c, ip
    2c04:	e3e00000 	mvn	r0, #0
    2c08:	e12fff1e 	bx	lr
    2c0c:	e3a00000 	mov	r0, #0
    2c10:	e12fff1e 	bx	lr
    2c14:	000033a0 	andeq	r3, r0, r0, lsr #7

00002c18 <hwspin_unlock_nommu>:
    2c18:	e3063040 	movw	r3, #24640	; 0x6040
    2c1c:	e30323a0 	movw	r2, #13216	; 0x33a0
    2c20:	e3403070 	movt	r3, #112	; 0x70
    2c24:	e3a01000 	mov	r1, #0
    2c28:	e0803003 	add	r3, r0, r3
    2c2c:	e3402000 	movt	r2, #0
    2c30:	e1a03103 	lsl	r3, r3, #2
    2c34:	e5922000 	ldr	r2, [r2]
    2c38:	e5831000 	str	r1, [r3]
    2c3c:	e121f002 	msr	CPSR_c, r2
    2c40:	e1a00001 	mov	r0, r1
    2c44:	e12fff1e 	bx	lr

00002c48 <mem_clk_init>:
    2c48:	e3500001 	cmp	r0, #1
    2c4c:	e3a03000 	mov	r3, #0
    2c50:	059f201c 	ldreq	r2, [pc, #28]	; 2c74 <mem_clk_init+0x2c>
    2c54:	034f31c2 	movteq	r3, #61890	; 0xf1c2
    2c58:	159f2014 	ldrne	r2, [pc, #20]	; 2c74 <mem_clk_init+0x2c>
    2c5c:	134031c2 	movtne	r3, #450	; 0x1c2
    2c60:	01a00003 	moveq	r0, r3
    2c64:	11a00003 	movne	r0, r3
    2c68:	05823000 	streq	r3, [r2]
    2c6c:	15823000 	strne	r3, [r2]
    2c70:	e12fff1e 	bx	lr
    2c74:	000033a4 	andeq	r3, r0, r4, lsr #7

00002c78 <mem_get_ba>:
    2c78:	e30333a4 	movw	r3, #13220	; 0x33a4
    2c7c:	e3403000 	movt	r3, #0
    2c80:	e5930000 	ldr	r0, [r3]
    2c84:	e12fff1e 	bx	lr

00002c88 <mem_clk_save>:
    2c88:	e3a03000 	mov	r3, #0
    2c8c:	e1a02000 	mov	r2, r0
    2c90:	e34f31c2 	movt	r3, #61890	; 0xf1c2
    2c94:	e30303a4 	movw	r0, #13220	; 0x33a4
    2c98:	e5931050 	ldr	r1, [r3, #80]	; 0x50
    2c9c:	e3400000 	movt	r0, #0
    2ca0:	e5803000 	str	r3, [r0]
    2ca4:	e3a00000 	mov	r0, #0
    2ca8:	e5823000 	str	r3, [r2]
    2cac:	e5821004 	str	r1, [r2, #4]
    2cb0:	e5931058 	ldr	r1, [r3, #88]	; 0x58
    2cb4:	e5821008 	str	r1, [r2, #8]
    2cb8:	e5933054 	ldr	r3, [r3, #84]	; 0x54
    2cbc:	e582300c 	str	r3, [r2, #12]
    2cc0:	e12fff1e 	bx	lr

00002cc4 <mem_clk_restore>:
    2cc4:	e5903000 	ldr	r3, [r0]
    2cc8:	e30313a4 	movw	r1, #13220	; 0x33a4
    2ccc:	e590c004 	ldr	ip, [r0, #4]
    2cd0:	e1a02000 	mov	r2, r0
    2cd4:	e3401000 	movt	r1, #0
    2cd8:	e3a00000 	mov	r0, #0
    2cdc:	e5813000 	str	r3, [r1]
    2ce0:	e583c050 	str	ip, [r3, #80]	; 0x50
    2ce4:	e5921008 	ldr	r1, [r2, #8]
    2ce8:	e5831058 	str	r1, [r3, #88]	; 0x58
    2cec:	e592200c 	ldr	r2, [r2, #12]
    2cf0:	e5832054 	str	r2, [r3, #84]	; 0x54
    2cf4:	e12fff1e 	bx	lr

00002cf8 <mem_clk_setdiv>:
    2cf8:	e92d4038 	push	{r3, r4, r5, lr}
    2cfc:	e2504000 	subs	r4, r0, #0
    2d00:	0a000015 	beq	2d5c <mem_clk_setdiv+0x64>
    2d04:	e59f5058 	ldr	r5, [pc, #88]	; 2d64 <mem_clk_setdiv+0x6c>
    2d08:	e3a03000 	mov	r3, #0
    2d0c:	e34031c2 	movt	r3, #450	; 0x1c2
    2d10:	e5941000 	ldr	r1, [r4]
    2d14:	e3a00005 	mov	r0, #5
    2d18:	e5853000 	str	r3, [r5]
    2d1c:	e5932050 	ldr	r2, [r3, #80]	; 0x50
    2d20:	e7c12011 	bfi	r2, r1, #0, #2
    2d24:	e5852004 	str	r2, [r5, #4]
    2d28:	e5832050 	str	r2, [r3, #80]	; 0x50
    2d2c:	e5942004 	ldr	r2, [r4, #4]
    2d30:	e3c22a03 	bic	r2, r2, #12288	; 0x3000
    2d34:	e3822a01 	orr	r2, r2, #4096	; 0x1000
    2d38:	e5832054 	str	r2, [r3, #84]	; 0x54
    2d3c:	ebfff69d 	bl	7b8 <delay_us>
    2d40:	e5953000 	ldr	r3, [r5]
    2d44:	e3a00005 	mov	r0, #5
    2d48:	e5942004 	ldr	r2, [r4, #4]
    2d4c:	e5832054 	str	r2, [r3, #84]	; 0x54
    2d50:	ebfff698 	bl	7b8 <delay_us>
    2d54:	e3a00000 	mov	r0, #0
    2d58:	e8bd8038 	pop	{r3, r4, r5, pc}
    2d5c:	e3e00000 	mvn	r0, #0
    2d60:	e8bd8038 	pop	{r3, r4, r5, pc}
    2d64:	000033a4 	andeq	r3, r0, r4, lsr #7

00002d68 <mem_clk_getdiv>:
    2d68:	e2502000 	subs	r2, r0, #0
    2d6c:	e52d4004 	push	{r4}		; (str r4, [sp, #-4]!)
    2d70:	03e00000 	mvneq	r0, #0
    2d74:	0a00000a 	beq	2da4 <mem_clk_getdiv+0x3c>
    2d78:	e59f102c 	ldr	r1, [pc, #44]	; 2dac <mem_clk_getdiv+0x44>
    2d7c:	e3a03000 	mov	r3, #0
    2d80:	e34f31c2 	movt	r3, #61890	; 0xf1c2
    2d84:	e3a00000 	mov	r0, #0
    2d88:	e5813000 	str	r3, [r1]
    2d8c:	e593c050 	ldr	ip, [r3, #80]	; 0x50
    2d90:	e20c4003 	and	r4, ip, #3
    2d94:	e581c004 	str	ip, [r1, #4]
    2d98:	e5824000 	str	r4, [r2]
    2d9c:	e5933054 	ldr	r3, [r3, #84]	; 0x54
    2da0:	e5823004 	str	r3, [r2, #4]
    2da4:	e8bd0010 	pop	{r4}
    2da8:	e12fff1e 	bx	lr
    2dac:	000033a4 	andeq	r3, r0, r4, lsr #7

00002db0 <mem_clk_set_pll_factor>:
    2db0:	e30333a4 	movw	r3, #13220	; 0x33a4
    2db4:	e3a02000 	mov	r2, #0
    2db8:	e3403000 	movt	r3, #0
    2dbc:	e34021c2 	movt	r2, #450	; 0x1c2
    2dc0:	e1a01000 	mov	r1, r0
    2dc4:	e52d4004 	push	{r4}		; (str r4, [sp, #-4]!)
    2dc8:	e5832000 	str	r2, [r3]
    2dcc:	e3a00000 	mov	r0, #0
    2dd0:	e5d14003 	ldrb	r4, [r1, #3]
    2dd4:	e592c000 	ldr	ip, [r2]
    2dd8:	e7d0c814 	bfi	ip, r4, #16, #1
    2ddc:	e583c008 	str	ip, [r3, #8]
    2de0:	e5d14002 	ldrb	r4, [r1, #2]
    2de4:	e7c1c014 	bfi	ip, r4, #0, #2
    2de8:	e583c008 	str	ip, [r3, #8]
    2dec:	e5d11000 	ldrb	r1, [r1]
    2df0:	e5c31009 	strb	r1, [r3, #9]
    2df4:	e5933008 	ldr	r3, [r3, #8]
    2df8:	e5823000 	str	r3, [r2]
    2dfc:	e8bd0010 	pop	{r4}
    2e00:	e12fff1e 	bx	lr

00002e04 <mem_clk_get_pll_factor>:
    2e04:	e30333a4 	movw	r3, #13220	; 0x33a4
    2e08:	e3a02000 	mov	r2, #0
    2e0c:	e3403000 	movt	r3, #0
    2e10:	e34f21c2 	movt	r2, #61890	; 0xf1c2
    2e14:	e92d0030 	push	{r4, r5}
    2e18:	e1a01000 	mov	r1, r0
    2e1c:	e5832000 	str	r2, [r3]
    2e20:	e3a00000 	mov	r0, #0
    2e24:	e5922000 	ldr	r2, [r2]
    2e28:	e7e75452 	ubfx	r5, r2, #8, #8
    2e2c:	e7e14052 	ubfx	r4, r2, #0, #2
    2e30:	e7e0c852 	ubfx	ip, r2, #16, #1
    2e34:	e5832008 	str	r2, [r3, #8]
    2e38:	e5c15000 	strb	r5, [r1]
    2e3c:	e5c14002 	strb	r4, [r1, #2]
    2e40:	e5c1c003 	strb	ip, [r1, #3]
    2e44:	e8bd0030 	pop	{r4, r5}
    2e48:	e12fff1e 	bx	lr

00002e4c <mem_clk_set_misc>:
    2e4c:	e1a02000 	mov	r2, r0
    2e50:	e5900000 	ldr	r0, [r0]
    2e54:	e30313a4 	movw	r1, #13220	; 0x33a4
    2e58:	e3a03000 	mov	r3, #0
    2e5c:	e34031c2 	movt	r3, #450	; 0x1c2
    2e60:	e3401000 	movt	r1, #0
    2e64:	e5813000 	str	r3, [r1]
    2e68:	e5830220 	str	r0, [r3, #544]	; 0x220
    2e6c:	e3a00000 	mov	r0, #0
    2e70:	e592c008 	ldr	ip, [r2, #8]
    2e74:	e583c250 	str	ip, [r3, #592]	; 0x250
    2e78:	e592c00c 	ldr	ip, [r2, #12]
    2e7c:	e583c238 	str	ip, [r3, #568]	; 0x238
    2e80:	e592c010 	ldr	ip, [r2, #16]
    2e84:	e583c254 	str	ip, [r3, #596]	; 0x254
    2e88:	e592c014 	ldr	ip, [r2, #20]
    2e8c:	e583c004 	str	ip, [r3, #4]
    2e90:	e592c024 	ldr	ip, [r2, #36]	; 0x24
    2e94:	e583c228 	str	ip, [r3, #552]	; 0x228
    2e98:	e592c028 	ldr	ip, [r2, #40]	; 0x28
    2e9c:	e583c22c 	str	ip, [r3, #556]	; 0x22c
    2ea0:	e592c02c 	ldr	ip, [r2, #44]	; 0x2c
    2ea4:	e583c234 	str	ip, [r3, #564]	; 0x234
    2ea8:	e592c030 	ldr	ip, [r2, #48]	; 0x30
    2eac:	e583c288 	str	ip, [r3, #648]	; 0x288
    2eb0:	e592c034 	ldr	ip, [r2, #52]	; 0x34
    2eb4:	e583c2a8 	str	ip, [r3, #680]	; 0x2a8
    2eb8:	e592c018 	ldr	ip, [r2, #24]
    2ebc:	e583c010 	str	ip, [r3, #16]
    2ec0:	e592c01c 	ldr	ip, [r2, #28]
    2ec4:	e583c018 	str	ip, [r3, #24]
    2ec8:	e592c020 	ldr	ip, [r2, #32]
    2ecc:	e583c028 	str	ip, [r3, #40]	; 0x28
    2ed0:	e5922038 	ldr	r2, [r2, #56]	; 0x38
    2ed4:	e5832058 	str	r2, [r3, #88]	; 0x58
    2ed8:	e3a02002 	mov	r2, #2
    2edc:	e593c050 	ldr	ip, [r3, #80]	; 0x50
    2ee0:	e7c1c012 	bfi	ip, r2, #0, #2
    2ee4:	e583c050 	str	ip, [r3, #80]	; 0x50
    2ee8:	e1a0200c 	mov	r2, ip
    2eec:	e3a0c001 	mov	ip, #1
    2ef0:	e7c1201c 	bfi	r2, ip, #0, #2
    2ef4:	e5812004 	str	r2, [r1, #4]
    2ef8:	e5832050 	str	r2, [r3, #80]	; 0x50
    2efc:	e12fff1e 	bx	lr

00002f00 <mem_clk_get_misc>:
    2f00:	e3a03000 	mov	r3, #0
    2f04:	e1a02000 	mov	r2, r0
    2f08:	e34f31c2 	movt	r3, #61890	; 0xf1c2
    2f0c:	e30303a4 	movw	r0, #13220	; 0x33a4
    2f10:	e5931220 	ldr	r1, [r3, #544]	; 0x220
    2f14:	e3400000 	movt	r0, #0
    2f18:	e5803000 	str	r3, [r0]
    2f1c:	e3a00000 	mov	r0, #0
    2f20:	e5821000 	str	r1, [r2]
    2f24:	e5931250 	ldr	r1, [r3, #592]	; 0x250
    2f28:	e5821008 	str	r1, [r2, #8]
    2f2c:	e5931238 	ldr	r1, [r3, #568]	; 0x238
    2f30:	e582100c 	str	r1, [r2, #12]
    2f34:	e5931254 	ldr	r1, [r3, #596]	; 0x254
    2f38:	e5821010 	str	r1, [r2, #16]
    2f3c:	e5931004 	ldr	r1, [r3, #4]
    2f40:	e5821014 	str	r1, [r2, #20]
    2f44:	e5931228 	ldr	r1, [r3, #552]	; 0x228
    2f48:	e5821024 	str	r1, [r2, #36]	; 0x24
    2f4c:	e593122c 	ldr	r1, [r3, #556]	; 0x22c
    2f50:	e5821028 	str	r1, [r2, #40]	; 0x28
    2f54:	e5931288 	ldr	r1, [r3, #648]	; 0x288
    2f58:	e5821030 	str	r1, [r2, #48]	; 0x30
    2f5c:	e59312a8 	ldr	r1, [r3, #680]	; 0x2a8
    2f60:	e5821034 	str	r1, [r2, #52]	; 0x34
    2f64:	e5931010 	ldr	r1, [r3, #16]
    2f68:	e5821018 	str	r1, [r2, #24]
    2f6c:	e5931018 	ldr	r1, [r3, #24]
    2f70:	e582101c 	str	r1, [r2, #28]
    2f74:	e5931234 	ldr	r1, [r3, #564]	; 0x234
    2f78:	e582102c 	str	r1, [r2, #44]	; 0x2c
    2f7c:	e5931028 	ldr	r1, [r3, #40]	; 0x28
    2f80:	e5821020 	str	r1, [r2, #32]
    2f84:	e5933058 	ldr	r3, [r3, #88]	; 0x58
    2f88:	e5823038 	str	r3, [r2, #56]	; 0x38
    2f8c:	e12fff1e 	bx	lr

00002f90 <mem_clk_get_cpu_freq>:
    2f90:	e59f3050 	ldr	r3, [pc, #80]	; 2fe8 <mem_clk_get_cpu_freq+0x58>
    2f94:	e52d4004 	push	{r4}		; (str r4, [sp, #-4]!)
    2f98:	e5931000 	ldr	r1, [r3]
    2f9c:	e5912050 	ldr	r2, [r1, #80]	; 0x50
    2fa0:	e3120a01 	tst	r2, #4096	; 0x1000
    2fa4:	e5832004 	str	r2, [r3, #4]
    2fa8:	1a000002 	bne	2fb8 <mem_clk_get_cpu_freq+0x28>
    2fac:	e3050dc0 	movw	r0, #24000	; 0x5dc0
    2fb0:	e8bd0010 	pop	{r4}
    2fb4:	e12fff1e 	bx	lr
    2fb8:	e5912000 	ldr	r2, [r1]
    2fbc:	e3054dc0 	movw	r4, #24000	; 0x5dc0
    2fc0:	e3120801 	tst	r2, #65536	; 0x10000
    2fc4:	e7e70452 	ubfx	r0, r2, #8, #8
    2fc8:	e202c003 	and	ip, r2, #3
    2fcc:	13a01004 	movne	r1, #4
    2fd0:	03a01001 	moveq	r1, #1
    2fd4:	e0000094 	mul	r0, r4, r0
    2fd8:	e5832008 	str	r2, [r3, #8]
    2fdc:	e021119c 	mla	r1, ip, r1, r1
    2fe0:	e8bd0010 	pop	{r4}
    2fe4:	eafffd87 	b	2608 <raw_lib_udiv>
    2fe8:	000033a4 	andeq	r3, r0, r4, lsr #7

Disassembly of section .rodata:

00002fec <CSWTCH.9>:
    2fec:	00000001 	andeq	r0, r0, r1
    2ff0:	00000002 	andeq	r0, r0, r2
    2ff4:	00000000 	andeq	r0, r0, r0
    2ff8:	00000003 	andeq	r0, r0, r3

00002ffc <CSWTCH.12>:
    2ffc:	00007d00 	andeq	r7, r0, r0, lsl #26
    3000:	016e3600 	cmneq	lr, r0, lsl #12
    3004:	47868c00 	strmi	r8, [r6, r0, lsl #24]

Disassembly of section .rodata.str1.4:

00003008 <.rodata.str1.4>:
    3008:	75736572 	ldrbvc	r6, [r3, #-1394]!	; 0x572
    300c:	3a31656d 	bcc	c5c5c8 <__bss_end+0xc59014>
    3010:	202e3120 	eorcs	r3, lr, r0, lsr #2
    3014:	6f666562 	svcvs	0x00666562
    3018:	72206572 	eorvc	r6, r0, #478150656	; 0x1c800000
    301c:	6f747365 	svcvs	0x00747365
    3020:	6d206572 	cfstr32vs	mvfx6, [r0, #-456]!	; 0xfffffe38
    3024:	202e756d 	eorcs	r7, lr, sp, ror #10
    3028:	0000000a 	andeq	r0, r0, sl
    302c:	75736572 	ldrbvc	r6, [r3, #-1394]!	; 0x572
    3030:	3a31656d 	bcc	c5c5ec <__bss_end+0xc59038>
    3034:	202e3320 	eorcs	r3, lr, r0, lsr #6
    3038:	65746661 	ldrbvs	r6, [r4, #-1633]!	; 0x661
    303c:	65722072 	ldrbvs	r2, [r2, #-114]!	; 0x72
    3040:	726f7473 	rsbvc	r7, pc, #1929379840	; 0x73000000
    3044:	6d6d2065 	stclvs	0, cr2, [sp, #-404]!	; 0xfffffe6c
    3048:	62202c75 	eorvs	r2, r0, #29952	; 0x7500
    304c:	726f6665 	rsbvc	r6, pc, #105906176	; 0x6500000
    3050:	756a2065 	strbvc	r2, [sl, #-101]!	; 0x65
    3054:	0a2e706d 	beq	b9f210 <__bss_end+0xb9bc5c>
    3058:	00000000 	andeq	r0, r0, r0
    305c:	5f746567 	svcpl	0x00746567
    3060:	5f727563 	svcpl	0x00727563
    3064:	73756c63 	cmnvc	r5, #25344	; 0x6300
    3068:	5f726574 	svcpl	0x00726574
    306c:	3d206469 	cfstrscc	mvf6, [r0, #-420]!	; 0xfffffe5c
    3070:	2e642520 	cdpcs	5, 6, cr2, cr4, cr0, {1}
    3074:	00000a20 	andeq	r0, r0, r0, lsr #20
    3078:	5f6d656d 	svcpl	0x006d656d
    307c:	61726170 	cmnvs	r2, r0, ror r1
    3080:	666e695f 			; <UNDEFINED> instruction: 0x666e695f
    3084:	65642e6f 	strbvs	r2, [r4, #-3695]!	; 0xe6f
    3088:	5f677562 	svcpl	0x00677562
    308c:	6b73616d 	blvs	1cdb648 <__bss_end+0x1cd8094>
    3090:	25203d20 	strcs	r3, [r0, #-3360]!	; 0xd20
    3094:	0a202e78 	beq	80ea7c <__bss_end+0x80b4c8>
    3098:	00000000 	andeq	r0, r0, r0
    309c:	616c6564 	cmnvs	ip, r4, ror #10
    30a0:	656d2079 	strbvs	r2, [sp, #-121]!	; 0x79
    30a4:	61705f6d 	cmnvs	r0, sp, ror #30
    30a8:	695f6172 	ldmdbvs	pc, {r1, r4, r5, r6, r8, sp, lr}^	; <UNPREDICTABLE>
    30ac:	2e6f666e 	cdpcs	6, 6, cr6, cr15, cr14, {3}
    30b0:	70737573 	rsbsvc	r7, r3, r3, ror r5
    30b4:	5f646e65 	svcpl	0x00646e65
    30b8:	616c6564 	cmnvs	ip, r4, ror #10
    30bc:	736d5f79 	cmnvc	sp, #484	; 0x1e4
    30c0:	25203d20 	strcs	r3, [r0, #-3360]!	; 0xd20
    30c4:	0a202e64 	beq	80ea5c <__bss_end+0x80b4a8>
    30c8:	00000000 	andeq	r0, r0, r0
    30cc:	72646461 	rsbvc	r6, r4, #1627389952	; 0x61000000
    30d0:	3a465020 	bcc	1197158 <__bss_end+0x1193ba4>
    30d4:	25783020 	ldrbcs	r3, [r8, #-32]!
    30d8:	203d2078 	eorscs	r2, sp, r8, ror r0
    30dc:	78257830 	stmdavc	r5!, {r4, r5, fp, ip, sp, lr}
    30e0:	000a202e 	andeq	r2, sl, lr, lsr #32
    30e4:	72646461 	rsbvc	r6, r4, #1627389952	; 0x61000000
    30e8:	3a485020 	bcc	1217170 <__bss_end+0x1213bbc>
    30ec:	25783020 	ldrbcs	r3, [r8, #-32]!
    30f0:	203d2078 	eorscs	r2, sp, r8, ror r0
    30f4:	78257830 	stmdavc	r5!, {r4, r5, fp, ip, sp, lr}
    30f8:	000a202e 	andeq	r2, sl, lr, lsr #32
    30fc:	75736572 	ldrbvc	r6, [r3, #-1394]!	; 0x572
    3100:	3a31656d 	bcc	c5c6bc <__bss_end+0xc59108>
    3104:	61747320 	cmnvs	r4, r0, lsr #6
    3108:	202e7472 	eorcs	r7, lr, r2, ror r4
    310c:	0000000a 	andeq	r0, r0, sl
    3110:	72646461 	rsbvc	r6, r4, #1627389952	; 0x61000000
    3114:	2c782520 	cfldr64cs	mvdx2, [r8], #-128	; 0xffffff80
    3118:	6c617620 	stclvs	6, cr7, [r1], #-128	; 0xffffff80
    311c:	3d206575 	cfstr32cc	mvfx6, [r0, #-468]!	; 0xfffffe2c
    3120:	2e782520 	cdpcs	5, 7, cr2, cr8, cr0, {1}
    3124:	00000a20 	andeq	r0, r0, r0, lsr #20
    3128:	33323130 	teqcc	r2, #12
    312c:	37363534 			; <UNDEFINED> instruction: 0x37363534
    3130:	42413938 	submi	r3, r1, #917504	; 0xe0000
    3134:	46454443 	strbmi	r4, [r5], -r3, asr #8
    3138:	00000000 	andeq	r0, r0, r0
    313c:	20202020 	eorcs	r2, r0, r0, lsr #32
    3140:	20202020 	eorcs	r2, r0, r0, lsr #32
    3144:	20202020 	eorcs	r2, r0, r0, lsr #32
    3148:	20202020 	eorcs	r2, r0, r0, lsr #32
    314c:	00000000 	andeq	r0, r0, r0
    3150:	65747441 	ldrbvs	r7, [r4, #-1089]!	; 0x441
    3154:	6974706d 	ldmdbvs	r4!, {r0, r2, r3, r5, r6, ip, sp, lr}^
    3158:	6420676e 	strtvs	r6, [r0], #-1902	; 0x76e
    315c:	73697669 	cmnvc	r9, #110100480	; 0x6900000
    3160:	206e6f69 	rsbcs	r6, lr, r9, ror #30
    3164:	30207962 	eorcc	r7, r0, r2, ror #18
    3168:	00000021 	andeq	r0, r0, r1, lsr #32
    316c:	69746f6e 	ldmdbvs	r4!, {r1, r2, r3, r5, r6, r8, r9, sl, fp, sp, lr}^
    3170:	203a6563 	eorscs	r6, sl, r3, ror #10
    3174:	20636967 	rsbcs	r6, r3, r7, ror #18
    3178:	20726169 	rsbscs	r6, r2, r9, ror #2
    317c:	30203d3d 	eorcc	r3, r0, sp, lsr sp
    3180:	2e782578 	mrccs	5, 3, r2, cr8, cr8, {3}
    3184:	00000a20 	andeq	r0, r0, r0, lsr #20
    3188:	656b6174 	strbvs	r6, [fp, #-372]!	; 0x174
    318c:	73776820 	cmnvc	r7, #2097152	; 0x200000
    3190:	6c6e6970 	stclvs	9, cr6, [lr], #-448	; 0xfffffe40
    3194:	206b636f 	rsbcs	r6, fp, pc, ror #6
    3198:	656d6974 	strbvs	r6, [sp, #-2420]!	; 0x974
    319c:	0a74756f 	beq	1d20760 <__bss_end+0x1d1d1ac>
    31a0:	00000000 	andeq	r0, r0, r0

Disassembly of section .data:

000031a4 <tmpPtr>:
    31a4:	000031a8 	andeq	r3, r0, r8, lsr #3

Disassembly of section .bss:

000031a8 <status_reg>:
    31a8:	00000000 	andeq	r0, r0, r0

000031ac <status_reg_pa>:
    31ac:	00000000 	andeq	r0, r0, r0

000031b0 <status_reg_tmp>:
    31b0:	00000000 	andeq	r0, r0, r0

000031b4 <status_reg_pa_tmp>:
    31b4:	00000000 	andeq	r0, r0, r0

000031b8 <print_flag>:
    31b8:	00000000 	andeq	r0, r0, r0

000031bc <backup_perf_counter_ctrl_reg>:
    31bc:	00000000 	andeq	r0, r0, r0

000031c0 <backup_perf_counter_enable_reg>:
    31c0:	00000000 	andeq	r0, r0, r0

000031c4 <overhead>:
    31c4:	00000000 	andeq	r0, r0, r0

000031c8 <cpu_freq>:
    31c8:	00000000 	andeq	r0, r0, r0

000031cc <saved_context>:
	...

0000326c <backup_gpio_uart>:
    326c:	00000000 	andeq	r0, r0, r0

00003270 <backup_ccu_uart>:
    3270:	00000000 	andeq	r0, r0, r0

00003274 <backup_ccu_uart_reset>:
    3274:	00000000 	andeq	r0, r0, r0

00003278 <backup_port_id>:
    3278:	00000000 	andeq	r0, r0, r0

0000327c <serial_inited_flag>:
    327c:	00000000 	andeq	r0, r0, r0

00003280 <debugger_buffer>:
	...

00003380 <GicDDisc>:
    3380:	00000000 	andeq	r0, r0, r0

00003384 <GicCDisc>:
    3384:	00000000 	andeq	r0, r0, r0

00003388 <gpio_clk_inited.2455>:
    3388:	00000000 	andeq	r0, r0, r0

0000338c <TmrReg>:
    338c:	00000000 	andeq	r0, r0, r0

00003390 <WatchDog1_Config_Reg_Bak>:
    3390:	00000000 	andeq	r0, r0, r0

00003394 <WatchDog1_Mod_Reg_Bak>:
    3394:	00000000 	andeq	r0, r0, r0

00003398 <WatchDog1_Irq_En_Bak>:
    3398:	00000000 	andeq	r0, r0, r0

0000339c <TmstmpReg>:
    339c:	00000000 	andeq	r0, r0, r0

000033a0 <cpsr_backup>:
    33a0:	00000000 	andeq	r0, r0, r0

000033a4 <CmuReg>:
    33a4:	00000000 	andeq	r0, r0, r0

000033a8 <CmuReg_SysClkDiv_tmp>:
    33a8:	00000000 	andeq	r0, r0, r0

000033ac <CmuReg_Pll1Ctl_tmp>:
    33ac:	00000000 	andeq	r0, r0, r0

000033b0 <mem_para_info>:
	...

00003498 <func_entry>:
    3498:	00000000 	andeq	r0, r0, r0

0000349c <saved_context_r13_irq>:
	...

000034a4 <saved_context_r12_svc>:
	...

000034ac <saved_spsr_fiq>:
    34ac:	00000000 	andeq	r0, r0, r0

000034b0 <saved_spsr_und>:
    34b0:	00000000 	andeq	r0, r0, r0

000034b4 <saved_spsr_irq>:
    34b4:	00000000 	andeq	r0, r0, r0

000034b8 <saved_context_r13_abt>:
	...

000034c0 <saved_spsr_mon>:
    34c0:	00000000 	andeq	r0, r0, r0

000034c4 <saved_empty_context_svc>:
	...

00003574 <saved_context_r13_fiq>:
	...

00003590 <saved_cpsr_svc>:
    3590:	00000000 	andeq	r0, r0, r0

00003594 <saved_context_r13_sys>:
	...

0000359c <saved_spsr_abt>:
    359c:	00000000 	andeq	r0, r0, r0

000035a0 <saved_context_r13_mon>:
	...

000035a8 <saved_spsr_svc>:
    35a8:	00000000 	andeq	r0, r0, r0

000035ac <saved_context_r13_und>:
	...

Disassembly of section .debug_info:

00000000 <.debug_info>:
       0:	000001b0 			; <UNDEFINED> instruction: 0x000001b0
       4:	00000002 	andeq	r0, r0, r2
       8:	01040000 	mrseq	r0, (UNDEF: 4)
       c:	00000046 	andeq	r0, r0, r6, asr #32
      10:	0001c101 	andeq	ip, r1, r1, lsl #2
      14:	00015d00 	andeq	r5, r1, r0, lsl #26
      18:	00008c00 	andeq	r8, r0, r0, lsl #24
      1c:	00008c00 	andeq	r8, r0, r0, lsl #24
      20:	00000000 	andeq	r0, r0, r0
      24:	06010200 	streq	r0, [r1], -r0, lsl #4
      28:	00000081 	andeq	r0, r0, r1, lsl #1
      2c:	7f080102 	svcvc	0x00080102
      30:	02000000 	andeq	r0, r0, #0
      34:	01a40502 			; <UNDEFINED> instruction: 0x01a40502
      38:	02020000 	andeq	r0, r2, #0
      3c:	0000a307 	andeq	sl, r0, r7, lsl #6
      40:	05040300 	streq	r0, [r4, #-768]	; 0x300
      44:	00746e69 	rsbseq	r6, r4, r9, ror #28
      48:	24070402 	strcs	r0, [r7], #-1026	; 0x402
      4c:	02000001 	andeq	r0, r0, #1
      50:	017f0508 	cmneq	pc, r8, lsl #10
      54:	08020000 	stmdaeq	r2, {}	; <UNPREDICTABLE>
      58:	00011a07 	andeq	r1, r1, r7, lsl #20
      5c:	01470400 	cmpeq	r7, r0, lsl #8
      60:	02040000 	andeq	r0, r4, #0
      64:	0000ca89 	andeq	ip, r0, r9, lsl #21
      68:	001e0500 	andseq	r0, lr, r0, lsl #10
      6c:	05000000 	streq	r0, [r0, #-0]
      70:	00000096 	muleq	r0, r6, r0
      74:	00390501 	eorseq	r0, r9, r1, lsl #10
      78:	05020000 	streq	r0, [r2, #-0]
      7c:	00000073 	andeq	r0, r0, r3, ror r0
      80:	018d0503 	orreq	r0, sp, r3, lsl #10
      84:	05040000 	streq	r0, [r4, #-0]
      88:	0000010e 	andeq	r0, r0, lr, lsl #2
      8c:	00f60505 	rscseq	r0, r6, r5, lsl #10
      90:	05060000 	streq	r0, [r6, #-0]
      94:	00000131 	andeq	r0, r0, r1, lsr r1
      98:	00120507 	andseq	r0, r2, r7, lsl #10
      9c:	05080000 	streq	r0, [r8, #-0]
      a0:	00000068 	andeq	r0, r0, r8, rrx
      a4:	01030509 	tsteq	r3, r9, lsl #10
      a8:	050a0000 	streq	r0, [sl, #-0]
      ac:	00000199 	muleq	r0, r9, r1
      b0:	0141050b 	cmpeq	r1, fp, lsl #10
      b4:	050c0000 	streq	r0, [ip, #-0]
      b8:	00000171 	andeq	r0, r0, r1, ror r1
      bc:	021e050d 	andseq	r0, lr, #54525952	; 0x3400000
      c0:	050e0000 	streq	r0, [lr, #-0]
      c4:	0000002b 	andeq	r0, r0, fp, lsr #32
      c8:	0102000f 	tsteq	r2, pc
      cc:	00008808 	andeq	r8, r0, r8, lsl #16
      d0:	07040200 	streq	r0, [r4, -r0, lsl #4]
      d4:	0000011f 	andeq	r0, r0, pc, lsl r1
      d8:	00000006 	andeq	r0, r0, r6
      dc:	49013000 	stmdbmi	r1, {ip, sp}
      e0:	00000171 	andeq	r0, r0, r1, ror r1
      e4:	0000e507 	andeq	lr, r0, r7, lsl #10
      e8:	484b0100 	stmdami	fp, {r8}^
      ec:	02000000 	andeq	r0, r0, #0
      f0:	08070023 	stmdaeq	r7, {r0, r1, r5}
      f4:	01000002 	tsteq	r0, r2
      f8:	0001714c 	andeq	r7, r1, ip, asr #2
      fc:	04230200 	strteq	r0, [r3], #-512	; 0x200
     100:	0000c107 	andeq	ip, r0, r7, lsl #2
     104:	484d0100 	stmdami	sp, {r8}^
     108:	02000000 	andeq	r0, r0, #0
     10c:	0e070c23 	cdpeq	12, 0, cr0, cr7, cr3, {1}
     110:	01000002 	tsteq	r0, r2
     114:	0000484e 	andeq	r4, r0, lr, asr #16
     118:	10230200 	eorne	r0, r3, r0, lsl #4
     11c:	0000cb07 	andeq	ip, r0, r7, lsl #22
     120:	484f0100 	stmdami	pc, {r8}^	; <UNPREDICTABLE>
     124:	02000000 	andeq	r0, r0, #0
     128:	fb071423 	blx	1c51be <__bss_end+0x1c1c0a>
     12c:	01000001 	tsteq	r0, r1
     130:	00018150 	andeq	r8, r1, r0, asr r1
     134:	18230200 	stmdane	r3!, {r9}
     138:	00014f07 	andeq	r4, r1, r7, lsl #30
     13c:	81510100 	cmphi	r1, r0, lsl #2
     140:	02000001 	andeq	r0, r0, #1
     144:	b6071c23 	strlt	r1, [r7], -r3, lsr #24
     148:	01000000 	mrseq	r0, (UNDEF: 0)
     14c:	00018152 	andeq	r8, r1, r2, asr r1
     150:	20230200 	eorcs	r0, r3, r0, lsl #4
     154:	00008d07 	andeq	r8, r0, r7, lsl #26
     158:	81530100 	cmphi	r3, r0, lsl #2
     15c:	02000001 	andeq	r0, r0, #1
     160:	15072423 	strne	r2, [r7, #-1059]	; 0x423
     164:	01000002 	tsteq	r0, r2
     168:	00017154 	andeq	r7, r1, r4, asr r1
     16c:	28230200 	stmdacs	r3!, {r9}
     170:	002c0800 	eoreq	r0, ip, r0, lsl #16
     174:	01810000 	orreq	r0, r1, r0
     178:	48090000 	stmdami	r9, {}	; <UNPREDICTABLE>
     17c:	07000000 	streq	r0, [r0, -r0]
     180:	002c0800 	eoreq	r0, ip, r0, lsl #16
     184:	01910000 	orrseq	r0, r1, r0
     188:	48090000 	stmdami	r9, {}	; <UNPREDICTABLE>
     18c:	03000000 	movweq	r0, #0
     190:	01ae0a00 			; <UNDEFINED> instruction: 0x01ae0a00
     194:	55010000 	strpl	r0, [r1, #-0]
     198:	000000d8 	ldrdeq	r0, [r0], -r8
     19c:	0000d90b 	andeq	sp, r0, fp, lsl #18
     1a0:	ae240300 	cdpge	3, 2, cr0, cr4, cr0, {0}
     1a4:	01000001 	tsteq	r0, r1
     1a8:	00000305 	andeq	r0, r0, r5, lsl #6
     1ac:	910c0000 	mrsls	r0, (UNDEF: 12)
     1b0:	00000001 	andeq	r0, r0, r1
     1b4:	0000006c 	andeq	r0, r0, ip, rrx
     1b8:	00970002 	addseq	r0, r7, r2
     1bc:	01040000 	mrseq	r0, (UNDEF: 4)
     1c0:	000000bc 	strheq	r0, [r0], -ip
     1c4:	00000030 	andeq	r0, r0, r0, lsr r0
     1c8:	0000008c 	andeq	r0, r0, ip, lsl #1
     1cc:	68637261 	stmdavs	r3!, {r0, r5, r6, r9, ip, sp, lr}^
     1d0:	6d72612f 	ldfvse	f6, [r2, #-188]!	; 0xffffff44
     1d4:	63616d2f 	cmnvs	r1, #3008	; 0xbc0
     1d8:	75732d68 	ldrbvc	r2, [r3, #-3432]!	; 0xd68
     1dc:	2f69786e 	svccs	0x0069786e
     1e0:	732f6d70 	teqvc	pc, #7168	; 0x1c00
     1e4:	646e6174 	strbtvs	r6, [lr], #-372	; 0x174
     1e8:	732f7962 	teqvc	pc, #1605632	; 0x188000
     1ec:	72657075 	rsbvc	r7, r5, #117	; 0x75
     1f0:	7365722f 	cmnvc	r5, #-268435454	; 0xf0000002
     1f4:	2f656d75 	svccs	0x00656d75
     1f8:	75736572 	ldrbvc	r6, [r3, #-1394]!	; 0x572
     1fc:	2e31656d 	cdpcs	5, 3, cr6, cr1, cr13, {3}
     200:	772f0053 			; <UNDEFINED> instruction: 0x772f0053
     204:	2f6b726f 	svccs	0x006b726f
     208:	2f333861 	svccs	0x00333861
     20c:	756e696c 	strbvc	r6, [lr, #-2412]!	; 0x96c
     210:	2e332d78 	mrccs	13, 1, r2, cr3, cr8, {3}
     214:	4e470034 	mcrmi	0, 2, r0, cr7, cr4, {1}
     218:	53412055 	movtpl	r2, #4181	; 0x1055
     21c:	322e3220 	eorcc	r3, lr, #2
     220:	80010032 	andhi	r0, r1, r2, lsr r0
     224:	000000cc 	andeq	r0, r0, ip, asr #1
     228:	00ab0002 	adceq	r0, fp, r2
     22c:	01040000 	mrseq	r0, (UNDEF: 4)
     230:	00000046 	andeq	r0, r0, r6, asr #32
     234:	00022a01 	andeq	r2, r2, r1, lsl #20
     238:	00015d00 	andeq	r5, r1, r0, lsl #26
     23c:	00008c00 	andeq	r8, r0, r0, lsl #24
     240:	0000b400 	andeq	fp, r0, r0, lsl #8
     244:	00013b00 	andeq	r3, r1, r0, lsl #22
     248:	06010200 	streq	r0, [r1], -r0, lsl #4
     24c:	00000081 	andeq	r0, r0, r1, lsl #1
     250:	7f080102 	svcvc	0x00080102
     254:	02000000 	andeq	r0, r0, #0
     258:	01a40502 			; <UNDEFINED> instruction: 0x01a40502
     25c:	02020000 	andeq	r0, r2, #0
     260:	0000a307 	andeq	sl, r0, r7, lsl #6
     264:	05040300 	streq	r0, [r4, #-768]	; 0x300
     268:	00746e69 	rsbseq	r6, r4, r9, ror #28
     26c:	24070402 	strcs	r0, [r7], #-1026	; 0x402
     270:	02000001 	andeq	r0, r0, #1
     274:	017f0508 	cmneq	pc, r8, lsl #10
     278:	08020000 	stmdaeq	r2, {}	; <UNPREDICTABLE>
     27c:	00011a07 	andeq	r1, r1, r7, lsl #20
     280:	08010200 	stmdaeq	r1, {r9}
     284:	00000088 	andeq	r0, r0, r8, lsl #1
     288:	00480404 	subeq	r0, r8, r4, lsl #8
     28c:	04020000 	streq	r0, [r2], #-0
     290:	00011f07 	andeq	r1, r1, r7, lsl #30
     294:	06040500 	streq	r0, [r4], -r0, lsl #10
     298:	00026801 	andeq	r6, r2, r1, lsl #16
     29c:	01230100 	teqeq	r3, r0, lsl #2
     2a0:	0000008c 	andeq	r0, r0, ip, lsl #1
     2a4:	000000b4 	strheq	r0, [r0], -r4
     2a8:	07007d02 	streq	r7, [r0, -r2, lsl #26]
     2ac:	0000166a 	andeq	r1, r0, sl, ror #12
     2b0:	00712301 	rsbseq	r2, r1, r1, lsl #6
     2b4:	00000000 	andeq	r0, r0, r0
     2b8:	73080000 	movwvc	r0, #32768	; 0x8000
     2bc:	01006372 	tsteq	r0, r2, ror r3
     2c0:	00007123 	andeq	r7, r0, r3, lsr #2
     2c4:	00001300 	andeq	r1, r0, r0, lsl #6
     2c8:	006e0800 	rsbeq	r0, lr, r0, lsl #16
     2cc:	00412301 	subeq	r2, r1, r1, lsl #6
     2d0:	00260000 	eoreq	r0, r6, r0
     2d4:	60090000 	andvs	r0, r9, r0
     2d8:	01000002 	tsteq	r0, r2
     2dc:	00006425 	andeq	r6, r0, r5, lsr #8
     2e0:	00005100 	andeq	r5, r0, r0, lsl #2
     2e4:	02580a00 	subseq	r0, r8, #0
     2e8:	26010000 	strcs	r0, [r1], -r0
     2ec:	00000064 	andeq	r0, r0, r4, rrx
     2f0:	00005001 	andeq	r5, r0, r1
     2f4:	00000068 	andeq	r0, r0, r8, rrx
     2f8:	01360002 	teqeq	r6, r2
     2fc:	01040000 	mrseq	r0, (UNDEF: 4)
     300:	00000046 	andeq	r0, r0, r6, asr #32
     304:	00027301 	andeq	r7, r2, r1, lsl #6
     308:	00015d00 	andeq	r5, r1, r0, lsl #26
     30c:	0000b400 	andeq	fp, r0, r0, lsl #8
     310:	0000b400 	andeq	fp, r0, r0, lsl #8
     314:	0001b100 	andeq	fp, r1, r0, lsl #2
     318:	06010200 	streq	r0, [r1], -r0, lsl #4
     31c:	00000081 	andeq	r0, r0, r1, lsl #1
     320:	7f080102 	svcvc	0x00080102
     324:	02000000 	andeq	r0, r0, #0
     328:	01a40502 			; <UNDEFINED> instruction: 0x01a40502
     32c:	02020000 	andeq	r0, r2, #0
     330:	0000a307 	andeq	sl, r0, r7, lsl #6
     334:	05040300 	streq	r0, [r4, #-768]	; 0x300
     338:	00746e69 	rsbseq	r6, r4, r9, ror #28
     33c:	24070402 	strcs	r0, [r7], #-1026	; 0x402
     340:	02000001 	andeq	r0, r0, #1
     344:	017f0508 	cmneq	pc, r8, lsl #10
     348:	08020000 	stmdaeq	r2, {}	; <UNPREDICTABLE>
     34c:	00011a07 	andeq	r1, r1, r7, lsl #20
     350:	08010200 	stmdaeq	r1, {r9}
     354:	00000088 	andeq	r0, r0, r8, lsl #1
     358:	1f070402 	svcne	0x00070402
     35c:	00000001 	andeq	r0, r0, r1
     360:	00000069 	andeq	r0, r0, r9, rrx
     364:	01600002 	cmneq	r0, r2
     368:	01040000 	mrseq	r0, (UNDEF: 4)
     36c:	000001ce 	andeq	r0, r0, lr, asr #3
     370:	000000b4 	strheq	r0, [r0], -r4
     374:	000000dc 	ldrdeq	r0, [r0], -ip
     378:	68637261 	stmdavs	r3!, {r0, r5, r6, r9, ip, sp, lr}^
     37c:	6d72612f 	ldfvse	f6, [r2, #-188]!	; 0xffffff44
     380:	63616d2f 	cmnvs	r1, #3008	; 0xbc0
     384:	75732d68 	ldrbvc	r2, [r3, #-3432]!	; 0xd68
     388:	2f69786e 	svccs	0x0069786e
     38c:	732f6d70 	teqvc	pc, #7168	; 0x1c00
     390:	646e6174 	strbtvs	r6, [lr], #-372	; 0x174
     394:	732f7962 	teqvc	pc, #1605632	; 0x188000
     398:	72657075 	rsbvc	r7, r5, #117	; 0x75
     39c:	7075732f 	rsbsvc	r7, r5, pc, lsr #6
     3a0:	645f7265 	ldrbvs	r7, [pc], #-613	; 3a8 <mem_status_init>
     3a4:	79616c65 	stmdbvc	r1!, {r0, r2, r5, r6, sl, fp, sp, lr}^
     3a8:	2f00532e 	svccs	0x0000532e
     3ac:	6b726f77 	blvs	1c9c190 <__bss_end+0x1c98bdc>
     3b0:	3338612f 	teqcc	r8, #-1073741813	; 0xc000000b
     3b4:	6e696c2f 	cdpvs	12, 6, cr6, cr9, cr15, {1}
     3b8:	332d7875 	teqcc	sp, #7667712	; 0x750000
     3bc:	4700342e 	strmi	r3, [r0, -lr, lsr #8]
     3c0:	4120554e 	teqmi	r0, lr, asr #10
     3c4:	2e322053 	mrccs	0, 1, r2, cr2, cr3, {2}
     3c8:	01003232 	tsteq	r0, r2, lsr r2
     3cc:	00006880 	andeq	r6, r0, r0, lsl #17
     3d0:	74000200 	strvc	r0, [r0], #-512	; 0x200
     3d4:	04000001 	streq	r0, [r0], #-1
     3d8:	00004601 	andeq	r4, r0, r1, lsl #12
     3dc:	02a40100 	adceq	r0, r4, #0
     3e0:	015d0000 	cmpeq	sp, r0
     3e4:	00dc0000 	sbcseq	r0, ip, r0
     3e8:	00dc0000 	sbcseq	r0, ip, r0
     3ec:	02390000 	eorseq	r0, r9, #0
     3f0:	01020000 	mrseq	r0, (UNDEF: 2)
     3f4:	00008106 	andeq	r8, r0, r6, lsl #2
     3f8:	08010200 	stmdaeq	r1, {r9}
     3fc:	0000007f 	andeq	r0, r0, pc, ror r0
     400:	a4050202 	strge	r0, [r5], #-514	; 0x202
     404:	02000001 	andeq	r0, r0, #1
     408:	00a30702 	adceq	r0, r3, r2, lsl #14
     40c:	04030000 	streq	r0, [r3], #-0
     410:	746e6905 	strbtvc	r6, [lr], #-2309	; 0x905
     414:	07040200 	streq	r0, [r4, -r0, lsl #4]
     418:	00000124 	andeq	r0, r0, r4, lsr #2
     41c:	7f050802 	svcvc	0x00050802
     420:	02000001 	andeq	r0, r0, #1
     424:	011a0708 	tsteq	sl, r8, lsl #14
     428:	01020000 	mrseq	r0, (UNDEF: 2)
     42c:	00008808 	andeq	r8, r0, r8, lsl #16
     430:	07040200 	streq	r0, [r4, -r0, lsl #4]
     434:	0000011f 	andeq	r0, r0, pc, lsl r1
     438:	00006800 	andeq	r6, r0, r0, lsl #16
     43c:	9e000200 	cdpls	2, 0, cr0, cr0, cr0, {0}
     440:	04000001 	streq	r0, [r0], #-1
     444:	00004601 	andeq	r4, r0, r1, lsl #12
     448:	02d70100 	sbcseq	r0, r7, #0
     44c:	015d0000 	cmpeq	sp, r0
     450:	00dc0000 	sbcseq	r0, ip, r0
     454:	00dc0000 	sbcseq	r0, ip, r0
     458:	02560000 	subseq	r0, r6, #0
     45c:	01020000 	mrseq	r0, (UNDEF: 2)
     460:	00008106 	andeq	r8, r0, r6, lsl #2
     464:	08010200 	stmdaeq	r1, {r9}
     468:	0000007f 	andeq	r0, r0, pc, ror r0
     46c:	a4050202 	strge	r0, [r5], #-514	; 0x202
     470:	02000001 	andeq	r0, r0, #1
     474:	00a30702 	adceq	r0, r3, r2, lsl #14
     478:	04030000 	streq	r0, [r3], #-0
     47c:	746e6905 	strbtvc	r6, [lr], #-2309	; 0x905
     480:	07040200 	streq	r0, [r4, -r0, lsl #4]
     484:	00000124 	andeq	r0, r0, r4, lsr #2
     488:	7f050802 	svcvc	0x00050802
     48c:	02000001 	andeq	r0, r0, #1
     490:	011a0708 	tsteq	sl, r8, lsl #14
     494:	01020000 	mrseq	r0, (UNDEF: 2)
     498:	00008808 	andeq	r8, r0, r8, lsl #16
     49c:	07040200 	streq	r0, [r4, -r0, lsl #4]
     4a0:	0000011f 	andeq	r0, r0, pc, lsl r1
     4a4:	00006800 	andeq	r6, r0, r0, lsl #16
     4a8:	c8000200 	stmdagt	r0, {r9}
     4ac:	04000001 	streq	r0, [r0], #-1
     4b0:	00004601 	andeq	r4, r0, r1, lsl #12
     4b4:	030a0100 	movweq	r0, #41216	; 0xa100
     4b8:	015d0000 	cmpeq	sp, r0
     4bc:	00dc0000 	sbcseq	r0, ip, r0
     4c0:	00dc0000 	sbcseq	r0, ip, r0
     4c4:	02730000 	rsbseq	r0, r3, #0
     4c8:	01020000 	mrseq	r0, (UNDEF: 2)
     4cc:	00008106 	andeq	r8, r0, r6, lsl #2
     4d0:	08010200 	stmdaeq	r1, {r9}
     4d4:	0000007f 	andeq	r0, r0, pc, ror r0
     4d8:	a4050202 	strge	r0, [r5], #-514	; 0x202
     4dc:	02000001 	andeq	r0, r0, #1
     4e0:	00a30702 	adceq	r0, r3, r2, lsl #14
     4e4:	04030000 	streq	r0, [r3], #-0
     4e8:	746e6905 	strbtvc	r6, [lr], #-2309	; 0x905
     4ec:	07040200 	streq	r0, [r4, -r0, lsl #4]
     4f0:	00000124 	andeq	r0, r0, r4, lsr #2
     4f4:	7f050802 	svcvc	0x00050802
     4f8:	02000001 	andeq	r0, r0, #1
     4fc:	011a0708 	tsteq	sl, r8, lsl #14
     500:	01020000 	mrseq	r0, (UNDEF: 2)
     504:	00008808 	andeq	r8, r0, r8, lsl #16
     508:	07040200 	streq	r0, [r4, -r0, lsl #4]
     50c:	0000011f 	andeq	r0, r0, pc, lsl r1
     510:	0010cb00 	andseq	ip, r0, r0, lsl #22
     514:	f2000200 	vhsub.s8	d0, d0, d0
     518:	04000001 	streq	r0, [r0], #-1
     51c:	00004601 	andeq	r4, r0, r1, lsl #12
     520:	06fd0100 	ldrbteq	r0, [sp], r0, lsl #2
     524:	015d0000 	cmpeq	sp, r0
     528:	00dc0000 	sbcseq	r0, ip, r0
     52c:	03800000 	orreq	r0, r0, #0
     530:	02900000 	addseq	r0, r0, #0
     534:	01020000 	mrseq	r0, (UNDEF: 2)
     538:	00008106 	andeq	r8, r0, r6, lsl #2
     53c:	0b000300 	bleq	1144 <__save_processor_state+0x204>
     540:	0f020000 	svceq	0x00020000
     544:	00000037 	andeq	r0, r0, r7, lsr r0
     548:	7f080102 	svcvc	0x00080102
     54c:	02000000 	andeq	r0, r0, #0
     550:	01a40502 			; <UNDEFINED> instruction: 0x01a40502
     554:	02020000 	andeq	r0, r2, #0
     558:	0000a307 	andeq	sl, r0, r7, lsl #6
     55c:	05040400 	streq	r0, [r4, #-1024]	; 0x400
     560:	00746e69 	rsbseq	r6, r4, r9, ror #28
     564:	00083003 	andeq	r3, r8, r3
     568:	5e130200 	cdppl	2, 1, cr0, cr3, cr0, {0}
     56c:	02000000 	andeq	r0, r0, #0
     570:	01240704 	teqeq	r4, r4, lsl #14
     574:	08020000 	stmdaeq	r2, {}	; <UNPREDICTABLE>
     578:	00017f05 	andeq	r7, r1, r5, lsl #30
     57c:	07080200 	streq	r0, [r8, -r0, lsl #4]
     580:	0000011a 	andeq	r0, r0, sl, lsl r1
     584:	1a030405 	bne	c15a0 <__bss_end+0xbdfec>
     588:	00000104 	andeq	r0, r0, r4, lsl #2
     58c:	00057306 	andeq	r7, r5, r6, lsl #6
     590:	531c0300 	tstpl	ip, #0
     594:	04000000 	streq	r0, [r0], #-0
     598:	23021e02 	movwcs	r1, #11778	; 0x2e02
     59c:	0a570600 	beq	15c1da4 <__bss_end+0x15be7f0>
     5a0:	1d030000 	stcne	0, cr0, [r3, #-0]
     5a4:	00000053 	andeq	r0, r0, r3, asr r0
     5a8:	02180604 	andseq	r0, r8, #4194304	; 0x400000
     5ac:	7b060023 	blvc	180640 <__bss_end+0x17d08c>
     5b0:	03000005 	movweq	r0, #5
     5b4:	0000531e 	andeq	r5, r0, lr, lsl r3
     5b8:	10080400 	andne	r0, r8, r0, lsl #8
     5bc:	06002302 	streq	r2, [r0], -r2, lsl #6
     5c0:	0000058b 	andeq	r0, r0, fp, lsl #11
     5c4:	00531f03 	subseq	r1, r3, r3, lsl #30
     5c8:	01040000 	mrseq	r0, (UNDEF: 4)
     5cc:	0023020f 	eoreq	r0, r3, pc, lsl #4
     5d0:	000a7506 	andeq	r7, sl, r6, lsl #10
     5d4:	53200300 	teqpl	r0, #0
     5d8:	04000000 	streq	r0, [r0], #-0
     5dc:	23020807 	movwcs	r0, #10247	; 0x2807
     5e0:	07770600 	ldrbeq	r0, [r7, -r0, lsl #12]!
     5e4:	21030000 	mrscs	r0, (UNDEF: 3)
     5e8:	00000053 	andeq	r0, r0, r3, asr r0
     5ec:	02050304 	andeq	r0, r5, #268435456	; 0x10000000
     5f0:	7f060023 	svcvc	0x00060023
     5f4:	0300000a 	movweq	r0, #10
     5f8:	00005322 	andeq	r5, r0, r2, lsr #6
     5fc:	01040400 	tsteq	r4, r0, lsl #8
     600:	06002302 	streq	r2, [r0], -r2, lsl #6
     604:	00000a19 	andeq	r0, r0, r9, lsl sl
     608:	00532303 	subseq	r2, r3, r3, lsl #6
     60c:	01040000 	mrseq	r0, (UNDEF: 4)
     610:	00230200 	eoreq	r0, r3, r0, lsl #4
     614:	03040700 	movweq	r0, #18176	; 0x4700
     618:	00012318 	andeq	r2, r1, r8, lsl r3
     61c:	03aa0800 			; <UNDEFINED> instruction: 0x03aa0800
     620:	19030000 	stmdbne	r3, {}	; <UNPREDICTABLE>
     624:	00000053 	andeq	r0, r0, r3, asr r0
     628:	00085908 	andeq	r5, r8, r8, lsl #18
     62c:	73250300 	teqvc	r5, #0
     630:	00000000 	andeq	r0, r0, r0
     634:	000a1f03 	andeq	r1, sl, r3, lsl #30
     638:	04260300 	strteq	r0, [r6], #-768	; 0x300
     63c:	05000001 	streq	r0, [r0, #-1]
     640:	bf3e0304 	svclt	0x003e0304
     644:	06000001 	streq	r0, [r0], -r1
     648:	00000c92 	muleq	r0, r2, ip
     64c:	00534003 	subseq	r4, r3, r3
     650:	02040000 	andeq	r0, r4, #0
     654:	0023021e 	eoreq	r0, r3, lr, lsl r2
     658:	000a5706 	andeq	r5, sl, r6, lsl #14
     65c:	53410300 	movtpl	r0, #4864	; 0x1300
     660:	04000000 	streq	r0, [r0], #-0
     664:	2302140a 	movwcs	r1, #9226	; 0x240a
     668:	06980600 	ldreq	r0, [r8], r0, lsl #12
     66c:	42030000 	andmi	r0, r3, #0
     670:	00000053 	andeq	r0, r0, r3, asr r0
     674:	02130104 	andseq	r0, r3, #1
     678:	61060023 	tstvs	r6, r3, lsr #32
     67c:	0300000a 	movweq	r0, #10
     680:	00005343 	andeq	r5, r0, r3, asr #6
     684:	10030400 	andne	r0, r3, r0, lsl #8
     688:	06002302 	streq	r2, [r0], -r2, lsl #6
     68c:	00000836 	andeq	r0, r0, r6, lsr r8
     690:	00534403 	subseq	r4, r3, r3, lsl #8
     694:	02040000 	andeq	r0, r4, #0
     698:	0023020e 	eoreq	r0, r3, lr, lsl #4
     69c:	000a6b06 	andeq	r6, sl, r6, lsl #22
     6a0:	53450300 	movtpl	r0, #21248	; 0x5300
     6a4:	04000000 	streq	r0, [r0], #-0
     6a8:	2302040a 	movwcs	r0, #9226	; 0x240a
     6ac:	05f10600 	ldrbeq	r0, [r1, #1536]!	; 0x600
     6b0:	46030000 	strmi	r0, [r3], -r0
     6b4:	00000053 	andeq	r0, r0, r3, asr r0
     6b8:	02030104 	andeq	r0, r3, #1
     6bc:	75060023 	strvc	r0, [r6, #-35]	; 0x23
     6c0:	0300000a 	movweq	r0, #10
     6c4:	00005347 	andeq	r5, r0, r7, asr #6
     6c8:	00030400 	andeq	r0, r3, r0, lsl #8
     6cc:	00002302 	andeq	r2, r0, r2, lsl #6
     6d0:	3c030407 	cfstrscc	mvf0, [r3], {7}
     6d4:	000001de 	ldrdeq	r0, [r0], -lr
     6d8:	0003aa08 	andeq	sl, r3, r8, lsl #20
     6dc:	533d0300 	teqpl	sp, #0
     6e0:	08000000 	stmdaeq	r0, {}	; <UNPREDICTABLE>
     6e4:	00000859 	andeq	r0, r0, r9, asr r8
     6e8:	012e4803 	teqeq	lr, r3, lsl #16
     6ec:	03000000 	movweq	r0, #0
     6f0:	00000478 	andeq	r0, r0, r8, ror r4
     6f4:	01bf4903 			; <UNDEFINED> instruction: 0x01bf4903
     6f8:	3c090000 	stccc	0, cr0, [r9], {-0}
     6fc:	04000003 	streq	r0, [r0], #-3
     700:	026d4f03 	rsbeq	r4, sp, #12
     704:	57060000 	strpl	r0, [r6, -r0]
     708:	0300000a 	movweq	r0, #10
     70c:	00005351 	andeq	r5, r0, r1, asr r3
     710:	1c040400 	cfstrsne	mvf0, [r4], {-0}
     714:	06002302 	streq	r2, [r0], -r2, lsl #6
     718:	000008ad 	andeq	r0, r0, sp, lsr #17
     71c:	00535203 	subseq	r5, r3, r3, lsl #4
     720:	02040000 	andeq	r0, r4, #0
     724:	0023021a 	eoreq	r0, r3, sl, lsl r2
     728:	00081906 	andeq	r1, r8, r6, lsl #18
     72c:	53530300 	cmppl	r3, #0
     730:	04000000 	streq	r0, [r0], #-0
     734:	23021802 	movwcs	r1, #10242	; 0x2802
     738:	09b80600 	ldmibeq	r8!, {r9, sl}
     73c:	54030000 	strpl	r0, [r3], #-0
     740:	00000053 	andeq	r0, r0, r3, asr r0
     744:	02160204 	andseq	r0, r6, #1073741824	; 0x40000000
     748:	61060023 	tstvs	r6, r3, lsr #32
     74c:	0300000a 	movweq	r0, #10
     750:	00005355 	andeq	r5, r0, r5, asr r3
     754:	14020400 	strne	r0, [r2], #-1024	; 0x400
     758:	06002302 	streq	r2, [r0], -r2, lsl #6
     75c:	0000099a 	muleq	r0, sl, r9
     760:	00535603 	subseq	r5, r3, r3, lsl #12
     764:	02040000 	andeq	r0, r4, #0
     768:	00230212 	eoreq	r0, r3, r2, lsl r2
     76c:	000a6b06 	andeq	r6, sl, r6, lsl #22
     770:	53570300 	cmppl	r7, #0
     774:	04000000 	streq	r0, [r0], #-0
     778:	23020012 	movwcs	r0, #8210	; 0x2012
     77c:	ec030000 	stc	0, cr0, [r3], {-0}
     780:	0300000b 	movweq	r0, #11
     784:	0001e958 	andeq	lr, r1, r8, asr r9
     788:	03040500 	movweq	r0, #17664	; 0x4500
     78c:	0002e75f 	andeq	lr, r2, pc, asr r7
     790:	06090600 	streq	r0, [r9], -r0, lsl #12
     794:	61030000 	mrsvs	r0, (UNDEF: 3)
     798:	00000053 	andeq	r0, r0, r3, asr r0
     79c:	021b0504 	andseq	r0, fp, #16777216	; 0x1000000
     7a0:	89060023 	stmdbhi	r6, {r0, r1, r5}
     7a4:	0300000c 	movweq	r0, #12
     7a8:	00005362 	andeq	r5, r0, r2, ror #6
     7ac:	100b0400 	andne	r0, fp, r0, lsl #8
     7b0:	06002302 	streq	r2, [r0], -r2, lsl #6
     7b4:	0000060e 	andeq	r0, r0, lr, lsl #12
     7b8:	00536303 	subseq	r6, r3, r3, lsl #6
     7bc:	02040000 	andeq	r0, r4, #0
     7c0:	0023020e 	eoreq	r0, r3, lr, lsl #4
     7c4:	000a6106 	andeq	r6, sl, r6, lsl #2
     7c8:	53640300 	cmnpl	r4, #0
     7cc:	04000000 	streq	r0, [r0], #-0
     7d0:	23020806 	movwcs	r0, #10246	; 0x2806
     7d4:	05f30600 	ldrbeq	r0, [r3, #1536]!	; 0x600
     7d8:	65030000 	strvs	r0, [r3, #-0]
     7dc:	00000053 	andeq	r0, r0, r3, asr r0
     7e0:	02060204 	andeq	r0, r6, #1073741824	; 0x40000000
     7e4:	6b060023 	blvs	180878 <__bss_end+0x17d2c4>
     7e8:	0300000a 	movweq	r0, #10
     7ec:	00005366 	andeq	r5, r0, r6, ror #6
     7f0:	00060400 	andeq	r0, r6, r0, lsl #8
     7f4:	00002302 	andeq	r2, r0, r2, lsl #6
     7f8:	5d030407 	cfstrspl	mvf0, [r3, #-28]	; 0xffffffe4
     7fc:	00000306 	andeq	r0, r0, r6, lsl #6
     800:	0003aa08 	andeq	sl, r3, r8, lsl #20
     804:	535e0300 	cmppl	lr, #0
     808:	08000000 	stmdaeq	r0, {}	; <UNPREDICTABLE>
     80c:	00000859 	andeq	r0, r0, r9, asr r8
     810:	02786703 	rsbseq	r6, r8, #786432	; 0xc0000
     814:	03000000 	movweq	r0, #0
     818:	000008d2 	ldrdeq	r0, [r0], -r2
     81c:	02e76803 	rsceq	r6, r7, #196608	; 0x30000
     820:	b1090000 	mrslt	r0, (UNDEF: 9)
     824:	04000007 	streq	r0, [r0], #-7
     828:	03406a03 	movteq	r6, #2563	; 0xa03
     82c:	6a060000 	bvs	180834 <__bss_end+0x17d280>
     830:	0300000c 	movweq	r0, #12
     834:	0000536c 	andeq	r5, r0, ip, ror #6
     838:	10100400 	andsne	r0, r0, r0, lsl #8
     83c:	06002302 	streq	r2, [r0], -r2, lsl #6
     840:	00000c89 	andeq	r0, r0, r9, lsl #25
     844:	00536d03 	subseq	r6, r3, r3, lsl #26
     848:	10040000 	andne	r0, r4, r0
     84c:	00230200 	eoreq	r0, r3, r0, lsl #4
     850:	0b310300 	bleq	c41458 <__bss_end+0xc3dea4>
     854:	6e030000 	cdpvs	0, 0, cr0, cr3, cr0, {0}
     858:	00000311 	andeq	r0, r0, r1, lsl r3
     85c:	000d0c0a 	andeq	r0, sp, sl, lsl #24
     860:	0302dc00 	movweq	sp, #11264	; 0x2c00
     864:	000b2170 	andeq	r2, fp, r0, ror r1
     868:	07800b00 	streq	r0, [r0, r0, lsl #22]
     86c:	72030000 	andvc	r0, r3, #0
     870:	00000b21 	andeq	r0, r0, r1, lsr #22
     874:	0b002302 	bleq	9484 <__bss_end+0x5ed0>
     878:	00000794 	muleq	r0, r4, r7
     87c:	0b267303 	bleq	99d490 <__bss_end+0x999edc>
     880:	23020000 	movwcs	r0, #8192	; 0x2000
     884:	0d040b04 	vstreq	d0, [r4, #-16]
     888:	74030000 	strvc	r0, [r3], #-0
     88c:	00000b26 	andeq	r0, r0, r6, lsr #22
     890:	0b082302 	bleq	2094a0 <__bss_end+0x205eec>
     894:	00000a61 	andeq	r0, r0, r1, ror #20
     898:	0b267503 	bleq	99dcac <__bss_end+0x99a6f8>
     89c:	23020000 	movwcs	r0, #8192	; 0x2000
     8a0:	08c00b0c 	stmiaeq	r0, {r2, r3, r8, r9, fp}^
     8a4:	76030000 	strvc	r0, [r3], -r0
     8a8:	00000b26 	andeq	r0, r0, r6, lsr #22
     8ac:	0b102302 	bleq	4094bc <__bss_end+0x405f08>
     8b0:	00000a6b 	andeq	r0, r0, fp, ror #20
     8b4:	0b267703 	bleq	99e4c8 <__bss_end+0x99af14>
     8b8:	23020000 	movwcs	r0, #8192	; 0x2000
     8bc:	044a0b14 	strbeq	r0, [sl], #-2836	; 0xb14
     8c0:	78030000 	stmdavc	r3, {}	; <UNPREDICTABLE>
     8c4:	00000b26 	andeq	r0, r0, r6, lsr #22
     8c8:	0b182302 	bleq	6094d8 <__bss_end+0x605f24>
     8cc:	00000a75 	andeq	r0, r0, r5, ror sl
     8d0:	0b267903 	bleq	99ece4 <__bss_end+0x99b730>
     8d4:	23020000 	movwcs	r0, #8192	; 0x2000
     8d8:	0a070b1c 	beq	1c3550 <__bss_end+0x1bff9c>
     8dc:	7a030000 	bvc	c08e4 <__bss_end+0xbd330>
     8e0:	00000b26 	andeq	r0, r0, r6, lsr #22
     8e4:	0b202302 	bleq	8094f4 <__bss_end+0x805f40>
     8e8:	00000a7f 	andeq	r0, r0, pc, ror sl
     8ec:	0b267b03 	bleq	99f500 <__bss_end+0x99bf4c>
     8f0:	23020000 	movwcs	r0, #8192	; 0x2000
     8f4:	04020b24 	streq	r0, [r2], #-2852	; 0xb24
     8f8:	7c030000 	stcvc	0, cr0, [r3], {-0}
     8fc:	00000b26 	andeq	r0, r0, r6, lsr #22
     900:	0b282302 	bleq	a09510 <__bss_end+0xa05f5c>
     904:	00000a89 	andeq	r0, r0, r9, lsl #21
     908:	0b267d03 	bleq	99fd1c <__bss_end+0x99c768>
     90c:	23020000 	movwcs	r0, #8192	; 0x2000
     910:	09ef0b2c 	stmibeq	pc!, {r2, r3, r5, r8, r9, fp}^	; <UNPREDICTABLE>
     914:	7e030000 	cdpvc	0, 0, cr0, cr3, cr0, {0}
     918:	00000b26 	andeq	r0, r0, r6, lsr #22
     91c:	0b302302 	bleq	c0952c <__bss_end+0xc05f78>
     920:	00000a93 	muleq	r0, r3, sl
     924:	0b267f03 	bleq	9a0538 <__bss_end+0x99cf84>
     928:	23020000 	movwcs	r0, #8192	; 0x2000
     92c:	07a90b34 			; <UNDEFINED> instruction: 0x07a90b34
     930:	80030000 	andhi	r0, r3, r0
     934:	00000b26 	andeq	r0, r0, r6, lsr #22
     938:	0b382302 	bleq	e09548 <__bss_end+0xe05f94>
     93c:	00000a9d 	muleq	r0, sp, sl
     940:	0b268103 	bleq	9a0d54 <__bss_end+0x99d7a0>
     944:	23020000 	movwcs	r0, #8192	; 0x2000
     948:	0b1f0b3c 	bleq	7c3640 <__bss_end+0x7c008c>
     94c:	82030000 	andhi	r0, r3, #0
     950:	00000b26 	andeq	r0, r0, r6, lsr #22
     954:	0b402302 	bleq	1009564 <__bss_end+0x1005fb0>
     958:	00000d7f 	andeq	r0, r0, pc, ror sp
     95c:	0b268303 	bleq	9a1570 <__bss_end+0x99dfbc>
     960:	23020000 	movwcs	r0, #8192	; 0x2000
     964:	04410b44 	strbeq	r0, [r1], #-2884	; 0xb44
     968:	84030000 	strhi	r0, [r3], #-0
     96c:	00000b26 	andeq	r0, r0, r6, lsr #22
     970:	0b482302 	bleq	1209580 <__bss_end+0x1205fcc>
     974:	00000bc8 	andeq	r0, r0, r8, asr #23
     978:	0b268503 	bleq	9a1d8c <__bss_end+0x99e7d8>
     97c:	23020000 	movwcs	r0, #8192	; 0x2000
     980:	08c80b4c 	stmiaeq	r8, {r2, r3, r6, r8, r9, fp}^
     984:	86030000 	strhi	r0, [r3], -r0
     988:	00000b2b 	andeq	r0, r0, fp, lsr #22
     98c:	0b502302 	bleq	140959c <__bss_end+0x1405fe8>
     990:	000008ad 	andeq	r0, r0, sp, lsr #17
     994:	0b308703 	bleq	c225a8 <__bss_end+0xc1eff4>
     998:	23020000 	movwcs	r0, #8192	; 0x2000
     99c:	05830b54 	streq	r0, [r3, #2900]	; 0xb54
     9a0:	88030000 	stmdahi	r3, {}	; <UNPREDICTABLE>
     9a4:	00000b35 	andeq	r0, r0, r5, lsr fp
     9a8:	0b582302 	bleq	16095b8 <__bss_end+0x1606004>
     9ac:	00000a35 	andeq	r0, r0, r5, lsr sl
     9b0:	0b268903 	bleq	9a2dc4 <__bss_end+0x99f810>
     9b4:	23020000 	movwcs	r0, #8192	; 0x2000
     9b8:	0b160b5c 	bleq	583730 <__bss_end+0x58017c>
     9bc:	8a030000 	bhi	c09c4 <__bss_end+0xbd410>
     9c0:	00000b26 	andeq	r0, r0, r6, lsr #22
     9c4:	0b602302 	bleq	18095d4 <__bss_end+0x1806020>
     9c8:	0000073a 	andeq	r0, r0, sl, lsr r7
     9cc:	0b268b03 	bleq	9a35e0 <__bss_end+0x9a002c>
     9d0:	23020000 	movwcs	r0, #8192	; 0x2000
     9d4:	0c9c0b64 	vldmiaeq	ip, {d0-<overflow reg d49>}
     9d8:	8c030000 	stchi	0, cr0, [r3], {-0}
     9dc:	00000b26 	andeq	r0, r0, r6, lsr #22
     9e0:	0b682302 	bleq	1a095f0 <__bss_end+0x1a0603c>
     9e4:	00000947 	andeq	r0, r0, r7, asr #18
     9e8:	0b268d03 	bleq	9a3dfc <__bss_end+0x9a0848>
     9ec:	23020000 	movwcs	r0, #8192	; 0x2000
     9f0:	0aa70b6c 	beq	fe9c37a8 <__bss_end+0xfe9c01f4>
     9f4:	8e030000 	cdphi	0, 0, cr0, cr3, cr0, {0}
     9f8:	00000b4a 	andeq	r0, r0, sl, asr #22
     9fc:	0b702302 	bleq	1c0960c <__bss_end+0x1c06058>
     a00:	00000d75 	andeq	r0, r0, r5, ror sp
     a04:	0b268f03 	bleq	9a4618 <__bss_end+0x9a1064>
     a08:	23020000 	movwcs	r0, #8192	; 0x2000
     a0c:	03ee0b78 	mvneq	r0, #122880	; 0x1e000
     a10:	90030000 	andls	r0, r3, r0
     a14:	00000b26 	andeq	r0, r0, r6, lsr #22
     a18:	0b7c2302 	bleq	1f09628 <__bss_end+0x1f06074>
     a1c:	00000d42 	andeq	r0, r0, r2, asr #26
     a20:	0b269103 	bleq	9a4e34 <__bss_end+0x9a1880>
     a24:	23030000 	movwcs	r0, #12288	; 0x3000
     a28:	a50b0180 	strge	r0, [fp, #-384]	; 0x180
     a2c:	0300000c 	movweq	r0, #12
     a30:	000b2692 	muleq	fp, r2, r6
     a34:	84230300 	strthi	r0, [r3], #-768	; 0x300
     a38:	64530c01 	ldrbvs	r0, [r3], #-3073	; 0xc01
     a3c:	93030030 	movwls	r0, #12336	; 0x3030
     a40:	00000b26 	andeq	r0, r0, r6, lsr #22
     a44:	01882303 	orreq	r2, r8, r3, lsl #6
     a48:	3164530c 	cmncc	r4, ip, lsl #6
     a4c:	26940300 	ldrcs	r0, [r4], r0, lsl #6
     a50:	0300000b 	movweq	r0, #11
     a54:	0c018c23 	stceq	12, cr8, [r1], {35}	; 0x23
     a58:	00326453 	eorseq	r6, r2, r3, asr r4
     a5c:	0b269503 	bleq	9a5e70 <__bss_end+0x9a28bc>
     a60:	23030000 	movwcs	r0, #12288	; 0x3000
     a64:	b00b0190 	mullt	fp, r0, r1
     a68:	0300000c 	movweq	r0, #12
     a6c:	000b4f96 	muleq	fp, r6, pc	; <UNPREDICTABLE>
     a70:	94230300 	strtls	r0, [r3], #-768	; 0x300
     a74:	73530c01 	cmpvc	r3, #256	; 0x100
     a78:	26970300 	ldrcs	r0, [r7], r0, lsl #6
     a7c:	0300000b 	movweq	r0, #11
     a80:	0b019c23 	bleq	67b14 <__bss_end+0x64560>
     a84:	00000b0c 	andeq	r0, r0, ip, lsl #22
     a88:	0b269803 	bleq	9a6a9c <__bss_end+0x9a34e8>
     a8c:	23030000 	movwcs	r0, #12288	; 0x3000
     a90:	110b01a0 	smlatbne	fp, r0, r1, r0
     a94:	0300000b 	movweq	r0, #11
     a98:	000b2699 	muleq	fp, r9, r6
     a9c:	a4230300 	strtge	r0, [r3], #-768	; 0x300
     aa0:	0cbb0b01 	fldmiaxeq	fp!, {d0-d-1}	;@ Deprecated
     aa4:	9a030000 	bls	c0aac <__bss_end+0xbd4f8>
     aa8:	00000b54 	andeq	r0, r0, r4, asr fp
     aac:	01a82303 			; <UNDEFINED> instruction: 0x01a82303
     ab0:	0004320b 	andeq	r3, r4, fp, lsl #4
     ab4:	269b0300 	ldrcs	r0, [fp], r0, lsl #6
     ab8:	0300000b 	movweq	r0, #11
     abc:	0b01b023 	bleq	6cb50 <__bss_end+0x6959c>
     ac0:	00000437 	andeq	r0, r0, r7, lsr r4
     ac4:	0b269c03 	bleq	9a7ad8 <__bss_end+0x9a4524>
     ac8:	23030000 	movwcs	r0, #12288	; 0x3000
     acc:	3c0b01b4 	stfccs	f0, [fp], {180}	; 0xb4
     ad0:	03000004 	movweq	r0, #4
     ad4:	000b269d 	muleq	fp, sp, r6
     ad8:	b8230300 	stmdalt	r3!, {r8, r9}
     adc:	04f50b01 	ldrbteq	r0, [r5], #2817	; 0xb01
     ae0:	9e030000 	cdpls	0, 0, cr0, cr3, cr0, {0}
     ae4:	00000b26 	andeq	r0, r0, r6, lsr #22
     ae8:	01bc2303 			; <UNDEFINED> instruction: 0x01bc2303
     aec:	00093e0b 	andeq	r3, r9, fp, lsl #28
     af0:	269f0300 	ldrcs	r0, [pc], r0, lsl #6
     af4:	0300000b 	movweq	r0, #11
     af8:	0b01c023 	bleq	70b8c <__bss_end+0x6d5d8>
     afc:	0000088b 	andeq	r0, r0, fp, lsl #17
     b00:	0b59a003 	bleq	1668b14 <__bss_end+0x1665560>
     b04:	23030000 	movwcs	r0, #12288	; 0x3000
     b08:	550c01c4 	strpl	r0, [ip, #-452]	; 0x1c4
     b0c:	03006273 	movweq	r6, #627	; 0x273
     b10:	000b26a1 	andeq	r2, fp, r1, lsr #13
     b14:	cc230300 	stcgt	3, cr0, [r3], #-0
     b18:	0c390b01 	ldceq	11, cr0, [r9], #-4
     b1c:	a2030000 	andge	r0, r3, #0
     b20:	00000b26 	andeq	r0, r0, r6, lsr #22
     b24:	01d02303 	bicseq	r2, r0, r3, lsl #6
     b28:	0007c80b 	andeq	ip, r7, fp, lsl #16
     b2c:	6ea30300 	cdpvs	3, 10, cr0, cr3, cr0, {0}
     b30:	0300000b 	movweq	r0, #11
     b34:	0b01d423 	bleq	75bc8 <__bss_end+0x72614>
     b38:	00000cf8 	strdeq	r0, [r0], -r8
     b3c:	0b26a403 	bleq	9a9b50 <__bss_end+0x9a659c>
     b40:	23030000 	movwcs	r0, #12288	; 0x3000
     b44:	e40b01f0 	str	r0, [fp], #-496	; 0x1f0
     b48:	0300000b 	movweq	r0, #11
     b4c:	000b26a5 	andeq	r2, fp, r5, lsr #13
     b50:	f4230300 	vld2.8	{d0-d3}, [r3], r0
     b54:	0c730b01 	ldcleq	11, cr0, [r3], #-4
     b58:	a6030000 	strge	r0, [r3], -r0
     b5c:	00000b26 	andeq	r0, r0, r6, lsr #22
     b60:	01f82303 	mvnseq	r2, r3, lsl #6
     b64:	0009c00b 	andeq	ip, r9, fp
     b68:	26a70300 	strtcs	r0, [r7], r0, lsl #6
     b6c:	0300000b 	movweq	r0, #11
     b70:	0b01fc23 	bleq	7fc04 <__bss_end+0x7c650>
     b74:	00000991 	muleq	r0, r1, r9
     b78:	0b26a803 	bleq	9aab8c <__bss_end+0x9a75d8>
     b7c:	23030000 	movwcs	r0, #12288	; 0x3000
     b80:	880b0280 	stmdahi	fp, {r7, r9}
     b84:	03000007 	movweq	r0, #7
     b88:	000b26a9 	andeq	r2, fp, r9, lsr #13
     b8c:	84230300 	strthi	r0, [r3], #-768	; 0x300
     b90:	03860b02 	orreq	r0, r6, #2048	; 0x800
     b94:	aa030000 	bge	c0b9c <__bss_end+0xbd5e8>
     b98:	00000b26 	andeq	r0, r0, r6, lsr #22
     b9c:	02882303 	addeq	r2, r8, #201326592	; 0xc000000
     ba0:	0004dc0b 	andeq	sp, r4, fp, lsl #24
     ba4:	26ab0300 	strtcs	r0, [fp], r0, lsl #6
     ba8:	0300000b 	movweq	r0, #11
     bac:	0b028c23 	bleq	a3c40 <__bss_end+0xa068c>
     bb0:	00000392 	muleq	r0, r2, r3
     bb4:	0b26ac03 	bleq	9abbc8 <__bss_end+0x9a8614>
     bb8:	23030000 	movwcs	r0, #12288	; 0x3000
     bbc:	9e0b0290 	mcrls	2, 0, r0, cr11, cr0, {4}
     bc0:	03000003 	movweq	r0, #3
     bc4:	000b26ad 	andeq	r2, fp, sp, lsr #13
     bc8:	94230300 	strtls	r0, [r3], #-768	; 0x300
     bcc:	03de0b02 	bicseq	r0, lr, #2048	; 0x800
     bd0:	ae030000 	cdpge	0, 0, cr0, cr3, cr0, {0}
     bd4:	00000b26 	andeq	r0, r0, r6, lsr #22
     bd8:	02982303 	addseq	r2, r8, #201326592	; 0xc000000
     bdc:	0003e60b 	andeq	lr, r3, fp, lsl #12
     be0:	26af0300 	strtcs	r0, [pc], r0, lsl #6
     be4:	0300000b 	movweq	r0, #11
     be8:	0b029c23 	bleq	a7c7c <__bss_end+0xa46c8>
     bec:	000007d9 	ldrdeq	r0, [r0], -r9
     bf0:	0b83b003 	bleq	fe0ecc04 <__bss_end+0xfe0e9650>
     bf4:	23030000 	movwcs	r0, #12288	; 0x3000
     bf8:	3d0b02a0 	sfmcc	f0, 4, [fp, #-640]	; 0xfffffd80
     bfc:	0300000a 	movweq	r0, #10
     c00:	000b26b1 			; <UNDEFINED> instruction: 0x000b26b1
     c04:	b0230300 	eorlt	r0, r3, r0, lsl #6
     c08:	0ad60b02 	beq	ff583818 <__bss_end+0xff580264>
     c0c:	b2030000 	andlt	r0, r3, #0
     c10:	00000b26 	andeq	r0, r0, r6, lsr #22
     c14:	02b42303 	adcseq	r2, r4, #201326592	; 0xc000000
     c18:	00040a0b 	andeq	r0, r4, fp, lsl #20
     c1c:	26b30300 	ldrtcs	r0, [r3], r0, lsl #6
     c20:	0300000b 	movweq	r0, #11
     c24:	0c02b823 	stceq	8, cr11, [r2], {35}	; 0x23
     c28:	03006556 	movweq	r6, #1366	; 0x556
     c2c:	000b26b4 			; <UNDEFINED> instruction: 0x000b26b4
     c30:	bc230300 	stclt	3, cr0, [r3], #-0
     c34:	09840b02 	stmibeq	r4, {r1, r8, r9, fp}
     c38:	b5030000 	strlt	r0, [r3, #-0]
     c3c:	00000b26 	andeq	r0, r0, r6, lsr #22
     c40:	02c02303 	sbceq	r2, r0, #201326592	; 0xc000000
     c44:	7376410c 	cmnvc	r6, #3
     c48:	26b60300 	ldrtcs	r0, [r6], r0, lsl #6
     c4c:	0300000b 	movweq	r0, #11
     c50:	0b02c423 	bleq	b1ce4 <__bss_end+0xae730>
     c54:	00000416 	andeq	r0, r0, r6, lsl r4
     c58:	0b26b703 	bleq	9ae86c <__bss_end+0x9ab2b8>
     c5c:	23030000 	movwcs	r0, #12288	; 0x3000
     c60:	e40b02c8 	str	r0, [fp], #-712	; 0x2c8
     c64:	03000007 	movweq	r0, #7
     c68:	000b26b8 			; <UNDEFINED> instruction: 0x000b26b8
     c6c:	cc230300 	stcgt	3, cr0, [r3], #-0
     c70:	08960b02 	ldmeq	r6, {r1, r8, r9, fp}
     c74:	b9030000 	stmdblt	r3, {}	; <UNPREDICTABLE>
     c78:	00000b26 	andeq	r0, r0, r6, lsr #22
     c7c:	02d02303 	sbcseq	r2, r0, #201326592	; 0xc000000
     c80:	000b680b 	andeq	r6, fp, fp, lsl #16
     c84:	26ba0300 	ldrtcs	r0, [sl], r0, lsl #6
     c88:	0300000b 	movweq	r0, #11
     c8c:	0b02d423 	bleq	b5d20 <__bss_end+0xb276c>
     c90:	000004ba 			; <UNDEFINED> instruction: 0x000004ba
     c94:	0b26bb03 	bleq	9af8a8 <__bss_end+0x9ac2f4>
     c98:	23030000 	movwcs	r0, #12288	; 0x3000
     c9c:	040b02d8 	streq	r0, [fp], #-728	; 0x2d8
     ca0:	03000005 	movweq	r0, #5
     ca4:	000b26bc 			; <UNDEFINED> instruction: 0x000b26bc
     ca8:	dc230300 	stcle	3, cr0, [r3], #-0
     cac:	04c60b02 	strbeq	r0, [r6], #2818	; 0xb02
     cb0:	bd030000 	stclt	0, cr0, [r3, #-0]
     cb4:	00000b26 	andeq	r0, r0, r6, lsr #22
     cb8:	02e02303 	rsceq	r2, r0, #201326592	; 0xc000000
     cbc:	0007ef0b 	andeq	lr, r7, fp, lsl #30
     cc0:	26be0300 	ldrtcs	r0, [lr], r0, lsl #6
     cc4:	0300000b 	movweq	r0, #11
     cc8:	0b02e423 	bleq	b9d5c <__bss_end+0xb67a8>
     ccc:	00000ab6 			; <UNDEFINED> instruction: 0x00000ab6
     cd0:	0b26bf03 	bleq	9b08e4 <__bss_end+0x9ad330>
     cd4:	23030000 	movwcs	r0, #12288	; 0x3000
     cd8:	c20b02e8 	andgt	r0, fp, #-2147483634	; 0x8000000e
     cdc:	0300000a 	movweq	r0, #10
     ce0:	000b26c0 	andeq	r2, fp, r0, asr #13
     ce4:	ec230300 	stc	3, cr0, [r3], #-0
     ce8:	07fa0b02 	ldrbeq	r0, [sl, r2, lsl #22]!
     cec:	c1030000 	mrsgt	r0, (UNDEF: 3)
     cf0:	00000b88 	andeq	r0, r0, r8, lsl #23
     cf4:	02f02303 	rscseq	r2, r0, #201326592	; 0xc000000
     cf8:	000cc60b 	andeq	ip, ip, fp, lsl #12
     cfc:	26c20300 	strbcs	r0, [r2], r0, lsl #6
     d00:	0300000b 	movweq	r0, #11
     d04:	0b038023 	bleq	e0d98 <__bss_end+0xdd7e4>
     d08:	0000065b 	andeq	r0, r0, fp, asr r6
     d0c:	0b26c303 	bleq	9b1920 <__bss_end+0x9ae36c>
     d10:	23030000 	movwcs	r0, #12288	; 0x3000
     d14:	670b0384 	strvs	r0, [fp, -r4, lsl #7]
     d18:	03000006 	movweq	r0, #6
     d1c:	000b26c4 	andeq	r2, fp, r4, asr #13
     d20:	88230300 	stmdahi	r3!, {r8, r9}
     d24:	06730b03 	ldrbteq	r0, [r3], -r3, lsl #22
     d28:	c5030000 	strgt	r0, [r3, #-0]
     d2c:	00000b26 	andeq	r0, r0, r6, lsr #22
     d30:	038c2303 	orreq	r2, ip, #201326592	; 0xc000000
     d34:	0008050b 	andeq	r0, r8, fp, lsl #10
     d38:	8dc60300 	stclhi	3, cr0, [r6]
     d3c:	0300000b 	movweq	r0, #11
     d40:	0b039023 	bleq	e4dd4 <__bss_end+0xe1820>
     d44:	00000690 	muleq	r0, r0, r6
     d48:	0b26c703 	bleq	9b295c <__bss_end+0x9af3a8>
     d4c:	23030000 	movwcs	r0, #12288	; 0x3000
     d50:	fa0b03a0 	blx	2c1bd8 <__bss_end+0x2be624>
     d54:	03000005 	movweq	r0, #5
     d58:	000b26c8 	andeq	r2, fp, r8, asr #13
     d5c:	a4230300 	strtge	r0, [r3], #-768	; 0x300
     d60:	08ee0b03 	stmiaeq	lr!, {r0, r1, r8, r9, fp}^
     d64:	c9030000 	stmdbgt	r3, {}	; <UNPREDICTABLE>
     d68:	00000b26 	andeq	r0, r0, r6, lsr #22
     d6c:	03a82303 			; <UNDEFINED> instruction: 0x03a82303
     d70:	0006e50b 	andeq	lr, r6, fp, lsl #10
     d74:	26ca0300 	strbcs	r0, [sl], r0, lsl #6
     d78:	0300000b 	movweq	r0, #11
     d7c:	0b03ac23 	bleq	ebe10 <__bss_end+0xe885c>
     d80:	000006f1 	strdeq	r0, [r0], -r1
     d84:	0b26cb03 	bleq	9b3998 <__bss_end+0x9b03e4>
     d88:	23030000 	movwcs	r0, #12288	; 0x3000
     d8c:	b50b03b0 	strlt	r0, [fp, #-944]	; 0x3b0
     d90:	03000008 	movweq	r0, #8
     d94:	000ba2cc 	andeq	sl, fp, ip, asr #5
     d98:	b4230300 	strtlt	r0, [r3], #-768	; 0x300
     d9c:	03be0b03 			; <UNDEFINED> instruction: 0x03be0b03
     da0:	cd030000 	stcgt	0, cr0, [r3, #-0]
     da4:	00000b26 	andeq	r0, r0, r6, lsr #22
     da8:	03c02303 	biceq	r2, r0, #201326592	; 0xc000000
     dac:	00079d0b 	andeq	r9, r7, fp, lsl #26
     db0:	b7ce0300 	strblt	r0, [lr, r0, lsl #6]
     db4:	0300000b 	movweq	r0, #11
     db8:	0b03c423 	bleq	f1e4c <__bss_end+0xee898>
     dbc:	0000067f 	andeq	r0, r0, pc, ror r6
     dc0:	0bbccf03 	bleq	fef349d4 <__bss_end+0xfef31420>
     dc4:	23030000 	movwcs	r0, #12288	; 0x3000
     dc8:	640b0480 	strvs	r0, [fp], #-1152	; 0x480
     dcc:	03000009 	movweq	r0, #9
     dd0:	000b26d0 	ldrdeq	r2, [fp], -r0
     dd4:	84230300 	strthi	r0, [r3], #-768	; 0x300
     dd8:	0c7d0b04 	ldcleq	11, cr0, [sp], #-16
     ddc:	d1030000 	mrsle	r0, (UNDEF: 3)
     de0:	00000b26 	andeq	r0, r0, r6, lsr #22
     de4:	04882303 	streq	r2, [r8], #771	; 0x303
     de8:	000c450b 	andeq	r4, ip, fp, lsl #10
     dec:	26d20300 	ldrbcs	r0, [r2], r0, lsl #6
     df0:	0300000b 	movweq	r0, #11
     df4:	0b048c23 	bleq	123e88 <__bss_end+0x1208d4>
     df8:	00000593 	muleq	r0, r3, r5
     dfc:	0bc1d303 	bleq	ff075a10 <__bss_end+0xff07245c>
     e00:	23030000 	movwcs	r0, #12288	; 0x3000
     e04:	500b0490 	mulpl	fp, r0, r4
     e08:	03000008 	movweq	r0, #8
     e0c:	000bd6d5 	ldrdeq	sp, [fp], -r5
     e10:	a0230300 	eorge	r0, r3, r0, lsl #6
     e14:	04960b04 	ldreq	r0, [r6], #2820	; 0xb04
     e18:	d6030000 	strle	r0, [r3], -r0
     e1c:	00000b26 	andeq	r0, r0, r6, lsr #22
     e20:	04a42303 	strteq	r2, [r4], #771	; 0x303
     e24:	0003b00b 	andeq	fp, r3, fp
     e28:	26d70300 	ldrbcs	r0, [r7], r0, lsl #6
     e2c:	0300000b 	movweq	r0, #11
     e30:	0b04a823 	bleq	12aec4 <__bss_end+0x127910>
     e34:	00000874 	andeq	r0, r0, r4, ror r8
     e38:	0b26d803 	bleq	9b6e4c <__bss_end+0x9b3898>
     e3c:	23030000 	movwcs	r0, #12288	; 0x3000
     e40:	cd0b04ac 	cfstrsgt	mvf0, [fp, #-688]	; 0xfffffd50
     e44:	03000006 	movweq	r0, #6
     e48:	000b26d9 	ldrdeq	r2, [fp], -r9
     e4c:	b0230300 	eorlt	r0, r3, r0, lsl #6
     e50:	0b4a0b04 	bleq	1283a68 <__bss_end+0x12804b4>
     e54:	da030000 	ble	c0e5c <__bss_end+0xbd8a8>
     e58:	00000b26 	andeq	r0, r0, r6, lsr #22
     e5c:	04b42303 	ldrteq	r2, [r4], #771	; 0x303
     e60:	000d340b 	andeq	r3, sp, fp, lsl #8
     e64:	26db0300 	ldrbcs	r0, [fp], r0, lsl #6
     e68:	0300000b 	movweq	r0, #11
     e6c:	0b04b823 	bleq	12ef00 <__bss_end+0x12b94c>
     e70:	000005d5 	ldrdeq	r0, [r0], -r5
     e74:	0b26dc03 	bleq	9b7e88 <__bss_end+0x9b48d4>
     e78:	23030000 	movwcs	r0, #12288	; 0x3000
     e7c:	d80b04bc 	stmdale	fp, {r2, r3, r4, r5, r7, sl}
     e80:	03000006 	movweq	r0, #6
     e84:	000b26dd 	ldrdeq	r2, [fp], -sp
     e88:	c0230300 	eorgt	r0, r3, r0, lsl #6
     e8c:	04e90b04 	strbteq	r0, [r9], #2820	; 0xb04
     e90:	de030000 	cdple	0, 0, cr0, cr3, cr0, {0}
     e94:	00000b26 	andeq	r0, r0, r6, lsr #22
     e98:	04c42303 	strbeq	r2, [r4], #771	; 0x303
     e9c:	0009ae0b 	andeq	sl, r9, fp, lsl #28
     ea0:	26df0300 	ldrbcs	r0, [pc], r0, lsl #6
     ea4:	0300000b 	movweq	r0, #11
     ea8:	0b04c823 	bleq	132f3c <__bss_end+0x12f988>
     eac:	000009e1 	andeq	r0, r0, r1, ror #19
     eb0:	0b26e003 	bleq	9b8ec4 <__bss_end+0x9b5910>
     eb4:	23030000 	movwcs	r0, #12288	; 0x3000
     eb8:	fc0b04cc 	stc2	4, cr0, [fp], {204}	; 0xcc
     ebc:	03000004 	movweq	r0, #4
     ec0:	000b26e2 	andeq	r2, fp, r2, ror #13
     ec4:	d0230300 	eorle	r0, r3, r0, lsl #6
     ec8:	09a50b04 	stmibeq	r5!, {r2, r8, r9, fp}
     ecc:	e3030000 	movw	r0, #12288	; 0x3000
     ed0:	00000b26 	andeq	r0, r0, r6, lsr #22
     ed4:	04d42303 	ldrbeq	r2, [r4], #771	; 0x303
     ed8:	00059f0b 	andeq	r9, r5, fp, lsl #30
     edc:	dbe50300 	blle	ff941ae4 <__bss_end+0xff93e530>
     ee0:	0300000b 	movweq	r0, #11
     ee4:	0b04d823 	bleq	136f78 <__bss_end+0x1339c4>
     ee8:	000009fa 	strdeq	r0, [r0], -sl
     eec:	0b26e603 	bleq	9ba700 <__bss_end+0x9b714c>
     ef0:	23030000 	movwcs	r0, #12288	; 0x3000
     ef4:	ab0b04e0 	blge	2c227c <__bss_end+0x2becc8>
     ef8:	03000005 	movweq	r0, #5
     efc:	000be0e7 	andeq	lr, fp, r7, ror #1
     f00:	e4230300 	strt	r0, [r3], #-768	; 0x300
     f04:	055e0b04 	ldrbeq	r0, [lr, #-2820]	; 0xb04
     f08:	e8030000 	stmda	r3, {}	; <UNPREDICTABLE>
     f0c:	00000b26 	andeq	r0, r0, r6, lsr #22
     f10:	04f02303 	ldrbteq	r2, [r0], #771	; 0x303
     f14:	0005b70b 	andeq	fp, r5, fp, lsl #14
     f18:	e5e90300 	strb	r0, [r9, #768]!	; 0x300
     f1c:	0300000b 	movweq	r0, #11
     f20:	0b04f423 	bleq	13dfb4 <__bss_end+0x13aa00>
     f24:	0000091a 	andeq	r0, r0, sl, lsl r9
     f28:	0b26ea03 	bleq	9bb73c <__bss_end+0x9b8188>
     f2c:	23030000 	movwcs	r0, #12288	; 0x3000
     f30:	cd0b0580 	cfstr32gt	mvfx0, [fp, #-512]	; 0xfffffe00
     f34:	03000009 	movweq	r0, #9
     f38:	000b26ec 	andeq	r2, fp, ip, ror #13
     f3c:	84230300 	strthi	r0, [r3], #-768	; 0x300
     f40:	06a20b05 	strteq	r0, [r2], r5, lsl #22
     f44:	ed030000 	stc	0, cr0, [r3, #-0]
     f48:	00000b26 	andeq	r0, r0, r6, lsr #22
     f4c:	05882303 	streq	r2, [r8, #771]	; 0x303
     f50:	00096d0b 	andeq	r6, r9, fp, lsl #26
     f54:	26ee0300 	strbtcs	r0, [lr], r0, lsl #6
     f58:	0300000b 	movweq	r0, #11
     f5c:	0b058c23 	bleq	163ff0 <__bss_end+0x160a3c>
     f60:	00000b74 	andeq	r0, r0, r4, ror fp
     f64:	0b26ef03 	bleq	9bcb78 <__bss_end+0x9b95c4>
     f68:	23030000 	movwcs	r0, #12288	; 0x3000
     f6c:	c90b0590 	stmdbgt	fp, {r4, r7, r8, sl}
     f70:	03000005 	movweq	r0, #5
     f74:	000beaf0 	strdeq	lr, [fp], -r0
     f78:	94230300 	strtls	r0, [r3], #-768	; 0x300
     f7c:	09500b05 	ldmdbeq	r0, {r0, r2, r8, r9, fp}^
     f80:	f1030000 			; <UNDEFINED> instruction: 0xf1030000
     f84:	00000b26 	andeq	r0, r0, r6, lsr #22
     f88:	05a42303 	streq	r2, [r4, #771]!	; 0x303
     f8c:	000c550b 	andeq	r5, ip, fp, lsl #10
     f90:	26f20300 	ldrbtcs	r0, [r2], r0, lsl #6
     f94:	0300000b 	movweq	r0, #11
     f98:	0b05a823 	bleq	16b02c <__bss_end+0x167a78>
     f9c:	00000356 	andeq	r0, r0, r6, asr r3
     fa0:	0b26f303 	bleq	9bdbb4 <__bss_end+0x9ba600>
     fa4:	23030000 	movwcs	r0, #12288	; 0x3000
     fa8:	d20b05ac 	andle	r0, fp, #721420288	; 0x2b000000
     fac:	0300000b 	movweq	r0, #11
     fb0:	000b26f4 	strdeq	r2, [fp], -r4
     fb4:	b0230300 	eorlt	r0, r3, r0, lsl #6
     fb8:	03630b05 	cmneq	r3, #5120	; 0x1400
     fbc:	f5030000 			; <UNDEFINED> instruction: 0xf5030000
     fc0:	00000bef 	andeq	r0, r0, pc, ror #23
     fc4:	05b42303 	ldreq	r2, [r4, #771]!	; 0x303
     fc8:	0008fc0b 	andeq	pc, r8, fp, lsl #24
     fcc:	26f70300 	ldrbtcs	r0, [r7], r0, lsl #6
     fd0:	0300000b 	movweq	r0, #11
     fd4:	0b05c023 	bleq	171068 <__bss_end+0x16dab4>
     fd8:	00000906 	andeq	r0, r0, r6, lsl #18
     fdc:	0b26f803 	bleq	9beff0 <__bss_end+0x9bba3c>
     fe0:	23030000 	movwcs	r0, #12288	; 0x3000
     fe4:	100b05c4 	andne	r0, fp, r4, asr #11
     fe8:	03000009 	movweq	r0, #9
     fec:	000b26f9 	strdeq	r2, [fp], -r9
     ff0:	c8230300 	stmdagt	r3!, {r8, r9}
     ff4:	085e0b05 	ldmdaeq	lr, {r0, r2, r8, r9, fp}^
     ff8:	fa030000 	blx	c1000 <__bss_end+0xbda4c>
     ffc:	00000b26 	andeq	r0, r0, r6, lsr #22
    1000:	05cc2303 	strbeq	r2, [ip, #771]	; 0x303
    1004:	000a4d0b 	andeq	r4, sl, fp, lsl #26
    1008:	26fb0300 	ldrbtcs	r0, [fp], r0, lsl #6
    100c:	0300000b 	movweq	r0, #11
    1010:	0b05d023 	bleq	1750a4 <__bss_end+0x171af0>
    1014:	00000869 	andeq	r0, r0, r9, ror #16
    1018:	0b26fc03 	bleq	9c002c <__bss_end+0x9bca78>
    101c:	23030000 	movwcs	r0, #12288	; 0x3000
    1020:	2a0b05d4 	bcs	2c2778 <__bss_end+0x2bf1c4>
    1024:	03000006 	movweq	r0, #6
    1028:	000b26fd 	strdeq	r2, [fp], -sp
    102c:	d8230300 	stmdale	r3!, {r8, r9}
    1030:	230d0005 	movwcs	r0, #53253	; 0xd005
    1034:	0d000001 	stceq	0, cr0, [r0, #-4]
    1038:	00000053 	andeq	r0, r0, r3, asr r0
    103c:	0001de0d 	andeq	sp, r1, sp, lsl #28
    1040:	026d0d00 	rsbeq	r0, sp, #0
    1044:	060d0000 	streq	r0, [sp], -r0
    1048:	0e000003 	cdpeq	0, 0, cr0, cr0, cr3, {0}
    104c:	00000053 	andeq	r0, r0, r3, asr r0
    1050:	00000b4a 	andeq	r0, r0, sl, asr #22
    1054:	00005e0f 	andeq	r5, r0, pc, lsl #28
    1058:	0d000100 	stfeqs	f0, [r0, #-0]
    105c:	00000b3a 	andeq	r0, r0, sl, lsr fp
    1060:	000b3a0d 	andeq	r3, fp, sp, lsl #20
    1064:	0b3a0d00 	bleq	e8446c <__bss_end+0xe80eb8>
    1068:	3a0d0000 	bcc	341070 <__bss_end+0x33dabc>
    106c:	0e00000b 	cdpeq	0, 0, cr0, cr0, cr11, {0}
    1070:	00000053 	andeq	r0, r0, r3, asr r0
    1074:	00000b6e 	andeq	r0, r0, lr, ror #22
    1078:	00005e0f 	andeq	r5, r0, pc, lsl #28
    107c:	0d000600 	stceq	6, cr0, [r0, #-0]
    1080:	00000b5e 	andeq	r0, r0, lr, asr fp
    1084:	0000530e 	andeq	r5, r0, lr, lsl #6
    1088:	000b8300 	andeq	r8, fp, r0, lsl #6
    108c:	005e0f00 	subseq	r0, lr, r0, lsl #30
    1090:	00030000 	andeq	r0, r3, r0
    1094:	000b730d 	andeq	r7, fp, sp, lsl #6
    1098:	0b730d00 	bleq	1cc44a0 <__bss_end+0x1cc0eec>
    109c:	730d0000 	movwvc	r0, #53248	; 0xd000
    10a0:	0e00000b 	cdpeq	0, 0, cr0, cr0, cr11, {0}
    10a4:	00000053 	andeq	r0, r0, r3, asr r0
    10a8:	00000ba2 	andeq	r0, r0, r2, lsr #23
    10ac:	00005e0f 	andeq	r5, r0, pc, lsl #28
    10b0:	0d000200 	sfmeq	f0, 4, [r0, #-0]
    10b4:	00000b92 	muleq	r0, r2, fp
    10b8:	0000530e 	andeq	r5, r0, lr, lsl #6
    10bc:	000bb700 	andeq	fp, fp, r0, lsl #14
    10c0:	005e0f00 	subseq	r0, lr, r0, lsl #30
    10c4:	000e0000 	andeq	r0, lr, r0
    10c8:	000ba70d 	andeq	sl, fp, sp, lsl #14
    10cc:	03400d00 	movteq	r0, #3328	; 0xd00
    10d0:	730d0000 	movwvc	r0, #53248	; 0xd000
    10d4:	0e00000b 	cdpeq	0, 0, cr0, cr0, cr11, {0}
    10d8:	00000053 	andeq	r0, r0, r3, asr r0
    10dc:	00000bd6 	ldrdeq	r0, [r0], -r6
    10e0:	00005e0f 	andeq	r5, r0, pc, lsl #28
    10e4:	0d000000 	stceq	0, cr0, [r0, #-0]
    10e8:	00000bc6 	andeq	r0, r0, r6, asr #23
    10ec:	000b3a0d 	andeq	r3, fp, sp, lsl #20
    10f0:	0b920d00 	bleq	fe4844f8 <__bss_end+0xfe480f44>
    10f4:	920d0000 	andls	r0, sp, #0
    10f8:	0d00000b 	stceq	0, cr0, [r0, #-44]	; 0xffffffd4
    10fc:	00000b73 	andeq	r0, r0, r3, ror fp
    1100:	000b920d 	andeq	r9, fp, sp, lsl #4
    1104:	0b970300 	bleq	fe5c1d0c <__bss_end+0xfe5be758>
    1108:	fe030000 	cdp2	0, 0, cr0, cr3, cr0, {0}
    110c:	0000034b 	andeq	r0, r0, fp, asr #6
    1110:	0bf40410 	bleq	ffd02158 <__bss_end+0xffcfeba4>
    1114:	0f090000 	svceq	0x00090000
    1118:	0800000a 	stmdaeq	r0, {r1, r3}
    111c:	0c2e1804 	stceq	8, cr1, [lr], #-16
    1120:	fa0b0000 	blx	2c1128 <__bss_end+0x2bdb74>
    1124:	04000003 	streq	r0, [r0], #-3
    1128:	00005319 	andeq	r5, r0, r9, lsl r3
    112c:	00230200 	eoreq	r0, r3, r0, lsl #4
    1130:	0006340b 	andeq	r3, r6, fp, lsl #8
    1134:	531a0400 	tstpl	sl, #0
    1138:	02000000 	andeq	r0, r0, #0
    113c:	09000423 	stmdbeq	r0, {r0, r1, r5, sl}
    1140:	00000ba9 	andeq	r0, r0, r9, lsr #23
    1144:	0d1d043c 	cfldrseq	mvf0, [sp, #-240]	; 0xffffff10
    1148:	0b00000d 	bleq	1184 <__save_processor_state+0x244>
    114c:	00000c08 	andeq	r0, r0, r8, lsl #24
    1150:	00531e04 	subseq	r1, r3, r4, lsl #28
    1154:	23020000 	movwcs	r0, #8192	; 0x2000
    1158:	0bbe0b00 	bleq	fef83d60 <__bss_end+0xfef807ac>
    115c:	1f040000 	svcne	0x00040000
    1160:	00000053 	andeq	r0, r0, r3, asr r0
    1164:	0b042302 	bleq	109d74 <__bss_end+0x1067c0>
    1168:	00000687 	andeq	r0, r0, r7, lsl #13
    116c:	00532004 	subseq	r2, r3, r4
    1170:	23020000 	movwcs	r0, #8192	; 0x2000
    1174:	04ae0b08 	strteq	r0, [lr], #2824	; 0xb08
    1178:	2b040000 	blcs	101180 <__bss_end+0xfdbcc>
    117c:	00000053 	andeq	r0, r0, r3, asr r0
    1180:	0b0c2302 	bleq	309d90 <__bss_end+0x3067dc>
    1184:	000009a5 	andeq	r0, r0, r5, lsr #19
    1188:	00532c04 	subseq	r2, r3, r4, lsl #24
    118c:	23020000 	movwcs	r0, #8192	; 0x2000
    1190:	07940b10 			; <UNDEFINED> instruction: 0x07940b10
    1194:	2d040000 	stccs	0, cr0, [r4, #-0]
    1198:	00000053 	andeq	r0, r0, r3, asr r0
    119c:	0b142302 	bleq	509dac <__bss_end+0x5067f8>
    11a0:	000008c0 	andeq	r0, r0, r0, asr #17
    11a4:	00532e04 	subseq	r2, r3, r4, lsl #28
    11a8:	23020000 	movwcs	r0, #8192	; 0x2000
    11ac:	044a0b18 	strbeq	r0, [sl], #-2840	; 0xb18
    11b0:	2f040000 	svccs	0x00040000
    11b4:	00000053 	andeq	r0, r0, r3, asr r0
    11b8:	0b1c2302 	bleq	709dc8 <__bss_end+0x706814>
    11bc:	00000402 	andeq	r0, r0, r2, lsl #8
    11c0:	00533004 	subseq	r3, r3, r4
    11c4:	23020000 	movwcs	r0, #8192	; 0x2000
    11c8:	03b00b20 	movseq	r0, #32768	; 0x8000
    11cc:	31040000 	mrscc	r0, (UNDEF: 4)
    11d0:	00000053 	andeq	r0, r0, r3, asr r0
    11d4:	0b242302 	bleq	909de4 <__bss_end+0x906830>
    11d8:	00000874 	andeq	r0, r0, r4, ror r8
    11dc:	00533204 	subseq	r3, r3, r4, lsl #4
    11e0:	23020000 	movwcs	r0, #8192	; 0x2000
    11e4:	0b4a0b28 	bleq	1283e8c <__bss_end+0x12808d8>
    11e8:	33040000 	movwcc	r0, #16384	; 0x4000
    11ec:	00000053 	andeq	r0, r0, r3, asr r0
    11f0:	0b2c2302 	bleq	b09e00 <__bss_end+0xb0684c>
    11f4:	000006a2 	andeq	r0, r0, r2, lsr #13
    11f8:	00533404 	subseq	r3, r3, r4, lsl #8
    11fc:	23020000 	movwcs	r0, #8192	; 0x2000
    1200:	0c550b30 	vmoveq	r0, r5, d16
    1204:	35040000 	strcc	r0, [r4, #-0]
    1208:	00000053 	andeq	r0, r0, r3, asr r0
    120c:	0b342302 	bleq	d09e1c <__bss_end+0xd06868>
    1210:	00000583 	andeq	r0, r0, r3, lsl #11
    1214:	00533604 	subseq	r3, r3, r4, lsl #12
    1218:	23020000 	movwcs	r0, #8192	; 0x2000
    121c:	7e090038 	mcrvc	0, 0, r0, cr9, cr8, {1}
    1220:	08000008 	stmdaeq	r0, {r3}
    1224:	0d603b04 	vstmdbeq	r0!, {d19-d20}
    1228:	7b0b0000 	blvc	2c1230 <__bss_end+0x2bdc7c>
    122c:	04000005 	streq	r0, [r0], #-5
    1230:	00002c3c 	andeq	r2, r0, ip, lsr ip
    1234:	00230200 	eoreq	r0, r3, r0, lsl #4
    1238:	00056b0b 	andeq	r6, r5, fp, lsl #22
    123c:	2c3d0400 	cfldrscs	mvf0, [sp], #-0
    1240:	02000000 	andeq	r0, r0, #0
    1244:	730b0123 	movwvc	r0, #45347	; 0xb123
    1248:	04000005 	streq	r0, [r0], #-5
    124c:	00002c3e 	andeq	r2, r0, lr, lsr ip
    1250:	02230200 	eoreq	r0, r3, #0
    1254:	00058b0b 	andeq	r8, r5, fp, lsl #22
    1258:	2c3f0400 	cfldrscs	mvf0, [pc], #-0	; 1260 <__save_processor_state+0x320>
    125c:	02000000 	andeq	r0, r0, #0
    1260:	500c0323 	andpl	r0, ip, r3, lsr #6
    1264:	04006c6c 	streq	r6, [r0], #-3180	; 0xc6c
    1268:	00005340 	andeq	r5, r0, r0, asr #6
    126c:	04230200 	strteq	r0, [r3], #-512	; 0x200
    1270:	01471100 	mrseq	r1, (UNDEF: 87)
    1274:	06040000 	streq	r0, [r4], -r0
    1278:	000dcd89 	andeq	ip, sp, r9, lsl #27
    127c:	001e1200 	andseq	r1, lr, r0, lsl #4
    1280:	12000000 	andne	r0, r0, #0
    1284:	00000096 	muleq	r0, r6, r0
    1288:	00391201 	eorseq	r1, r9, r1, lsl #4
    128c:	12020000 	andne	r0, r2, #0
    1290:	00000073 	andeq	r0, r0, r3, ror r0
    1294:	018d1203 	orreq	r1, sp, r3, lsl #4
    1298:	12040000 	andne	r0, r4, #0
    129c:	0000010e 	andeq	r0, r0, lr, lsl #2
    12a0:	00f61205 	rscseq	r1, r6, r5, lsl #4
    12a4:	12060000 	andne	r0, r6, #0
    12a8:	00000131 	andeq	r0, r0, r1, lsr r1
    12ac:	00121207 	andseq	r1, r2, r7, lsl #4
    12b0:	12080000 	andne	r0, r8, #0
    12b4:	00000068 	andeq	r0, r0, r8, rrx
    12b8:	01031209 	tsteq	r3, r9, lsl #4
    12bc:	120a0000 	andne	r0, sl, #0
    12c0:	00000199 	muleq	r0, r9, r1
    12c4:	0141120b 	cmpeq	r1, fp, lsl #4
    12c8:	120c0000 	andne	r0, ip, #0
    12cc:	00000171 	andeq	r0, r0, r1, ror r1
    12d0:	021e120d 	andseq	r1, lr, #-805306368	; 0xd0000000
    12d4:	120e0000 	andne	r0, lr, #0
    12d8:	0000002b 	andeq	r0, r0, fp, lsr #32
    12dc:	0102000f 	tsteq	r2, pc
    12e0:	00008808 	andeq	r8, r0, r8, lsl #16
    12e4:	5e041000 	cdppl	0, 0, cr1, cr4, cr0, {0}
    12e8:	02000000 	andeq	r0, r0, #0
    12ec:	011f0704 	tsteq	pc, r4, lsl #14
    12f0:	04130000 	ldreq	r0, [r3], #-0
    12f4:	0e3f2805 	cdpeq	8, 3, cr2, cr15, cr5, {0}
    12f8:	5e120000 	cdppl	0, 1, cr0, cr2, cr0, {0}
    12fc:	01000007 	tsteq	r0, r7
    1300:	000d1c12 	andeq	r1, sp, r2, lsl ip
    1304:	52120200 	andspl	r0, r2, #0
    1308:	04000004 	streq	r0, [r0], #-4
    130c:	00052612 	andeq	r2, r5, r2, lsl r6
    1310:	40120800 	andsmi	r0, r2, r0, lsl #16
    1314:	10000006 	andne	r0, r0, r6
    1318:	000c1912 	andeq	r1, ip, r2, lsl r9
    131c:	0a122000 	beq	489324 <__bss_end+0x485d70>
    1320:	c0000005 	andgt	r0, r0, r5
    1324:	0d481200 	sfmeq	f1, 2, [r8, #-0]
    1328:	01800000 	orreq	r0, r0, r0
    132c:	000cd812 	andeq	sp, ip, r2, lsl r8
    1330:	12028000 	andne	r8, r2, #0
    1334:	00000ae4 	andeq	r0, r0, r4, ror #21
    1338:	43120480 	tstmi	r2, #-2147483648	; 0x80000000
    133c:	80000007 	andhi	r0, r0, r7
    1340:	0b581208 	bleq	1605b68 <__bss_end+0x16025b4>
    1344:	10800000 	addne	r0, r0, r0
    1348:	00053c12 	andeq	r3, r5, r2, lsl ip
    134c:	00208000 	eoreq	r8, r0, r0
    1350:	00042809 	andeq	r2, r4, r9, lsl #16
    1354:	4c052400 	cfstrsmi	mvf2, [r5], {-0}
    1358:	00000ec9 	andeq	r0, r0, r9, asr #29
    135c:	000cd30b 	andeq	sp, ip, fp, lsl #6
    1360:	534e0500 	movtpl	r0, #58624	; 0xe500
    1364:	02000000 	andeq	r0, r0, #0
    1368:	630c0023 	movwvs	r0, #49187	; 0xc023
    136c:	50050072 	andpl	r0, r5, r2, ror r0
    1370:	00000053 	andeq	r0, r0, r3, asr r0
    1374:	0b042302 	bleq	109f84 <__bss_end+0x1069d0>
    1378:	00000ab1 			; <UNDEFINED> instruction: 0x00000ab1
    137c:	00535105 	subseq	r5, r3, r5, lsl #2
    1380:	23020000 	movwcs	r0, #8192	; 0x2000
    1384:	0b050b08 	bleq	143fac <__bss_end+0x1409f8>
    1388:	53050000 	movwpl	r0, #20480	; 0x5000
    138c:	00000053 	andeq	r0, r0, r3, asr r0
    1390:	0b0c2302 	bleq	309fa0 <__bss_end+0x3069ec>
    1394:	00000c12 	andeq	r0, r0, r2, lsl ip
    1398:	00535405 	subseq	r5, r3, r5, lsl #8
    139c:	23020000 	movwcs	r0, #8192	; 0x2000
    13a0:	082a0b10 	stmdaeq	sl!, {r4, r8, r9, fp}
    13a4:	55050000 	strpl	r0, [r5, #-0]
    13a8:	00000053 	andeq	r0, r0, r3, asr r0
    13ac:	0b142302 	bleq	509fbc <__bss_end+0x506a08>
    13b0:	000006c8 	andeq	r0, r0, r8, asr #13
    13b4:	00535805 	subseq	r5, r3, r5, lsl #16
    13b8:	23020000 	movwcs	r0, #8192	; 0x2000
    13bc:	0d700b18 	vldmdbeq	r0!, {d16-d27}
    13c0:	5b050000 	blpl	1413c8 <__bss_end+0x13de14>
    13c4:	00000053 	andeq	r0, r0, r3, asr r0
    13c8:	0b1c2302 	bleq	709fd8 <__bss_end+0x706a24>
    13cc:	000006b7 			; <UNDEFINED> instruction: 0x000006b7
    13d0:	00535c05 	subseq	r5, r3, r5, lsl #24
    13d4:	23020000 	movwcs	r0, #8192	; 0x2000
    13d8:	64090020 	strvs	r0, [r9], #-32
    13dc:	e800000d 	stmda	r0, {r0, r2, r3}
    13e0:	0f8f6205 	svceq	0x008f6205
    13e4:	9e0b0000 	cdpls	0, 0, cr0, cr11, cr0, {0}
    13e8:	05000008 	streq	r0, [r0, #-8]
    13ec:	000f8f63 	andeq	r8, pc, r3, ror #30
    13f0:	00230200 	eoreq	r0, r3, r0, lsl #4
    13f4:	000e0b0b 	andeq	r0, lr, fp, lsl #22
    13f8:	26640500 	strbtcs	r0, [r4], -r0, lsl #10
    13fc:	0200000b 	andeq	r0, r0, #11
    1400:	690b0423 	stmdbvs	fp, {r0, r1, r5, sl}
    1404:	05000004 	streq	r0, [r0, #-4]
    1408:	00005365 	andeq	r5, r0, r5, ror #6
    140c:	08230200 	stmdaeq	r3!, {r9}
    1410:	00097a0b 	andeq	r7, r9, fp, lsl #20
    1414:	53660500 	cmnpl	r6, #0
    1418:	02000000 	andeq	r0, r0, #0
    141c:	b40b0c23 	strlt	r0, [fp], #-3107	; 0xc23
    1420:	0500000b 	streq	r0, [r0, #-11]
    1424:	00005367 	andeq	r5, r0, r7, ror #6
    1428:	10230200 	eorne	r0, r3, r0, lsl #4
    142c:	00037b0b 	andeq	r7, r3, fp, lsl #22
    1430:	53680500 	cmnpl	r8, #0
    1434:	02000000 	andeq	r0, r0, #0
    1438:	e00b1423 	and	r1, fp, r3, lsr #8
    143c:	05000005 	streq	r0, [r0, #-5]
    1440:	00005369 	andeq	r5, r0, r9, ror #6
    1444:	18230200 	stmdane	r3!, {r9}
    1448:	0003c40b 	andeq	ip, r3, fp, lsl #8
    144c:	976a0500 	strbls	r0, [sl, -r0, lsl #10]!
    1450:	0200000f 	andeq	r0, r0, #15
    1454:	010b1c23 	tsteq	fp, r3, lsr #24
    1458:	05000006 	streq	r0, [r0, #-6]
    145c:	000c056b 	andeq	r0, ip, fp, ror #10
    1460:	54230200 	strtpl	r0, [r3], #-512	; 0x200
    1464:	0008100b 	andeq	r1, r8, fp
    1468:	2e6c0500 	cdpcs	5, 6, cr0, cr12, cr0, {0}
    146c:	0200000c 	andeq	r0, r0, #12
    1470:	9e0b5c23 	cdpls	12, 0, cr5, cr11, cr3, {1}
    1474:	0500001e 	streq	r0, [r0, #-30]
    1478:	000d0d6d 	andeq	r0, sp, sp, ror #26
    147c:	98230300 	stmdals	r3!, {r8, r9}
    1480:	04220b01 	strteq	r0, [r2], #-2817	; 0xb01
    1484:	6e050000 	cdpvs	0, 0, cr0, cr5, cr0, {0}
    1488:	00000e3f 	andeq	r0, r0, pc, lsr lr
    148c:	01a02303 	lsleq	r2, r3, #6
    1490:	0006130b 	andeq	r1, r6, fp, lsl #6
    1494:	3f6f0500 	svccc	0x006f0500
    1498:	0300000e 	movweq	r0, #14
    149c:	0001c423 	andeq	ip, r1, r3, lsr #8
    14a0:	0f950410 	svceq	0x00950410
    14a4:	04140000 	ldreq	r0, [r4], #-0
    14a8:	0000530e 	andeq	r5, r0, lr, lsl #6
    14ac:	000fa700 	andeq	sl, pc, r0, lsl #14
    14b0:	005e0f00 	subseq	r0, lr, r0, lsl #30
    14b4:	000d0000 	andeq	r0, sp, r0
    14b8:	0fad0410 	svceq	0x00ad0410
    14bc:	01150000 	tsteq	r5, r0
    14c0:	0000004c 	andeq	r0, r0, ip, asr #32
    14c4:	08410116 	stmdaeq	r1, {r1, r2, r4, r8}^
    14c8:	33010000 	movwcc	r0, #4096	; 0x1000
    14cc:	00004c01 	andeq	r4, r0, r1, lsl #24
    14d0:	0000dc00 	andeq	sp, r0, r0, lsl #24
    14d4:	00021400 	andeq	r1, r2, r0, lsl #8
    14d8:	00006400 	andeq	r6, r0, r0, lsl #8
    14dc:	45011700 	strmi	r1, [r1, #-1792]	; 0x700
    14e0:	0100000a 	tsteq	r0, sl
    14e4:	0214017d 	andseq	r0, r4, #1073741855	; 0x4000001f
    14e8:	03800000 	orreq	r0, r0, #0
    14ec:	00840000 	addeq	r0, r4, r0
    14f0:	104c0000 	subne	r0, ip, r0
    14f4:	2a180000 	bcs	6014fc <__bss_end+0x5fdf48>
    14f8:	0100000b 	tsteq	r0, fp
    14fc:	000bff7f 	andeq	pc, fp, pc, ror pc	; <UNPREDICTABLE>
    1500:	0000a400 	andeq	sl, r0, r0, lsl #8
    1504:	08f51800 	ldmeq	r5!, {fp, ip}^
    1508:	80010000 	andhi	r0, r1, r0
    150c:	0000005e 	andeq	r0, r0, lr, asr r0
    1510:	000000cd 	andeq	r0, r0, sp, asr #1
    1514:	00037019 	andeq	r7, r3, r9, lsl r0
    1518:	5e810100 	rmfpls	f0, f1, f0
    151c:	00000000 	andeq	r0, r0, r0
    1520:	00092819 	andeq	r2, r9, r9, lsl r8
    1524:	5e820100 	rmfpls	f0, f2, f0
    1528:	00000000 	andeq	r0, r0, r0
    152c:	0004a319 	andeq	sl, r4, r9, lsl r3
    1530:	5e830100 	rmfpls	f0, f3, f0
    1534:	00000000 	andeq	r0, r0, r0
    1538:	000ace19 	andeq	ip, sl, r9, lsl lr
    153c:	5e840100 	rmfpls	f0, f4, f0
    1540:	00000000 	andeq	r0, r0, r0
    1544:	000adb19 	andeq	sp, sl, r9, lsl fp
    1548:	5e850100 	rmfpls	f0, f5, f0
    154c:	00000000 	andeq	r0, r0, r0
    1550:	0005c319 	andeq	ip, r5, r9, lsl r3
    1554:	5e860100 	rmfpls	f0, f6, f0
    1558:	00000000 	andeq	r0, r0, r0
    155c:	07d31a00 	ldrbeq	r1, [r3, r0, lsl #20]
    1560:	0f010000 	svceq	0x00010000
    1564:	0000004c 	andeq	r0, r0, ip, asr #32
    1568:	0008241a 	andeq	r2, r8, sl, lsl r4
    156c:	4c0f0100 	stfmis	f0, [pc], {-0}
    1570:	1a000000 	bne	1578 <__restore_processor_state+0x234>
    1574:	00000d87 	andeq	r0, r0, r7, lsl #27
    1578:	005e1001 	subseq	r1, lr, r1
    157c:	821b0000 	andshi	r0, fp, #0
    1580:	0100000b 	tsteq	r0, fp
    1584:	000dd411 	andeq	sp, sp, r1, lsl r4
    1588:	a4030500 	strge	r0, [r3], #-1280	; 0x500
    158c:	19000031 	stmdbne	r0, {r0, r4, r5}
    1590:	00000f13 	andeq	r0, r0, r3, lsl pc
    1594:	005e1201 	subseq	r1, lr, r1, lsl #4
    1598:	1c000000 	stcne	0, cr0, [r0], {-0}
    159c:	00000b89 	andeq	r0, r0, r9, lsl #23
    15a0:	0ec90601 	cdpeq	6, 12, cr0, cr9, cr1, {0}
    15a4:	05010000 	streq	r0, [r1, #-0]
    15a8:	0033b003 	eorseq	fp, r3, r3
    15ac:	06bc1d00 	ldrteq	r1, [ip], r0, lsl #26
    15b0:	08010000 	stmdaeq	r1, {}	; <UNPREDICTABLE>
    15b4:	000010a9 	andeq	r1, r0, r9, lsr #1
    15b8:	04100101 	ldreq	r0, [r0], #-257	; 0x101
    15bc:	00000dcd 	andeq	r0, r0, sp, asr #27
    15c0:	0004d21d 	andeq	sp, r4, sp, lsl r2
    15c4:	a9090100 	stmdbge	r9, {r8}
    15c8:	01000010 	tsteq	r0, r0, lsl r0
    15cc:	09331c01 	ldmdbeq	r3!, {r0, sl, fp, ip}
    15d0:	0e010000 	cdpeq	0, 0, cr0, cr1, cr0, {0}
    15d4:	00000fa7 	andeq	r0, r0, r7, lsr #31
    15d8:	98030501 	stmdals	r3, {r0, r8, sl}
    15dc:	00000034 	andeq	r0, r0, r4, lsr r0
    15e0:	000003dd 	ldrdeq	r0, [r0], -sp
    15e4:	03820002 	orreq	r0, r2, #2
    15e8:	01040000 	mrseq	r0, (UNDEF: 4)
    15ec:	00000046 	andeq	r0, r0, r6, asr #32
    15f0:	000e3001 	andeq	r3, lr, r1
    15f4:	00015d00 	andeq	r5, r1, r0, lsl #26
    15f8:	00038000 	andeq	r8, r3, r0
    15fc:	0006f800 	andeq	pc, r6, r0, lsl #16
    1600:	00041600 	andeq	r1, r4, r0, lsl #12
    1604:	06010200 	streq	r0, [r1], -r0, lsl #4
    1608:	00000081 	andeq	r0, r0, r1, lsl #1
    160c:	7f080102 	svcvc	0x00080102
    1610:	02000000 	andeq	r0, r0, #0
    1614:	01a40502 			; <UNDEFINED> instruction: 0x01a40502
    1618:	02020000 	andeq	r0, r2, #0
    161c:	0000a307 	andeq	sl, r0, r7, lsl #6
    1620:	05040300 	streq	r0, [r4, #-768]	; 0x300
    1624:	00746e69 	rsbseq	r6, r4, r9, ror #28
    1628:	00083004 	andeq	r3, r8, r4
    162c:	53130300 	tstpl	r3, #0
    1630:	02000000 	andeq	r0, r0, #0
    1634:	01240704 	teqeq	r4, r4, lsl #14
    1638:	08020000 	stmdaeq	r2, {}	; <UNPREDICTABLE>
    163c:	00017f05 	andeq	r7, r1, r5, lsl #30
    1640:	07080200 	streq	r0, [r8, -r0, lsl #4]
    1644:	0000011a 	andeq	r0, r0, sl, lsl r1
    1648:	000eec05 	andeq	lr, lr, r5, lsl #24
    164c:	1d020400 	cfstrsne	mvf0, [r2, #-0]
    1650:	000000ca 	andeq	r0, r0, sl, asr #1
    1654:	000de806 	andeq	lr, sp, r6, lsl #16
    1658:	481f0200 	ldmdami	pc, {r9}	; <UNPREDICTABLE>
    165c:	04000000 	streq	r0, [r0], #-0
    1660:	23021808 	movwcs	r1, #10248	; 0x2808
    1664:	0e900600 	cdpeq	6, 9, cr0, cr0, cr0, {0}
    1668:	20020000 	andcs	r0, r2, r0
    166c:	00000048 	andeq	r0, r0, r8, asr #32
    1670:	02100804 	andseq	r0, r0, #262144	; 0x40000
    1674:	91060023 	tstls	r6, r3, lsr #32
    1678:	0200000d 	andeq	r0, r0, #13
    167c:	00004821 	andeq	r4, r0, r1, lsr #16
    1680:	0e020400 	cfcpyseq	mvf0, mvf2
    1684:	06002302 	streq	r2, [r0], -r2, lsl #6
    1688:	00000c89 	andeq	r0, r0, r9, lsl #25
    168c:	00482202 	subeq	r2, r8, r2, lsl #4
    1690:	0d040000 	stceq	0, cr0, [r4, #-0]
    1694:	00230201 	eoreq	r0, r3, r1, lsl #4
    1698:	000f3006 	andeq	r3, pc, r6
    169c:	48230200 	stmdami	r3!, {r9}
    16a0:	04000000 	streq	r0, [r0], #-0
    16a4:	23020001 	movwcs	r0, #8193	; 0x2001
    16a8:	04070000 	streq	r0, [r7], #-0
    16ac:	00e91b02 	rsceq	r1, r9, r2, lsl #22
    16b0:	aa080000 	bge	2016b8 <__bss_end+0x1fe104>
    16b4:	02000003 	andeq	r0, r0, #3
    16b8:	0000481c 	andeq	r4, r0, ip, lsl r8
    16bc:	08590800 	ldmdaeq	r9, {fp}^
    16c0:	26020000 	strcs	r0, [r2], -r0
    16c4:	00000068 	andeq	r0, r0, r8, rrx
    16c8:	0f1a0400 	svceq	0x001a0400
    16cc:	27020000 	strcs	r0, [r2, -r0]
    16d0:	000000ca 	andeq	r0, r0, sl, asr #1
    16d4:	00004809 	andeq	r4, r0, r9, lsl #16
    16d8:	01470a00 	cmpeq	r7, r0, lsl #20
    16dc:	04040000 	streq	r0, [r4], #-0
    16e0:	00016689 	andeq	r6, r1, r9, lsl #13
    16e4:	001e0b00 	andseq	r0, lr, r0, lsl #22
    16e8:	0b000000 	bleq	16f0 <set_serial_gpio>
    16ec:	00000096 	muleq	r0, r6, r0
    16f0:	00390b01 	eorseq	r0, r9, r1, lsl #22
    16f4:	0b020000 	bleq	816fc <__bss_end+0x7e148>
    16f8:	00000073 	andeq	r0, r0, r3, ror r0
    16fc:	018d0b03 	orreq	r0, sp, r3, lsl #22
    1700:	0b040000 	bleq	101708 <__bss_end+0xfe154>
    1704:	0000010e 	andeq	r0, r0, lr, lsl #2
    1708:	00f60b05 	rscseq	r0, r6, r5, lsl #22
    170c:	0b060000 	bleq	181714 <__bss_end+0x17e160>
    1710:	00000131 	andeq	r0, r0, r1, lsr r1
    1714:	00120b07 	andseq	r0, r2, r7, lsl #22
    1718:	0b080000 	bleq	201720 <__bss_end+0x1fe16c>
    171c:	00000068 	andeq	r0, r0, r8, rrx
    1720:	01030b09 	tsteq	r3, r9, lsl #22
    1724:	0b0a0000 	bleq	28172c <__bss_end+0x27e178>
    1728:	00000199 	muleq	r0, r9, r1
    172c:	01410b0b 	cmpeq	r1, fp, lsl #22
    1730:	0b0c0000 	bleq	301738 <__bss_end+0x2fe184>
    1734:	00000171 	andeq	r0, r0, r1, ror r1
    1738:	021e0b0d 	andseq	r0, lr, #13312	; 0x3400
    173c:	0b0e0000 	bleq	381744 <__bss_end+0x37e190>
    1740:	0000002b 	andeq	r0, r0, fp, lsr #32
    1744:	0102000f 	tsteq	r2, pc
    1748:	00008808 	andeq	r8, r0, r8, lsl #16
    174c:	07040200 	streq	r0, [r4, -r0, lsl #4]
    1750:	0000011f 	andeq	r0, r0, pc, lsl r1
    1754:	0efd010c 	cdpeq	1, 15, cr0, cr13, cr12, {0}
    1758:	0b010000 	bleq	41760 <__bss_end+0x3e1ac>
    175c:	00038001 	andeq	r8, r3, r1
    1760:	0003a000 	andeq	sl, r3, r0
    1764:	00011200 	andeq	r1, r1, r0, lsl #4
    1768:	00019c00 	andeq	r9, r1, r0, lsl #24
    176c:	0da60d00 	stceq	13, cr0, [r6]
    1770:	0e010000 	cdpeq	0, 0, cr0, cr1, cr0, {0}
    1774:	000000f4 	strdeq	r0, [r0], -r4
    1778:	00749102 	rsbseq	r9, r4, r2, lsl #2
    177c:	0e06010e 	adfeqs	f0, f6, #0.5
    1780:	19010000 	stmdbne	r1, {}	; <UNPREDICTABLE>
    1784:	0003a001 	andeq	sl, r3, r1
    1788:	0003a400 	andeq	sl, r3, r0, lsl #8
    178c:	007d0200 	rsbseq	r0, sp, r0, lsl #4
    1790:	0ebf010e 	frdeqe	f0, f7, #0.5
    1794:	29010000 	stmdbcs	r1, {}	; <UNPREDICTABLE>
    1798:	0003a401 	andeq	sl, r3, r1, lsl #8
    179c:	0003a800 	andeq	sl, r3, r0, lsl #16
    17a0:	007d0200 	rsbseq	r0, sp, r0, lsl #4
    17a4:	0e65010e 	poweqs	f0, f5, #0.5
    17a8:	38010000 	stmdacc	r1, {}	; <UNPREDICTABLE>
    17ac:	0003a801 	andeq	sl, r3, r1, lsl #16
    17b0:	0003cc00 	andeq	ip, r3, r0, lsl #24
    17b4:	007d0200 	rsbseq	r0, sp, r0, lsl #4
    17b8:	0df0010e 	ldfeqe	f0, [r0, #56]!	; 0x38
    17bc:	41010000 	mrsmi	r0, (UNDEF: 1)
    17c0:	0003cc01 	andeq	ip, r3, r1, lsl #24
    17c4:	0003f000 	andeq	pc, r3, r0
    17c8:	007d0200 	rsbseq	r0, sp, r0, lsl #4
    17cc:	0e14010c 	mufeqs	f0, f4, #4.0
    17d0:	4a010000 	bmi	417d8 <__bss_end+0x3e224>
    17d4:	0003f001 	andeq	pc, r3, r1
    17d8:	00048400 	andeq	r8, r4, r0, lsl #8
    17dc:	00013200 	andeq	r3, r1, r0, lsl #4
    17e0:	00021300 	andeq	r1, r2, r0, lsl #6
    17e4:	00690f00 	rsbeq	r0, r9, r0, lsl #30
    17e8:	00414c01 	subeq	r4, r1, r1, lsl #24
    17ec:	01520000 	cmpeq	r2, r0
    17f0:	0e000000 	cdpeq	0, 0, cr0, cr0, cr0, {0}
    17f4:	000ece01 	andeq	ip, lr, r1, lsl #28
    17f8:	01600100 	cmneq	r0, r0, lsl #2
    17fc:	00000484 	andeq	r0, r0, r4, lsl #9
    1800:	00000488 	andeq	r0, r0, r8, lsl #9
    1804:	0c007d02 	stceq	13, cr7, [r0], {2}
    1808:	000f0a01 	andeq	r0, pc, r1, lsl #20
    180c:	01650100 	cmneq	r5, r0, lsl #2
    1810:	00000488 	andeq	r0, r0, r8, lsl #9
    1814:	0000051c 	andeq	r0, r0, ip, lsl r5
    1818:	00000166 	andeq	r0, r0, r6, ror #2
    181c:	00000250 	andeq	r0, r0, r0, asr r2
    1820:	6c617610 	stclvs	6, cr7, [r1], #-64	; 0xffffffc0
    1824:	f4650100 	vld4.8	{d16,d18,d20,d22}, [r5], r0
    1828:	92000000 	andls	r0, r0, #0
    182c:	00000001 	andeq	r0, r0, r1
    1830:	0e750111 	mrceq	1, 3, r0, cr5, cr1, {0}
    1834:	79010000 	stmdbvc	r1, {}	; <UNPREDICTABLE>
    1838:	00004801 	andeq	r4, r0, r1, lsl #16
    183c:	00051c00 	andeq	r1, r5, r0, lsl #24
    1840:	00057000 	andeq	r7, r5, r0
    1844:	0001b100 	andeq	fp, r1, r0, lsl #2
    1848:	00027d00 	andeq	r7, r2, r0, lsl #26
    184c:	61760f00 	cmnvs	r6, r0, lsl #30
    1850:	7b01006c 	blvc	41a08 <__bss_end+0x3e454>
    1854:	00000041 	andeq	r0, r0, r1, asr #32
    1858:	000001d1 	ldrdeq	r0, [r0], -r1
    185c:	98010c00 	stmdals	r1, {sl, fp}
    1860:	0100000e 	tsteq	r0, lr
    1864:	05700189 	ldrbeq	r0, [r0, #-393]!	; 0x189
    1868:	05e80000 	strbeq	r0, [r8, #0]!
    186c:	01fb0000 	mvnseq	r0, r0
    1870:	02b30000 	adcseq	r0, r3, #0
    1874:	690f0000 	stmdbvs	pc, {}	; <UNPREDICTABLE>
    1878:	418b0100 	orrmi	r0, fp, r0, lsl #2
    187c:	1b000000 	blne	1884 <serial_init_nommu>
    1880:	0f000002 	svceq	0x00000002
    1884:	006c6176 	rsbeq	r6, ip, r6, ror r1
    1888:	00418c01 	subeq	r8, r1, r1, lsl #24
    188c:	023a0000 	eorseq	r0, sl, #0
    1890:	0c000000 	stceq	0, cr0, [r0], {-0}
    1894:	000dca01 	andeq	ip, sp, r1, lsl #20
    1898:	019f0100 	orrseq	r0, pc, r0, lsl #2
    189c:	000005e8 	andeq	r0, r0, r8, ror #11
    18a0:	0000067c 	andeq	r0, r0, ip, ror r6
    18a4:	00000264 	andeq	r0, r0, r4, ror #4
    18a8:	000002dc 	ldrdeq	r0, [r0], -ip
    18ac:	6c617610 	stclvs	6, cr7, [r1], #-64	; 0xffffffc0
    18b0:	f49f0100 			; <UNDEFINED> instruction: 0xf49f0100
    18b4:	90000000 	andls	r0, r0, r0
    18b8:	00000002 	andeq	r0, r0, r2
    18bc:	0e5d010e 	rdfeqe	f0, f5, #0.5
    18c0:	f7010000 			; <UNDEFINED> instruction: 0xf7010000
    18c4:	00067c01 	andeq	r7, r6, r1, lsl #24
    18c8:	00069400 	andeq	r9, r6, r0, lsl #8
    18cc:	007d0200 	rsbseq	r0, sp, r0, lsl #4
    18d0:	0d990112 	ldfeqs	f0, [r9, #72]	; 0x48
    18d4:	ff010000 			; <UNDEFINED> instruction: 0xff010000
    18d8:	00069401 	andeq	r9, r6, r1, lsl #8
    18dc:	0006ac00 	andeq	sl, r6, r0, lsl #24
    18e0:	007d0200 	rsbseq	r0, sp, r0, lsl #4
    18e4:	00000317 	andeq	r0, r0, r7, lsl r3
    18e8:	000ea813 	andeq	sl, lr, r3, lsl r8
    18ec:	01010100 	mrseq	r0, (UNDEF: 17)
    18f0:	00000048 	andeq	r0, r0, r8, asr #32
    18f4:	14005201 	strne	r5, [r0], #-513	; 0x201
    18f8:	000e8401 	andeq	r8, lr, r1, lsl #8
    18fc:	010b0100 	mrseq	r0, (UNDEF: 27)
    1900:	0006ac01 	andeq	sl, r6, r1, lsl #24
    1904:	0006c400 	andeq	ip, r6, r0, lsl #8
    1908:	007d0200 	rsbseq	r0, sp, r0, lsl #4
    190c:	0000033f 	andeq	r0, r0, pc, lsr r3
    1910:	000ea813 	andeq	sl, lr, r3, lsl r8
    1914:	010d0100 	mrseq	r0, (UNDEF: 29)
    1918:	00000048 	andeq	r0, r0, r8, asr #32
    191c:	15005201 	strne	r5, [r0, #-513]	; 0x201
    1920:	000de001 	andeq	lr, sp, r1
    1924:	011a0100 	tsteq	sl, r0, lsl #2
    1928:	0006c401 	andeq	ip, r6, r1, lsl #8
    192c:	0006f800 	andeq	pc, r6, r0, lsl #16
    1930:	0002af00 	andeq	sl, r2, r0, lsl #30
    1934:	00037a00 	andeq	r7, r3, r0, lsl #20
    1938:	756e1600 	strbvc	r1, [lr, #-1536]!	; 0x600
    193c:	1a01006d 	bne	41af8 <__bss_end+0x3e544>
    1940:	00004101 	andeq	r4, r0, r1, lsl #2
    1944:	0002cf00 	andeq	ip, r2, r0, lsl #30
    1948:	0ea81700 	cdpeq	7, 10, cr1, cr8, cr0, {0}
    194c:	1c010000 	stcne	0, cr0, [r1], {-0}
    1950:	00004801 	andeq	r4, r0, r1, lsl #16
    1954:	0002e200 	andeq	lr, r2, r0, lsl #4
    1958:	b00d0000 	andlt	r0, sp, r0
    195c:	0100000d 	tsteq	r0, sp
    1960:	00038b34 	andeq	r8, r3, r4, lsr fp
    1964:	a8030500 	stmdage	r3, {r8, sl}
    1968:	18000031 	stmdane	r0, {r0, r4, r5}
    196c:	00039104 	andeq	r9, r3, r4, lsl #2
    1970:	00e90900 	rsceq	r0, r9, r0, lsl #18
    1974:	bb0d0000 	bllt	34197c <__bss_end+0x33e3c8>
    1978:	0100000d 	tsteq	r0, sp
    197c:	0000e935 	andeq	lr, r0, r5, lsr r9
    1980:	b0030500 	andlt	r0, r3, r0, lsl #10
    1984:	0d000031 	stceq	0, cr0, [r0, #-196]	; 0xffffff3c
    1988:	00000ede 	ldrdeq	r0, [r0], -lr
    198c:	038b3601 	orreq	r3, fp, #1048576	; 0x100000
    1990:	03050000 	movweq	r0, #20480	; 0x5000
    1994:	000031ac 	andeq	r3, r0, ip, lsr #3
    1998:	000ead0d 	andeq	sl, lr, sp, lsl #26
    199c:	e9370100 	ldmdb	r7!, {r8}
    19a0:	05000000 	streq	r0, [r0, #-0]
    19a4:	0031b403 	eorseq	fp, r1, r3, lsl #8
    19a8:	0e251900 	cdpeq	9, 2, cr1, cr5, cr0, {0}
    19ac:	09010000 	stmdbeq	r1, {}	; <UNPREDICTABLE>
    19b0:	000003db 	ldrdeq	r0, [r0], -fp
    19b4:	b8030501 	stmdalt	r3, {r0, r8, sl}
    19b8:	09000031 	stmdbeq	r0, {r0, r4, r5}
    19bc:	00000041 	andeq	r0, r0, r1, asr #32
    19c0:	0004f600 	andeq	pc, r4, r0, lsl #12
    19c4:	14000200 	strne	r0, [r0], #-512	; 0x200
    19c8:	04000005 	streq	r0, [r0], #-5
    19cc:	00004601 	andeq	r4, r0, r1, lsl #12
    19d0:	10490100 	subne	r0, r9, r0, lsl #2
    19d4:	015d0000 	cmpeq	sp, r0
    19d8:	06f80000 	ldrbteq	r0, [r8], r0
    19dc:	08f80000 	ldmeq	r8!, {}^	; <UNPREDICTABLE>
    19e0:	05630000 	strbeq	r0, [r3, #-0]!
    19e4:	01020000 	mrseq	r0, (UNDEF: 2)
    19e8:	00008106 	andeq	r8, r0, r6, lsl #2
    19ec:	08010200 	stmdaeq	r1, {r9}
    19f0:	0000007f 	andeq	r0, r0, pc, ror r0
    19f4:	a4050202 	strge	r0, [r5], #-514	; 0x202
    19f8:	02000001 	andeq	r0, r0, #1
    19fc:	00a30702 	adceq	r0, r3, r2, lsl #14
    1a00:	17030000 	strne	r0, [r3, -r0]
    1a04:	02000010 	andeq	r0, r0, #16
    1a08:	00004c12 	andeq	r4, r0, r2, lsl ip
    1a0c:	05040400 	streq	r0, [r4, #-1024]	; 0x400
    1a10:	00746e69 	rsbseq	r6, r4, r9, ror #28
    1a14:	00083003 	andeq	r3, r8, r3
    1a18:	5e130200 	cdppl	2, 1, cr0, cr3, cr0, {0}
    1a1c:	02000000 	andeq	r0, r0, #0
    1a20:	01240704 	teqeq	r4, r4, lsl #14
    1a24:	08020000 	stmdaeq	r2, {}	; <UNPREDICTABLE>
    1a28:	00017f05 	andeq	r7, r1, r5, lsl #30
    1a2c:	07080200 	streq	r0, [r8, -r0, lsl #4]
    1a30:	0000011a 	andeq	r0, r0, sl, lsl r1
    1a34:	0010cb05 	andseq	ip, r0, r5, lsl #22
    1a38:	14030400 	strne	r0, [r3], #-1024	; 0x400
    1a3c:	00000098 	muleq	r0, r8, r0
    1a40:	000fdc06 	andeq	sp, pc, r6, lsl #24
    1a44:	ee060100 	adfs	f0, f6, f0
    1a48:	02000010 	andeq	r0, r0, #16
    1a4c:	00107806 	andseq	r7, r0, r6, lsl #16
    1a50:	f9060300 			; <UNDEFINED> instruction: 0xf9060300
    1a54:	0500000f 	streq	r0, [r0, #-15]
    1a58:	01470500 	cmpeq	r7, r0, lsl #10
    1a5c:	04040000 	streq	r0, [r4], #-0
    1a60:	00010589 	andeq	r0, r1, r9, lsl #11
    1a64:	001e0600 	andseq	r0, lr, r0, lsl #12
    1a68:	06000000 	streq	r0, [r0], -r0
    1a6c:	00000096 	muleq	r0, r6, r0
    1a70:	00390601 	eorseq	r0, r9, r1, lsl #12
    1a74:	06020000 	streq	r0, [r2], -r0
    1a78:	00000073 	andeq	r0, r0, r3, ror r0
    1a7c:	018d0603 	orreq	r0, sp, r3, lsl #12
    1a80:	06040000 	streq	r0, [r4], -r0
    1a84:	0000010e 	andeq	r0, r0, lr, lsl #2
    1a88:	00f60605 	rscseq	r0, r6, r5, lsl #12
    1a8c:	06060000 	streq	r0, [r6], -r0
    1a90:	00000131 	andeq	r0, r0, r1, lsr r1
    1a94:	00120607 	andseq	r0, r2, r7, lsl #12
    1a98:	06080000 	streq	r0, [r8], -r0
    1a9c:	00000068 	andeq	r0, r0, r8, rrx
    1aa0:	01030609 	tsteq	r3, r9, lsl #12
    1aa4:	060a0000 	streq	r0, [sl], -r0
    1aa8:	00000199 	muleq	r0, r9, r1
    1aac:	0141060b 	cmpeq	r1, fp, lsl #12
    1ab0:	060c0000 	streq	r0, [ip], -r0
    1ab4:	00000171 	andeq	r0, r0, r1, ror r1
    1ab8:	021e060d 	andseq	r0, lr, #13631488	; 0xd00000
    1abc:	060e0000 	streq	r0, [lr], -r0
    1ac0:	0000002b 	andeq	r0, r0, fp, lsr #32
    1ac4:	0102000f 	tsteq	r2, pc
    1ac8:	00008808 	andeq	r8, r0, r8, lsl #16
    1acc:	07040200 	streq	r0, [r4, -r0, lsl #4]
    1ad0:	0000011f 	andeq	r0, r0, pc, lsl r1
    1ad4:	10850107 	addne	r0, r5, r7, lsl #2
    1ad8:	41010000 	mrsmi	r0, (UNDEF: 1)
    1adc:	00005301 	andeq	r5, r0, r1, lsl #6
    1ae0:	01310100 	teqeq	r1, r0, lsl #2
    1ae4:	65080000 	strvs	r0, [r8, #-0]
    1ae8:	01000013 	tsteq	r0, r3, lsl r0
    1aec:	00005343 	andeq	r5, r0, r3, asr #6
    1af0:	01090000 	mrseq	r0, (UNDEF: 9)
    1af4:	00001094 	muleq	r0, r4, r0
    1af8:	01010c01 	tsteq	r1, r1, lsl #24
    1afc:	00000161 	andeq	r0, r0, r1, ror #2
    1b00:	000ff00a 	andeq	pc, pc, sl
    1b04:	530c0100 	movwpl	r0, #49408	; 0xc100
    1b08:	0a000000 	beq	1b10 <serial_puts+0x18>
    1b0c:	00000f9a 	muleq	r0, sl, pc	; <UNPREDICTABLE>
    1b10:	00530c01 	subseq	r0, r3, r1, lsl #24
    1b14:	65080000 	strvs	r0, [r8, #-0]
    1b18:	01000013 	tsteq	r0, r3, lsl r0
    1b1c:	0000530f 	andeq	r5, r0, pc, lsl #6
    1b20:	da0b0000 	ble	2c1b28 <__bss_end+0x2be574>
    1b24:	01000010 	tsteq	r0, r0, lsl r0
    1b28:	005301b5 	ldrheq	r0, [r3], #-21	; 0xffffffeb
    1b2c:	89010000 	stmdbhi	r1, {}	; <UNPREDICTABLE>
    1b30:	0a000001 	beq	1b3c <serial_puts+0x44>
    1b34:	00001044 	andeq	r1, r0, r4, asr #32
    1b38:	0073b501 	rsbseq	fp, r3, r1, lsl #10
    1b3c:	b7080000 	strlt	r0, [r8, -r0]
    1b40:	0100000f 	tsteq	r0, pc
    1b44:	00004cb7 			; <UNDEFINED> instruction: 0x00004cb7
    1b48:	310c0000 	mrscc	r0, (UNDEF: 12)
    1b4c:	f8000001 			; <UNDEFINED> instruction: 0xf8000001
    1b50:	2c000006 	stccs	0, cr0, [r0], {6}
    1b54:	02000007 	andeq	r0, r0, #7
    1b58:	01b7007d 			; <UNDEFINED> instruction: 0x01b7007d
    1b5c:	3f0d0000 	svccc	0x000d0000
    1b60:	00000001 	andeq	r0, r0, r1
    1b64:	0e000003 	cdpeq	0, 0, cr0, cr0, cr3, {0}
    1b68:	0000014a 	andeq	r0, r0, sl, asr #2
    1b6c:	550f5101 	strpl	r5, [pc, #-257]	; 1a73 <serial_init+0x7>
    1b70:	13000001 	movwne	r0, #1
    1b74:	00000003 	andeq	r0, r0, r3
    1b78:	10040110 	andne	r0, r4, r0, lsl r1
    1b7c:	2c010000 	stccs	0, cr0, [r1], {-0}
    1b80:	00072c01 	andeq	r2, r7, r1, lsl #24
    1b84:	00074800 	andeq	r4, r7, r0, lsl #16
    1b88:	007d0200 	rsbseq	r0, sp, r0, lsl #4
    1b8c:	0f620110 	svceq	0x00620110
    1b90:	36010000 	strcc	r0, [r1], -r0
    1b94:	00074801 	andeq	r4, r7, r1, lsl #16
    1b98:	00076c00 	andeq	r6, r7, r0, lsl #24
    1b9c:	007d0200 	rsbseq	r0, sp, r0, lsl #4
    1ba0:	0001130c 	andeq	r1, r1, ip, lsl #6
    1ba4:	00076c00 	andeq	r6, r7, r0, lsl #24
    1ba8:	00077400 	andeq	r7, r7, r0, lsl #8
    1bac:	007d0200 	rsbseq	r0, sp, r0, lsl #4
    1bb0:	000001fb 	strdeq	r0, [r0], -fp
    1bb4:	00012511 	andeq	r2, r1, r1, lsl r5
    1bb8:	00500100 	subseq	r0, r0, r0, lsl #2
    1bbc:	0fa90112 	svceq	0x00a90112
    1bc0:	49010000 	stmdbmi	r1, {}	; <UNPREDICTABLE>
    1bc4:	00077401 	andeq	r7, r7, r1, lsl #8
    1bc8:	00078400 	andeq	r8, r7, r0, lsl #8
    1bcc:	007d0200 	rsbseq	r0, sp, r0, lsl #4
    1bd0:	00000223 	andeq	r0, r0, r3, lsr #4
    1bd4:	00136513 	andseq	r6, r3, r3, lsl r5
    1bd8:	534b0100 	movtpl	r0, #45312	; 0xb100
    1bdc:	5c000000 	stcpl	0, cr0, [r0], {-0}
    1be0:	00000003 	andeq	r0, r0, r3
    1be4:	0f4f0114 	svceq	0x004f0114
    1be8:	54010000 	strpl	r0, [r1], #-0
    1bec:	00078401 	andeq	r8, r7, r1, lsl #8
    1bf0:	0007b800 	andeq	fp, r7, r0, lsl #16
    1bf4:	00038a00 	andeq	r8, r3, r0, lsl #20
    1bf8:	0002a500 	andeq	sl, r2, r0, lsl #10
    1bfc:	06c21300 	strbeq	r1, [r2], r0, lsl #6
    1c00:	56010000 	strpl	r0, [r1], -r0
    1c04:	00000053 	andeq	r0, r0, r3, asr r0
    1c08:	000003aa 	andeq	r0, r0, sl, lsr #7
    1c0c:	646e6515 	strbtvs	r6, [lr], #-1301	; 0x515
    1c10:	53570100 	cmppl	r7, #0
    1c14:	be000000 	cdplt	0, 0, cr0, cr0, cr0, {0}
    1c18:	16000003 	strne	r0, [r0], -r3
    1c1c:	00000113 	andeq	r0, r0, r3, lsl r1
    1c20:	00000788 	andeq	r0, r0, r8, lsl #15
    1c24:	0000078c 	andeq	r0, r0, ip, lsl #15
    1c28:	02815c01 	addeq	r5, r1, #256	; 0x100
    1c2c:	88170000 	ldmdahi	r7, {}	; <UNPREDICTABLE>
    1c30:	8c000007 	stchi	0, cr0, [r0], {7}
    1c34:	0f000007 	svceq	0x00000007
    1c38:	00000125 	andeq	r0, r0, r5, lsr #2
    1c3c:	000003d2 	ldrdeq	r0, [r0], -r2
    1c40:	13180000 	tstne	r8, #0
    1c44:	8c000001 	stchi	0, cr0, [r0], {1}
    1c48:	90000007 	andls	r0, r0, r7
    1c4c:	01000007 	tsteq	r0, r7
    1c50:	078c175d 			; <UNDEFINED> instruction: 0x078c175d
    1c54:	07900000 	ldreq	r0, [r0, r0]
    1c58:	250f0000 	strcs	r0, [pc, #-0]	; 1c60 <utoa+0x2c>
    1c5c:	e5000001 	str	r0, [r0, #-1]
    1c60:	00000003 	andeq	r0, r0, r3
    1c64:	01140000 	tsteq	r4, r0
    1c68:	00000f76 	andeq	r0, r0, r6, ror pc
    1c6c:	b8016601 	stmdalt	r1, {r0, r9, sl, sp, lr}
    1c70:	40000007 	andmi	r0, r0, r7
    1c74:	f8000008 			; <UNDEFINED> instruction: 0xf8000008
    1c78:	95000003 	strls	r0, [r0, #-3]
    1c7c:	19000003 	stmdbne	r0, {r0, r1}
    1c80:	01007375 	tsteq	r0, r5, ror r3
    1c84:	00005366 	andeq	r5, r0, r6, ror #6
    1c88:	00041800 	andeq	r1, r4, r0, lsl #16
    1c8c:	0fe91300 	svceq	0x00e91300
    1c90:	68010000 	stmdavs	r1, {}	; <UNPREDICTABLE>
    1c94:	00000053 	andeq	r0, r0, r3, asr r0
    1c98:	00000441 	andeq	r0, r0, r1, asr #8
    1c9c:	72756315 	rsbsvc	r6, r5, #1409286144	; 0x54000000
    1ca0:	53690100 	cmnpl	r9, #0
    1ca4:	71000000 	mrsvc	r0, (UNDEF: 0)
    1ca8:	13000004 	movwne	r0, #4
    1cac:	00000f48 	andeq	r0, r0, r8, asr #30
    1cb0:	00536a01 	subseq	r6, r3, r1, lsl #20
    1cb4:	04a70000 	strteq	r0, [r7], #0
    1cb8:	39130000 	ldmdbcc	r3, {}	; <UNPREDICTABLE>
    1cbc:	0100000f 	tsteq	r0, pc
    1cc0:	0000536b 	andeq	r5, r0, fp, ror #6
    1cc4:	0004d200 	andeq	sp, r4, r0, lsl #4
    1cc8:	756f1a00 	strbvc	r1, [pc, #-2560]!	; 12d0 <__save_processor_state+0x390>
    1ccc:	9f010074 	svcls	0x00010074
    1cd0:	000007d0 	ldrdeq	r0, [r0], -r0	; <UNPREDICTABLE>
    1cd4:	00011316 	andeq	r1, r1, r6, lsl r3
    1cd8:	0007e400 	andeq	lr, r7, r0, lsl #8
    1cdc:	0007e800 	andeq	lr, r7, r0, lsl #16
    1ce0:	38760100 	ldmdacc	r6!, {r8}^
    1ce4:	17000003 	strne	r0, [r0, -r3]
    1ce8:	000007e4 	andeq	r0, r0, r4, ror #15
    1cec:	000007e8 	andeq	r0, r0, r8, ror #15
    1cf0:	00012511 	andeq	r2, r1, r1, lsl r5
    1cf4:	00530100 	subseq	r0, r3, r0, lsl #2
    1cf8:	01311600 	teqeq	r1, r0, lsl #12
    1cfc:	08080000 	stmdaeq	r8, {}	; <UNPREDICTABLE>
    1d00:	08280000 	stmdaeq	r8!, {}	; <UNPREDICTABLE>
    1d04:	7c010000 	stcvc	0, cr0, [r1], {-0}
    1d08:	00000371 	andeq	r0, r0, r1, ror r3
    1d0c:	00014a0d 	andeq	r4, r1, sp, lsl #20
    1d10:	0004fd00 	andeq	pc, r4, r0, lsl #26
    1d14:	013f0d00 	teqeq	pc, r0, lsl #26
    1d18:	05110000 	ldreq	r0, [r1, #-0]
    1d1c:	08170000 	ldmdaeq	r7, {}	; <UNPREDICTABLE>
    1d20:	28000008 	stmdacs	r0, {r3}
    1d24:	0f000008 	svceq	0x00000008
    1d28:	00000155 	andeq	r0, r0, r5, asr r1
    1d2c:	00000525 	andeq	r0, r0, r5, lsr #10
    1d30:	13180000 	tstne	r8, #0
    1d34:	28000001 	stmdacs	r0, {r0}
    1d38:	2c000008 	stccs	0, cr0, [r0], {8}
    1d3c:	01000008 	tsteq	r0, r8
    1d40:	08281780 	stmdaeq	r8!, {r7, r8, r9, sl, ip}
    1d44:	082c0000 	stmdaeq	ip!, {}	; <UNPREDICTABLE>
    1d48:	250f0000 	strcs	r0, [pc, #-0]	; 1d50 <print_align+0x60>
    1d4c:	49000001 	stmdbmi	r0, {r0}
    1d50:	00000005 	andeq	r0, r0, r5
    1d54:	01140000 	tsteq	r4, r0
    1d58:	000005e8 	andeq	r0, r0, r8, ror #11
    1d5c:	4001a901 	andmi	sl, r1, r1, lsl #18
    1d60:	74000008 	strvc	r0, [r0], #-8
    1d64:	5c000008 	stcpl	0, cr0, [r0], {8}
    1d68:	bd000005 	stclt	0, cr0, [r0, #-20]	; 0xffffffec
    1d6c:	19000003 	stmdbne	r0, {r0, r1}
    1d70:	0100736d 	tsteq	r0, sp, ror #6
    1d74:	000053a9 	andeq	r5, r0, r9, lsr #7
    1d78:	00057c00 	andeq	r7, r5, r0, lsl #24
    1d7c:	01120000 	tsteq	r2, r0
    1d80:	000010b8 	strheq	r1, [r0], -r8
    1d84:	7401cf01 	strvc	ip, [r1], #-3841	; 0xf01
    1d88:	a0000008 	andge	r0, r0, r8
    1d8c:	02000008 	andeq	r0, r0, #8
    1d90:	0401007d 	streq	r0, [r1], #-125	; 0x7d
    1d94:	f01b0000 			; <UNDEFINED> instruction: 0xf01b0000
    1d98:	0100000f 	tsteq	r0, pc
    1d9c:	000053cf 	andeq	r5, r0, pc, asr #7
    1da0:	0005b200 	andeq	fp, r5, r0, lsl #4
    1da4:	0f9a1c00 	svceq	0x009a1c00
    1da8:	cf010000 	svcgt	0x00010000
    1dac:	00000053 	andeq	r0, r0, r3, asr r0
    1db0:	65135101 	ldrvs	r5, [r3, #-257]	; 0x101
    1db4:	01000013 	tsteq	r0, r3, lsl r0
    1db8:	000053d2 	ldrdeq	r5, [r0], -r2
    1dbc:	0005c500 	andeq	ip, r5, r0, lsl #10
    1dc0:	01120000 	tsteq	r2, r0
    1dc4:	000010a6 	andeq	r1, r0, r6, lsr #1
    1dc8:	a001ed01 	andge	lr, r1, r1, lsl #26
    1dcc:	cc000008 	stcgt	0, cr0, [r0], {8}
    1dd0:	02000008 	andeq	r0, r0, #8
    1dd4:	044d007d 	strbeq	r0, [sp], #-125	; 0x7d
    1dd8:	441c0000 	ldrmi	r0, [ip], #-0
    1ddc:	01000010 	tsteq	r0, r0, lsl r0
    1de0:	000073ed 	andeq	r7, r0, sp, ror #7
    1de4:	13500100 	cmpne	r0, #0
    1de8:	00000fb7 			; <UNDEFINED> instruction: 0x00000fb7
    1dec:	0053f001 	subseq	pc, r3, r1
    1df0:	060e0000 	streq	r0, [lr], -r0
    1df4:	61180000 	tstvs	r8, r0
    1df8:	a0000001 	andge	r0, r0, r1
    1dfc:	b4000008 	strlt	r0, [r0], #-8
    1e00:	01000008 	tsteq	r0, r8
    1e04:	01720ef1 	ldrsheq	r0, [r2, #-225]!	; 0xffffff1f
    1e08:	50010000 	andpl	r0, r1, r0
    1e0c:	011d0000 	tsteq	sp, r0
    1e10:	00000f88 	andeq	r0, r0, r8, lsl #31
    1e14:	01010001 	tsteq	r1, r1
    1e18:	0000004c 	andeq	r0, r0, ip, asr #32
    1e1c:	000008cc 	andeq	r0, r0, ip, asr #17
    1e20:	000008f8 	strdeq	r0, [r0], -r8
    1e24:	b5007d02 	strlt	r7, [r0, #-3330]	; 0xd02
    1e28:	1e000004 	cdpne	0, 0, cr0, cr0, cr4, {0}
    1e2c:	00001044 	andeq	r1, r0, r4, asr #32
    1e30:	73010001 	movwvc	r0, #4097	; 0x1001
    1e34:	22000000 	andcs	r0, r0, #0
    1e38:	1f000006 	svcne	0x00000006
    1e3c:	00000fb7 			; <UNDEFINED> instruction: 0x00000fb7
    1e40:	4c010201 	sfmmi	f0, 4, [r1], {1}
    1e44:	42000000 	andmi	r0, r0, #0
    1e48:	1f000006 	svcne	0x00000006
    1e4c:	0000101d 	andeq	r1, r0, sp, lsl r0
    1e50:	4c010301 	stcmi	3, cr0, [r1], {1}
    1e54:	61000000 	mrsvs	r0, (UNDEF: 0)
    1e58:	20000006 	andcs	r0, r0, r6
    1e5c:	00000161 	andeq	r0, r0, r1, ror #2
    1e60:	000008cc 	andeq	r0, r0, ip, asr #17
    1e64:	000008e0 	andeq	r0, r0, r0, ror #17
    1e68:	0d010401 	cfstrseq	mvf0, [r1, #-4]
    1e6c:	00000172 	andeq	r0, r0, r2, ror r1
    1e70:	00000622 	andeq	r0, r0, r2, lsr #12
    1e74:	6d210000 	stcvs	0, cr0, [r1, #-0]
    1e78:	0100001e 	tsteq	r0, lr, lsl r0
    1e7c:	00005305 	andeq	r5, r0, r5, lsl #6
    1e80:	c8030500 	stmdagt	r3, {r8, sl}
    1e84:	21000031 	tstcs	r0, r1, lsr r0
    1e88:	00000f7f 	andeq	r0, r0, pc, ror pc
    1e8c:	00530601 	subseq	r0, r3, r1, lsl #12
    1e90:	03050000 	movweq	r0, #20480	; 0x5000
    1e94:	000031c4 	andeq	r3, r0, r4, asr #3
    1e98:	00102721 	andseq	r2, r0, r1, lsr #14
    1e9c:	53070100 	movwpl	r0, #28928	; 0x7100
    1ea0:	05000000 	streq	r0, [r0, #-0]
    1ea4:	0031bc03 	eorseq	fp, r1, r3, lsl #24
    1ea8:	0fbd2100 	svceq	0x00bd2100
    1eac:	08010000 	stmdaeq	r1, {}	; <UNPREDICTABLE>
    1eb0:	00000053 	andeq	r0, r0, r3, asr r0
    1eb4:	31c00305 	biccc	r0, r0, r5, lsl #6
    1eb8:	71000000 	mrsvc	r0, (UNDEF: 0)
    1ebc:	02000001 	andeq	r0, r0, #1
    1ec0:	00070400 	andeq	r0, r7, r0, lsl #8
    1ec4:	46010400 	strmi	r0, [r1], -r0, lsl #8
    1ec8:	01000000 	mrseq	r0, (UNDEF: 0)
    1ecc:	000010f9 	strdeq	r1, [r0], -r9
    1ed0:	0000015d 	andeq	r0, r0, sp, asr r1
    1ed4:	00000900 	andeq	r0, r0, r0, lsl #18
    1ed8:	000009e0 	andeq	r0, r0, r0, ror #19
    1edc:	00000696 	muleq	r0, r6, r6
    1ee0:	24070402 	strcs	r0, [r7], #-1026	; 0x402
    1ee4:	02000001 	andeq	r0, r0, #1
    1ee8:	00880801 	addeq	r0, r8, r1, lsl #16
    1eec:	02020000 	andeq	r0, r2, #0
    1ef0:	0000a307 	andeq	sl, r0, r7, lsl #6
    1ef4:	05040300 	streq	r0, [r4, #-768]	; 0x300
    1ef8:	00746e69 	rsbseq	r6, r4, r9, ror #28
    1efc:	1f070402 	svcne	0x00070402
    1f00:	02000001 	andeq	r0, r0, #1
    1f04:	007f0801 	rsbseq	r0, pc, r1, lsl #16
    1f08:	01020000 	mrseq	r0, (UNDEF: 2)
    1f0c:	00008106 	andeq	r8, r0, r6, lsl #2
    1f10:	05020200 	streq	r0, [r2, #-512]	; 0x200
    1f14:	000001a4 	andeq	r0, r0, r4, lsr #3
    1f18:	00083004 	andeq	r3, r8, r4
    1f1c:	25130300 	ldrcs	r0, [r3, #-768]	; 0x300
    1f20:	02000000 	andeq	r0, r0, #0
    1f24:	017f0508 	cmneq	pc, r8, lsl #10
    1f28:	08020000 	stmdaeq	r2, {}	; <UNPREDICTABLE>
    1f2c:	00011a07 	andeq	r1, r1, r7, lsl #20
    1f30:	04280500 	strteq	r0, [r8], #-1280	; 0x500
    1f34:	02240000 	eoreq	r0, r4, #0
    1f38:	0001004c 	andeq	r0, r1, ip, asr #32
    1f3c:	0cd30600 	ldcleq	6, cr0, [r3], {0}
    1f40:	4e020000 	cdpmi	0, 0, cr0, cr2, cr0, {0}
    1f44:	0000005d 	andeq	r0, r0, sp, asr r0
    1f48:	07002302 	streq	r2, [r0, -r2, lsl #6]
    1f4c:	02007263 	andeq	r7, r0, #805306374	; 0x30000006
    1f50:	00005d50 	andeq	r5, r0, r0, asr sp
    1f54:	04230200 	strteq	r0, [r3], #-512	; 0x200
    1f58:	000ab106 	andeq	fp, sl, r6, lsl #2
    1f5c:	5d510200 	lfmpl	f0, 2, [r1, #-0]
    1f60:	02000000 	andeq	r0, r0, #0
    1f64:	05060823 	streq	r0, [r6, #-2083]	; 0x823
    1f68:	0200000b 	andeq	r0, r0, #11
    1f6c:	00005d53 	andeq	r5, r0, r3, asr sp
    1f70:	0c230200 	sfmeq	f0, 4, [r3], #-0
    1f74:	000c1206 	andeq	r1, ip, r6, lsl #4
    1f78:	5d540200 	lfmpl	f0, 2, [r4, #-0]
    1f7c:	02000000 	andeq	r0, r0, #0
    1f80:	2a061023 	bcs	186014 <__bss_end+0x182a60>
    1f84:	02000008 	andeq	r0, r0, #8
    1f88:	00005d55 	andeq	r5, r0, r5, asr sp
    1f8c:	14230200 	strtne	r0, [r3], #-512	; 0x200
    1f90:	0006c806 	andeq	ip, r6, r6, lsl #16
    1f94:	5d580200 	lfmpl	f0, 2, [r8, #-0]
    1f98:	02000000 	andeq	r0, r0, #0
    1f9c:	70061823 	andvc	r1, r6, r3, lsr #16
    1fa0:	0200000d 	andeq	r0, r0, #13
    1fa4:	00005d5b 	andeq	r5, r0, fp, asr sp
    1fa8:	1c230200 	sfmne	f0, 4, [r3], #-0
    1fac:	0006b706 	andeq	fp, r6, r6, lsl #14
    1fb0:	5d5c0200 	lfmpl	f0, 2, [ip, #-0]
    1fb4:	02000000 	andeq	r0, r0, #0
    1fb8:	08002023 	stmdaeq	r0, {r0, r1, r5, sp}
    1fbc:	00113a01 	andseq	r3, r1, r1, lsl #20
    1fc0:	01070100 	mrseq	r0, (UNDEF: 23)
    1fc4:	00000900 	andeq	r0, r0, r0, lsl #18
    1fc8:	0000093c 	andeq	r0, r0, ip, lsr r9
    1fcc:	26007d02 	strcs	r7, [r0], -r2, lsl #26
    1fd0:	09000001 	stmdbeq	r0, {r0}
    1fd4:	00000422 	andeq	r0, r0, r2, lsr #8
    1fd8:	01260701 	teqeq	r6, r1, lsl #14
    1fdc:	50010000 	andpl	r0, r1, r0
    1fe0:	76040a00 	strvc	r0, [r4], -r0, lsl #20
    1fe4:	08000000 	stmdaeq	r0, {}	; <UNPREDICTABLE>
    1fe8:	00114901 	andseq	r4, r1, r1, lsl #18
    1fec:	011d0100 	tsteq	sp, r0, lsl #2
    1ff0:	0000093c 	andeq	r0, r0, ip, lsr r9
    1ff4:	00000988 	andeq	r0, r0, r8, lsl #19
    1ff8:	52007d02 	andpl	r7, r0, #128	; 0x80
    1ffc:	09000001 	stmdbeq	r0, {r0}
    2000:	00000422 	andeq	r0, r0, r2, lsr #8
    2004:	01261d01 	teqeq	r6, r1, lsl #26
    2008:	50010000 	andpl	r0, r1, r0
    200c:	28010b00 	stmdacs	r1, {r8, r9, fp}
    2010:	01000011 	tsteq	r0, r1, lsl r0
    2014:	09880138 	stmibeq	r8, {r3, r4, r5, r8}
    2018:	09e00000 	stmibeq	r0!, {}^	; <UNPREDICTABLE>
    201c:	7d020000 	stcvc	0, cr0, [r2, #-0]
    2020:	04220900 	strteq	r0, [r2], #-2304	; 0x900
    2024:	38010000 	stmdacc	r1, {}	; <UNPREDICTABLE>
    2028:	00000126 	andeq	r0, r0, r6, lsr #2
    202c:	00005001 	andeq	r5, r0, r1
    2030:	00000069 	andeq	r0, r0, r9, rrx
    2034:	07ac0002 	streq	r0, [ip, r2]!
    2038:	01040000 	mrseq	r0, (UNDEF: 4)
    203c:	00000753 	andeq	r0, r0, r3, asr r7
    2040:	000009e0 	andeq	r0, r0, r0, ror #19
    2044:	00000f2c 	andeq	r0, r0, ip, lsr #30
    2048:	68637261 	stmdavs	r3!, {r0, r5, r6, r9, ip, sp, lr}^
    204c:	6d72612f 	ldfvse	f6, [r2, #-188]!	; 0xffffff44
    2050:	63616d2f 	cmnvs	r1, #3008	; 0xbc0
    2054:	75732d68 	ldrbvc	r2, [r3, #-3432]!	; 0xd68
    2058:	2f69786e 	svccs	0x0069786e
    205c:	732f6d70 	teqvc	pc, #7168	; 0x1c00
    2060:	646e6174 	strbtvs	r6, [lr], #-372	; 0x174
    2064:	2e2f7962 	cdpcs	9, 2, cr7, cr15, cr2, {3}
    2068:	656d2f2e 	strbvs	r2, [sp, #-3886]!	; 0xf2e
    206c:	6d6d5f6d 	stclvs	15, cr5, [sp, #-436]!	; 0xfffffe4c
    2070:	63705f75 	cmnvs	r0, #468	; 0x1d4
    2074:	6d73615f 	ldfvse	f6, [r3, #-380]!	; 0xfffffe84
    2078:	2f00532e 	svccs	0x0000532e
    207c:	6b726f77 	blvs	1c9de60 <__bss_end+0x1c9a8ac>
    2080:	3338612f 	teqcc	r8, #-1073741813	; 0xc000000b
    2084:	6e696c2f 	cdpvs	12, 6, cr6, cr9, cr15, {1}
    2088:	332d7875 	teqcc	sp, #7667712	; 0x750000
    208c:	4700342e 	strmi	r3, [r0, -lr, lsr #8]
    2090:	4120554e 	teqmi	r0, lr, asr #10
    2094:	2e322053 	mrccs	0, 1, r2, cr2, cr3, {2}
    2098:	01003232 	tsteq	r0, r2, lsr r2
    209c:	00059080 	andeq	r9, r5, r0, lsl #1
    20a0:	c0000200 	andgt	r0, r0, r0, lsl #4
    20a4:	04000007 	streq	r0, [r0], #-7
    20a8:	00004601 	andeq	r4, r0, r1, lsl #12
    20ac:	12b00100 	adcsne	r0, r0, #0
    20b0:	015d0000 	cmpeq	sp, r0
    20b4:	0f400000 	svceq	0x00400000
    20b8:	16f00000 	ldrbtne	r0, [r0], r0
    20bc:	09060000 	stmdbeq	r6, {}	; <UNPREDICTABLE>
    20c0:	01020000 	mrseq	r0, (UNDEF: 2)
    20c4:	00008106 	andeq	r8, r0, r6, lsl #2
    20c8:	08010200 	stmdaeq	r1, {r9}
    20cc:	0000007f 	andeq	r0, r0, pc, ror r0
    20d0:	a4050202 	strge	r0, [r5], #-514	; 0x202
    20d4:	02000001 	andeq	r0, r0, #1
    20d8:	00a30702 	adceq	r0, r3, r2, lsl #14
    20dc:	04030000 	streq	r0, [r3], #-0
    20e0:	746e6905 	strbtvc	r6, [lr], #-2309	; 0x905
    20e4:	08300400 	ldmdaeq	r0!, {sl}
    20e8:	13030000 	movwne	r0, #12288	; 0x3000
    20ec:	00000053 	andeq	r0, r0, r3, asr r0
    20f0:	24070402 	strcs	r0, [r7], #-1026	; 0x402
    20f4:	02000001 	andeq	r0, r0, #1
    20f8:	017f0508 	cmneq	pc, r8, lsl #10
    20fc:	08020000 	stmdaeq	r2, {}	; <UNPREDICTABLE>
    2100:	00011a07 	andeq	r1, r1, r7, lsl #20
    2104:	126c0500 	rsbne	r0, ip, #0
    2108:	02a00000 	adceq	r0, r0, #0
    210c:	0002ac12 	andeq	sl, r2, r2, lsl ip
    2110:	0cd30600 	ldcleq	6, cr0, [r3], {0}
    2114:	17020000 	strne	r0, [r2, -r0]
    2118:	00000048 	andeq	r0, r0, r8, asr #32
    211c:	07002302 	streq	r2, [r0, -r2, lsl #6]
    2120:	02007263 	andeq	r7, r0, #805306374	; 0x30000006
    2124:	00004827 	andeq	r4, r0, r7, lsr #16
    2128:	04230200 	strteq	r0, [r3], #-512	; 0x200
    212c:	72636107 	rsbvc	r6, r3, #-1073741823	; 0xc0000001
    2130:	48280200 	stmdami	r8!, {r9}
    2134:	02000000 	andeq	r0, r0, #0
    2138:	b1060823 	tstlt	r6, r3, lsr #16
    213c:	0200000a 	andeq	r0, r0, #10
    2140:	00004829 	andeq	r4, r0, r9, lsr #16
    2144:	0c230200 	sfmeq	f0, 4, [r3], #-0
    2148:	00116f06 	andseq	r6, r1, r6, lsl #30
    214c:	482a0200 	stmdami	sl!, {r9}
    2150:	02000000 	andeq	r0, r0, #0
    2154:	a7061023 	strge	r1, [r6, -r3, lsr #32]
    2158:	02000011 	andeq	r0, r0, #17
    215c:	0000482b 	andeq	r4, r0, fp, lsr #16
    2160:	14230200 	strtne	r0, [r3], #-512	; 0x200
    2164:	00128c06 	andseq	r8, r2, r6, lsl #24
    2168:	482c0200 	stmdami	ip!, {r9}
    216c:	02000000 	andeq	r0, r0, #0
    2170:	05061823 	streq	r1, [r6, #-2083]	; 0x823
    2174:	0200000b 	andeq	r0, r0, #11
    2178:	00004830 	andeq	r4, r0, r0, lsr r8
    217c:	1c230200 	sfmne	f0, 4, [r3], #-0
    2180:	000c1206 	andeq	r1, ip, r6, lsl #4
    2184:	48310200 	ldmdami	r1!, {r9}
    2188:	02000000 	andeq	r0, r0, #0
    218c:	2a062023 	bcs	18a220 <__bss_end+0x186c6c>
    2190:	02000008 	andeq	r0, r0, #8
    2194:	00004832 	andeq	r4, r0, r2, lsr r8
    2198:	24230200 	strtcs	r0, [r3], #-512	; 0x200
    219c:	0006c806 	andeq	ip, r6, r6, lsl #16
    21a0:	48340200 	ldmdami	r4!, {r9}
    21a4:	02000000 	andeq	r0, r0, #0
    21a8:	7b062823 	blvc	18c23c <__bss_end+0x188c88>
    21ac:	02000011 	andeq	r0, r0, #17
    21b0:	00004836 	andeq	r4, r0, r6, lsr r8
    21b4:	2c230200 	sfmcs	f0, 4, [r3], #-0
    21b8:	00136b06 	andseq	r6, r3, r6, lsl #22
    21bc:	48370200 	ldmdami	r7!, {r9}
    21c0:	02000000 	andeq	r0, r0, #0
    21c4:	65063023 	strvs	r3, [r6, #-35]	; 0x23
    21c8:	02000012 	andeq	r0, r0, #18
    21cc:	00004838 	andeq	r4, r0, r8, lsr r8
    21d0:	34230200 	strtcc	r0, [r3], #-512	; 0x200
    21d4:	00138606 	andseq	r8, r3, r6, lsl #12
    21d8:	48390200 	ldmdami	r9!, {r9}
    21dc:	02000000 	andeq	r0, r0, #0
    21e0:	71063823 	tstvc	r6, r3, lsr #16
    21e4:	02000013 	andeq	r0, r0, #19
    21e8:	0000483b 	andeq	r4, r0, fp, lsr r8
    21ec:	3c230200 	sfmcc	f0, 4, [r3], #-0
    21f0:	00116906 	andseq	r6, r1, r6, lsl #18
    21f4:	483c0200 	ldmdami	ip!, {r9}
    21f8:	02000000 	andeq	r0, r0, #0
    21fc:	70074023 	andvc	r4, r7, r3, lsr #32
    2200:	02007261 	andeq	r7, r0, #268435462	; 0x10000006
    2204:	0000483e 	andeq	r4, r0, lr, lsr r8
    2208:	44230200 	strtmi	r0, [r3], #-512	; 0x200
    220c:	00134706 	andseq	r4, r3, r6, lsl #14
    2210:	48400200 	stmdami	r0, {r9}^
    2214:	02000000 	andeq	r0, r0, #0
    2218:	52064823 	andpl	r4, r6, #2293760	; 0x230000
    221c:	02000013 	andeq	r0, r0, #19
    2220:	00004841 	andeq	r4, r0, r1, asr #16
    2224:	4c230200 	sfmmi	f0, 4, [r3], #-0
    2228:	00129906 	andseq	r9, r2, r6, lsl #18
    222c:	48420200 	stmdami	r2, {r9}^
    2230:	02000000 	andeq	r0, r0, #0
    2234:	42065023 	andmi	r5, r6, #35	; 0x23
    2238:	02000013 	andeq	r0, r0, #19
    223c:	00004843 	andeq	r4, r0, r3, asr #16
    2240:	54230200 	strtpl	r0, [r3], #-512	; 0x200
    2244:	72697307 	rsbvc	r7, r9, #469762048	; 0x1c000000
    2248:	48470200 	stmdami	r7, {r9}^
    224c:	02000000 	andeq	r0, r0, #0
    2250:	4c065823 	stcmi	8, cr5, [r6], {35}	; 0x23
    2254:	02000012 	andeq	r0, r0, #18
    2258:	00004849 	andeq	r4, r0, r9, asr #16
    225c:	5c230200 	sfmpl	f0, 4, [r3], #-0
    2260:	72636307 	rsbvc	r6, r3, #469762048	; 0x1c000000
    2264:	484a0200 	stmdami	sl, {r9}^
    2268:	02000000 	andeq	r0, r0, #0
    226c:	65076023 	strvs	r6, [r7, #-35]	; 0x23
    2270:	02007273 	andeq	r7, r0, #805306375	; 0x30000007
    2274:	0000484b 	andeq	r4, r0, fp, asr #16
    2278:	64230200 	strtvs	r0, [r3], #-512	; 0x200
    227c:	00137d06 	andseq	r7, r3, r6, lsl #26
    2280:	484c0200 	stmdami	ip, {r9}^
    2284:	02000000 	andeq	r0, r0, #0
    2288:	75076823 	strvc	r6, [r7, #-2083]	; 0x823
    228c:	02007265 	andeq	r7, r0, #1342177286	; 0x50000006
    2290:	0000484d 	andeq	r4, r0, sp, asr #16
    2294:	6c230200 	sfmvs	f0, 4, [r3], #-0
    2298:	00123806 	andseq	r3, r2, r6, lsl #16
    229c:	484e0200 	stmdami	lr, {r9}^
    22a0:	02000000 	andeq	r0, r0, #0
    22a4:	76067023 	strvc	r7, [r6], -r3, lsr #32
    22a8:	02000011 	andeq	r0, r0, #17
    22ac:	0000484f 	andeq	r4, r0, pc, asr #16
    22b0:	74230200 	strtvc	r0, [r3], #-512	; 0x200
    22b4:	000d7006 	andeq	r7, sp, r6
    22b8:	485d0200 	ldmdami	sp, {r9}^
    22bc:	02000000 	andeq	r0, r0, #0
    22c0:	b7067823 	strlt	r7, [r6, -r3, lsr #16]
    22c4:	02000006 	andeq	r0, r0, #6
    22c8:	0000485e 	andeq	r4, r0, lr, asr r8
    22cc:	7c230200 	sfmvc	f0, 4, [r3], #-0
    22d0:	00137806 	andseq	r7, r3, r6, lsl #16
    22d4:	48740200 	ldmdami	r4!, {r9}^
    22d8:	03000000 	movweq	r0, #0
    22dc:	06018023 	streq	r8, [r1], -r3, lsr #32
    22e0:	00001377 	andeq	r1, r0, r7, ror r3
    22e4:	00487502 	subeq	r7, r8, r2, lsl #10
    22e8:	23030000 	movwcs	r0, #12288	; 0x3000
    22ec:	69070184 	stmdbvs	r7, {r2, r7, r8}
    22f0:	02007273 	andeq	r7, r0, #805306375	; 0x30000007
    22f4:	00004876 	andeq	r4, r0, r6, ror r8
    22f8:	88230300 	stmdahi	r3!, {r8, r9}
    22fc:	13020601 	movwne	r0, #9729	; 0x2601
    2300:	7a020000 	bvc	82308 <__bss_end+0x7ed54>
    2304:	00000048 	andeq	r0, r0, r8, asr #32
    2308:	018c2303 	orreq	r2, ip, r3, lsl #6
    230c:	64696307 	strbtvs	r6, [r9], #-775	; 0x307
    2310:	487b0200 	ldmdami	fp!, {r9}^
    2314:	03000000 	movweq	r0, #0
    2318:	06019023 	streq	r9, [r1], -r3, lsr #32
    231c:	00001190 	muleq	r0, r0, r1
    2320:	00487c02 	subeq	r7, r8, r2, lsl #24
    2324:	23030000 	movwcs	r0, #12288	; 0x3000
    2328:	a8060194 	stmdage	r6, {r2, r4, r7, r8}
    232c:	02000012 	andeq	r0, r0, #18
    2330:	0000487d 	andeq	r4, r0, sp, ror r8
    2334:	98230300 	stmdals	r3!, {r8, r9}
    2338:	11620601 	cmnne	r2, r1, lsl #12
    233c:	7e020000 	cdpvc	0, 0, cr0, cr2, cr0, {0}
    2340:	00000048 	andeq	r0, r0, r8, asr #32
    2344:	019c2303 	orrseq	r2, ip, r3, lsl #6
    2348:	01470800 	cmpeq	r7, r0, lsl #16
    234c:	04040000 	streq	r0, [r4], #-0
    2350:	00031989 	andeq	r1, r3, r9, lsl #19
    2354:	001e0900 	andseq	r0, lr, r0, lsl #18
    2358:	09000000 	stmdbeq	r0, {}	; <UNPREDICTABLE>
    235c:	00000096 	muleq	r0, r6, r0
    2360:	00390901 	eorseq	r0, r9, r1, lsl #18
    2364:	09020000 	stmdbeq	r2, {}	; <UNPREDICTABLE>
    2368:	00000073 	andeq	r0, r0, r3, ror r0
    236c:	018d0903 	orreq	r0, sp, r3, lsl #18
    2370:	09040000 	stmdbeq	r4, {}	; <UNPREDICTABLE>
    2374:	0000010e 	andeq	r0, r0, lr, lsl #2
    2378:	00f60905 	rscseq	r0, r6, r5, lsl #18
    237c:	09060000 	stmdbeq	r6, {}	; <UNPREDICTABLE>
    2380:	00000131 	andeq	r0, r0, r1, lsr r1
    2384:	00120907 	andseq	r0, r2, r7, lsl #18
    2388:	09080000 	stmdbeq	r8, {}	; <UNPREDICTABLE>
    238c:	00000068 	andeq	r0, r0, r8, rrx
    2390:	01030909 	tsteq	r3, r9, lsl #18
    2394:	090a0000 	stmdbeq	sl, {}	; <UNPREDICTABLE>
    2398:	00000199 	muleq	r0, r9, r1
    239c:	0141090b 	cmpeq	r1, fp, lsl #18
    23a0:	090c0000 	stmdbeq	ip, {}	; <UNPREDICTABLE>
    23a4:	00000171 	andeq	r0, r0, r1, ror r1
    23a8:	021e090d 	andseq	r0, lr, #212992	; 0x34000
    23ac:	090e0000 	stmdbeq	lr, {}	; <UNPREDICTABLE>
    23b0:	0000002b 	andeq	r0, r0, fp, lsr #32
    23b4:	0102000f 	tsteq	r2, pc
    23b8:	00008808 	andeq	r8, r0, r8, lsl #16
    23bc:	07040200 	streq	r0, [r4, -r0, lsl #4]
    23c0:	0000011f 	andeq	r0, r0, pc, lsl r1
    23c4:	12dc010a 	sbcsne	r0, ip, #-2147483646	; 0x80000002
    23c8:	8a010000 	bhi	423d0 <__bss_end+0x3ee1c>
    23cc:	000f4001 	andeq	r4, pc, r1
    23d0:	00134400 	andseq	r4, r3, r0, lsl #8
    23d4:	007d0200 	rsbseq	r0, sp, r0, lsl #4
    23d8:	0000034d 	andeq	r0, r0, sp, asr #6
    23dc:	0012510b 	andseq	r5, r2, fp, lsl #2
    23e0:	4d8a0100 	stfmis	f0, [sl]
    23e4:	01000003 	tsteq	r0, r3
    23e8:	040c0050 	streq	r0, [ip], #-80	; 0x50
    23ec:	00000068 	andeq	r0, r0, r8, rrx
    23f0:	121e010d 	andsne	r0, lr, #1073741827	; 0x40000003
    23f4:	18010000 	stmdane	r1, {}	; <UNPREDICTABLE>
    23f8:	13440101 	movtne	r0, #16641	; 0x4101
    23fc:	16080000 	strne	r0, [r8], -r0
    2400:	7d020000 	stcvc	0, cr0, [r2, #-0]
    2404:	00037b00 	andeq	r7, r3, r0, lsl #22
    2408:	12510e00 	subsne	r0, r1, #0
    240c:	18010000 	stmdane	r1, {}	; <UNPREDICTABLE>
    2410:	00034d01 	andeq	r4, r3, r1, lsl #26
    2414:	00500100 	subseq	r0, r0, r0, lsl #2
    2418:	1205010d 	andne	r0, r5, #1073741827	; 0x40000003
    241c:	7b010000 	blvc	42424 <__bss_end+0x3ee70>
    2420:	16080101 	strne	r0, [r8], -r1, lsl #2
    2424:	16200000 	strtne	r0, [r0], -r0
    2428:	7d020000 	stcvc	0, cr0, [r2, #-0]
    242c:	0003a500 	andeq	sl, r3, r0, lsl #10
    2430:	61760f00 	cmnvs	r6, r0, lsl #30
    2434:	7e01006c 	cdpvc	0, 0, cr0, cr1, cr12, {3}
    2438:	00004801 	andeq	r4, r0, r1, lsl #16
    243c:	00068000 	andeq	r8, r6, r0
    2440:	010d0000 	mrseq	r0, (UNDEF: 13)
    2444:	0000127a 	andeq	r1, r0, sl, ror r2
    2448:	01018901 	tsteq	r1, r1, lsl #18
    244c:	00001620 	andeq	r1, r0, r0, lsr #12
    2450:	000016b4 			; <UNDEFINED> instruction: 0x000016b4
    2454:	cb007d02 	blgt	21864 <__bss_end+0x1e2b0>
    2458:	10000003 	andne	r0, r0, r3
    245c:	00001251 	andeq	r1, r0, r1, asr r2
    2460:	4d018b01 	vstrmi	d8, [r1, #-4]
    2464:	00000003 	andeq	r0, r0, r3
    2468:	12de0111 	sbcsne	r0, lr, #1073741828	; 0x40000004
    246c:	e3010000 	movw	r0, #4096	; 0x1000
    2470:	16b40101 	ldrtne	r0, [r4], r1, lsl #2
    2474:	16c00000 	strbne	r0, [r0], r0
    2478:	7d020000 	stcvc	0, cr0, [r2, #-0]
    247c:	20011100 	andcs	r1, r1, r0, lsl #2
    2480:	01000012 	tsteq	r0, r2, lsl r0
    2484:	c00101e9 	andgt	r0, r1, r9, ror #3
    2488:	cc000016 	stcgt	0, cr0, [r0], {22}
    248c:	02000016 	andeq	r0, r0, #22
    2490:	0111007d 	tsteq	r1, sp, ror r0
    2494:	000011de 	ldrdeq	r1, [r0], -lr
    2498:	0101ee01 	tsteq	r1, r1, lsl #28
    249c:	000016cc 	andeq	r1, r0, ip, asr #13
    24a0:	000016e0 	andeq	r1, r0, r0, ror #13
    24a4:	0d007d02 	stceq	13, cr7, [r0, #-8]
    24a8:	00129e01 	andseq	r9, r2, r1, lsl #28
    24ac:	01f40100 	mvnseq	r0, r0, lsl #2
    24b0:	0016e001 	andseq	lr, r6, r1
    24b4:	0016f000 	andseq	pc, r6, r0
    24b8:	007d0200 	rsbseq	r0, sp, r0, lsl #4
    24bc:	00000434 	andeq	r0, r0, r4, lsr r4
    24c0:	6274740f 	rsbsvs	r7, r4, #251658240	; 0xf000000
    24c4:	01f60100 	mvnseq	r0, r0, lsl #2
    24c8:	00000048 	andeq	r0, r0, r8, asr #32
    24cc:	000006a3 	andeq	r0, r0, r3, lsr #13
    24d0:	126c1200 	rsbne	r1, ip, #0
    24d4:	1f010000 	svcne	0x00010000
    24d8:	00000068 	andeq	r0, r0, r8, rrx
    24dc:	31cc0305 	biccc	r0, ip, r5, lsl #6
    24e0:	57130000 	ldrpl	r0, [r3, -r0]
    24e4:	01000013 	tsteq	r0, r3, lsl r0
    24e8:	00045021 	andeq	r5, r4, r1, lsr #32
    24ec:	00681400 	rsbeq	r1, r8, r0, lsl #8
    24f0:	20150000 	andscs	r0, r5, r0
    24f4:	65000003 	strvs	r0, [r0, #-3]
    24f8:	16000004 	strne	r0, [r0], -r4
    24fc:	00000053 	andeq	r0, r0, r3, asr r0
    2500:	bb170001 	bllt	5c250c <__bss_end+0x5bef58>
    2504:	01000013 	tsteq	r0, r3, lsl r0
    2508:	0004550f 	andeq	r5, r4, pc, lsl #10
    250c:	03050100 	movweq	r0, #20736	; 0x5100
    2510:	00003594 	muleq	r0, r4, r5
    2514:	00133317 	andseq	r3, r3, r7, lsl r3
    2518:	20100100 	andscs	r0, r0, r0, lsl #2
    251c:	01000003 	tsteq	r0, r3
    2520:	35900305 	ldrcc	r0, [r0, #773]	; 0x305
    2524:	1d170000 	ldcne	0, cr0, [r7, #-0]
    2528:	01000013 	tsteq	r0, r3, lsl r0
    252c:	00045511 	andeq	r5, r4, r1, lsl r5
    2530:	03050100 	movweq	r0, #20736	; 0x5100
    2534:	000034a4 	andeq	r3, r0, r4, lsr #9
    2538:	0011f617 	andseq	pc, r1, r7, lsl r6	; <UNPREDICTABLE>
    253c:	20120100 	andscs	r0, r2, r0, lsl #2
    2540:	01000003 	tsteq	r0, r3
    2544:	35a80305 	strcc	r0, [r8, #773]!	; 0x305
    2548:	20150000 	andscs	r0, r5, r0
    254c:	bd000003 	stclt	0, cr0, [r0, #-12]
    2550:	16000004 	strne	r0, [r0], -r4
    2554:	00000053 	andeq	r0, r0, r3, asr r0
    2558:	b2170006 	andslt	r0, r7, #6
    255c:	01000011 	tsteq	r0, r1, lsl r0
    2560:	0004ad13 	andeq	sl, r4, r3, lsl sp
    2564:	03050100 	movweq	r0, #20736	; 0x5100
    2568:	00003574 	andeq	r3, r0, r4, ror r5
    256c:	00123d17 	andseq	r3, r2, r7, lsl sp
    2570:	20140100 	andscs	r0, r4, r0, lsl #2
    2574:	01000003 	tsteq	r0, r3
    2578:	34ac0305 	strtcc	r0, [ip], #773	; 0x305
    257c:	8d170000 	ldchi	0, cr0, [r7, #-0]
    2580:	01000013 	tsteq	r0, r3, lsl r0
    2584:	00045515 	andeq	r5, r4, r5, lsl r5
    2588:	03050100 	movweq	r0, #20736	; 0x5100
    258c:	000034b8 			; <UNDEFINED> instruction: 0x000034b8
    2590:	00118117 	andseq	r8, r1, r7, lsl r1
    2594:	20160100 	andscs	r0, r6, r0, lsl #2
    2598:	01000003 	tsteq	r0, r3
    259c:	359c0305 	ldrcc	r0, [ip, #773]	; 0x305
    25a0:	c8170000 	ldmdagt	r7, {}	; <UNPREDICTABLE>
    25a4:	01000011 	tsteq	r0, r1, lsl r0
    25a8:	00045517 	andeq	r5, r4, r7, lsl r5
    25ac:	03050100 	movweq	r0, #20736	; 0x5100
    25b0:	0000349c 	muleq	r0, ip, r4
    25b4:	00125617 	andseq	r5, r2, r7, lsl r6
    25b8:	20180100 	andscs	r0, r8, r0, lsl #2
    25bc:	01000003 	tsteq	r0, r3
    25c0:	34b40305 	ldrtcc	r0, [r4], #773	; 0x305
    25c4:	07170000 	ldreq	r0, [r7, -r0]
    25c8:	01000013 	tsteq	r0, r3, lsl r0
    25cc:	00045519 	andeq	r5, r4, r9, lsl r5
    25d0:	03050100 	movweq	r0, #20736	; 0x5100
    25d4:	000035ac 	andeq	r3, r0, ip, lsr #11
    25d8:	0012f317 	andseq	pc, r2, r7, lsl r3	; <UNPREDICTABLE>
    25dc:	201a0100 	andscs	r0, sl, r0, lsl #2
    25e0:	01000003 	tsteq	r0, r3
    25e4:	34b00305 	ldrtcc	r0, [r0], #773	; 0x305
    25e8:	d1170000 	tstle	r7, r0
    25ec:	01000013 	tsteq	r0, r3, lsl r0
    25f0:	0004551b 	andeq	r5, r4, fp, lsl r5
    25f4:	03050100 	movweq	r0, #20736	; 0x5100
    25f8:	000035a0 	andeq	r3, r0, r0, lsr #11
    25fc:	00119817 	andseq	r9, r1, r7, lsl r8
    2600:	201c0100 	andscs	r0, ip, r0, lsl #2
    2604:	01000003 	tsteq	r0, r3
    2608:	34c00305 	strbcc	r0, [r0], #773	; 0x305
    260c:	20150000 	andscs	r0, r5, r0
    2610:	81000003 	tsthi	r0, r3
    2614:	16000005 	strne	r0, [r0], -r5
    2618:	00000053 	andeq	r0, r0, r3, asr r0
    261c:	a317002b 	tstge	r7, #43	; 0x2b
    2620:	01000013 	tsteq	r0, r3, lsl r0
    2624:	0005711d 	andeq	r7, r5, sp, lsl r1
    2628:	03050100 	movweq	r0, #20736	; 0x5100
    262c:	000034c4 	andeq	r3, r0, r4, asr #9
    2630:	0011b900 	andseq	fp, r1, r0, lsl #18
    2634:	08000200 	stmdaeq	r0, {r9}
    2638:	04000009 	streq	r0, [r0], #-9
    263c:	00004601 	andeq	r4, r0, r1, lsl #12
    2640:	154b0100 	strbne	r0, [fp, #-256]	; 0x100
    2644:	015d0000 	cmpeq	sp, r0
    2648:	16f00000 	ldrbtne	r0, [r0], r0
    264c:	1c340000 	ldcne	0, cr0, [r4], #-0
    2650:	0a4a0000 	beq	1282658 <__bss_end+0x127f0a4>
    2654:	01020000 	mrseq	r0, (UNDEF: 2)
    2658:	00008106 	andeq	r8, r0, r6, lsl #2
    265c:	08010200 	stmdaeq	r1, {r9}
    2660:	0000007f 	andeq	r0, r0, pc, ror r0
    2664:	a4050202 	strge	r0, [r5], #-514	; 0x202
    2668:	02000001 	andeq	r0, r0, #1
    266c:	00a30702 	adceq	r0, r3, r2, lsl #14
    2670:	17030000 	strne	r0, [r3, -r0]
    2674:	02000010 	andeq	r0, r0, #16
    2678:	00004c12 	andeq	r4, r0, r2, lsl ip
    267c:	05040400 	streq	r0, [r4, #-1024]	; 0x400
    2680:	00746e69 	rsbseq	r6, r4, r9, ror #28
    2684:	00083003 	andeq	r3, r8, r3
    2688:	5e130200 	cdppl	2, 1, cr0, cr3, cr0, {0}
    268c:	02000000 	andeq	r0, r0, #0
    2690:	01240704 	teqeq	r4, r4, lsl #14
    2694:	08020000 	stmdaeq	r2, {}	; <UNPREDICTABLE>
    2698:	00017f05 	andeq	r7, r1, r5, lsl #30
    269c:	07080200 	streq	r0, [r8, -r0, lsl #4]
    26a0:	0000011a 	andeq	r0, r0, sl, lsl r1
    26a4:	1a030405 	bne	c36c0 <__bss_end+0xc010c>
    26a8:	00000104 	andeq	r0, r0, r4, lsl #2
    26ac:	00057306 	andeq	r7, r5, r6, lsl #6
    26b0:	531c0300 	tstpl	ip, #0
    26b4:	04000000 	streq	r0, [r0], #-0
    26b8:	23021e02 	movwcs	r1, #11778	; 0x2e02
    26bc:	0a570600 	beq	15c3ec4 <__bss_end+0x15c0910>
    26c0:	1d030000 	stcne	0, cr0, [r3, #-0]
    26c4:	00000053 	andeq	r0, r0, r3, asr r0
    26c8:	02180604 	andseq	r0, r8, #4194304	; 0x400000
    26cc:	7b060023 	blvc	182760 <__bss_end+0x17f1ac>
    26d0:	03000005 	movweq	r0, #5
    26d4:	0000531e 	andeq	r5, r0, lr, lsl r3
    26d8:	10080400 	andne	r0, r8, r0, lsl #8
    26dc:	06002302 	streq	r2, [r0], -r2, lsl #6
    26e0:	0000058b 	andeq	r0, r0, fp, lsl #11
    26e4:	00531f03 	subseq	r1, r3, r3, lsl #30
    26e8:	01040000 	mrseq	r0, (UNDEF: 4)
    26ec:	0023020f 	eoreq	r0, r3, pc, lsl #4
    26f0:	000a7506 	andeq	r7, sl, r6, lsl #10
    26f4:	53200300 	teqpl	r0, #0
    26f8:	04000000 	streq	r0, [r0], #-0
    26fc:	23020807 	movwcs	r0, #10247	; 0x2807
    2700:	07770600 	ldrbeq	r0, [r7, -r0, lsl #12]!
    2704:	21030000 	mrscs	r0, (UNDEF: 3)
    2708:	00000053 	andeq	r0, r0, r3, asr r0
    270c:	02050304 	andeq	r0, r5, #268435456	; 0x10000000
    2710:	7f060023 	svcvc	0x00060023
    2714:	0300000a 	movweq	r0, #10
    2718:	00005322 	andeq	r5, r0, r2, lsr #6
    271c:	01040400 	tsteq	r4, r0, lsl #8
    2720:	06002302 	streq	r2, [r0], -r2, lsl #6
    2724:	00000a19 	andeq	r0, r0, r9, lsl sl
    2728:	00532303 	subseq	r2, r3, r3, lsl #6
    272c:	01040000 	mrseq	r0, (UNDEF: 4)
    2730:	00230200 	eoreq	r0, r3, r0, lsl #4
    2734:	03040700 	movweq	r0, #18176	; 0x4700
    2738:	00012318 	andeq	r2, r1, r8, lsl r3
    273c:	03aa0800 			; <UNDEFINED> instruction: 0x03aa0800
    2740:	19030000 	stmdbne	r3, {}	; <UNPREDICTABLE>
    2744:	00000053 	andeq	r0, r0, r3, asr r0
    2748:	00085908 	andeq	r5, r8, r8, lsl #18
    274c:	73250300 	teqvc	r5, #0
    2750:	00000000 	andeq	r0, r0, r0
    2754:	000a1f03 	andeq	r1, sl, r3, lsl #30
    2758:	04260300 	strteq	r0, [r6], #-768	; 0x300
    275c:	05000001 	streq	r0, [r0, #-1]
    2760:	bf3e0304 	svclt	0x003e0304
    2764:	06000001 	streq	r0, [r0], -r1
    2768:	00000c92 	muleq	r0, r2, ip
    276c:	00534003 	subseq	r4, r3, r3
    2770:	02040000 	andeq	r0, r4, #0
    2774:	0023021e 	eoreq	r0, r3, lr, lsl r2
    2778:	000a5706 	andeq	r5, sl, r6, lsl #14
    277c:	53410300 	movtpl	r0, #4864	; 0x1300
    2780:	04000000 	streq	r0, [r0], #-0
    2784:	2302140a 	movwcs	r1, #9226	; 0x240a
    2788:	06980600 	ldreq	r0, [r8], r0, lsl #12
    278c:	42030000 	andmi	r0, r3, #0
    2790:	00000053 	andeq	r0, r0, r3, asr r0
    2794:	02130104 	andseq	r0, r3, #1
    2798:	61060023 	tstvs	r6, r3, lsr #32
    279c:	0300000a 	movweq	r0, #10
    27a0:	00005343 	andeq	r5, r0, r3, asr #6
    27a4:	10030400 	andne	r0, r3, r0, lsl #8
    27a8:	06002302 	streq	r2, [r0], -r2, lsl #6
    27ac:	00000836 	andeq	r0, r0, r6, lsr r8
    27b0:	00534403 	subseq	r4, r3, r3, lsl #8
    27b4:	02040000 	andeq	r0, r4, #0
    27b8:	0023020e 	eoreq	r0, r3, lr, lsl #4
    27bc:	000a6b06 	andeq	r6, sl, r6, lsl #22
    27c0:	53450300 	movtpl	r0, #21248	; 0x5300
    27c4:	04000000 	streq	r0, [r0], #-0
    27c8:	2302040a 	movwcs	r0, #9226	; 0x240a
    27cc:	05f10600 	ldrbeq	r0, [r1, #1536]!	; 0x600
    27d0:	46030000 	strmi	r0, [r3], -r0
    27d4:	00000053 	andeq	r0, r0, r3, asr r0
    27d8:	02030104 	andeq	r0, r3, #1
    27dc:	75060023 	strvc	r0, [r6, #-35]	; 0x23
    27e0:	0300000a 	movweq	r0, #10
    27e4:	00005347 	andeq	r5, r0, r7, asr #6
    27e8:	00030400 	andeq	r0, r3, r0, lsl #8
    27ec:	00002302 	andeq	r2, r0, r2, lsl #6
    27f0:	3c030407 	cfstrscc	mvf0, [r3], {7}
    27f4:	000001de 	ldrdeq	r0, [r0], -lr
    27f8:	0003aa08 	andeq	sl, r3, r8, lsl #20
    27fc:	533d0300 	teqpl	sp, #0
    2800:	08000000 	stmdaeq	r0, {}	; <UNPREDICTABLE>
    2804:	00000859 	andeq	r0, r0, r9, asr r8
    2808:	012e4803 	teqeq	lr, r3, lsl #16
    280c:	03000000 	movweq	r0, #0
    2810:	00000478 	andeq	r0, r0, r8, ror r4
    2814:	01bf4903 			; <UNDEFINED> instruction: 0x01bf4903
    2818:	3c090000 	stccc	0, cr0, [r9], {-0}
    281c:	04000003 	streq	r0, [r0], #-3
    2820:	026d4f03 	rsbeq	r4, sp, #12
    2824:	57060000 	strpl	r0, [r6, -r0]
    2828:	0300000a 	movweq	r0, #10
    282c:	00005351 	andeq	r5, r0, r1, asr r3
    2830:	1c040400 	cfstrsne	mvf0, [r4], {-0}
    2834:	06002302 	streq	r2, [r0], -r2, lsl #6
    2838:	000008ad 	andeq	r0, r0, sp, lsr #17
    283c:	00535203 	subseq	r5, r3, r3, lsl #4
    2840:	02040000 	andeq	r0, r4, #0
    2844:	0023021a 	eoreq	r0, r3, sl, lsl r2
    2848:	00081906 	andeq	r1, r8, r6, lsl #18
    284c:	53530300 	cmppl	r3, #0
    2850:	04000000 	streq	r0, [r0], #-0
    2854:	23021802 	movwcs	r1, #10242	; 0x2802
    2858:	09b80600 	ldmibeq	r8!, {r9, sl}
    285c:	54030000 	strpl	r0, [r3], #-0
    2860:	00000053 	andeq	r0, r0, r3, asr r0
    2864:	02160204 	andseq	r0, r6, #1073741824	; 0x40000000
    2868:	61060023 	tstvs	r6, r3, lsr #32
    286c:	0300000a 	movweq	r0, #10
    2870:	00005355 	andeq	r5, r0, r5, asr r3
    2874:	14020400 	strne	r0, [r2], #-1024	; 0x400
    2878:	06002302 	streq	r2, [r0], -r2, lsl #6
    287c:	0000099a 	muleq	r0, sl, r9
    2880:	00535603 	subseq	r5, r3, r3, lsl #12
    2884:	02040000 	andeq	r0, r4, #0
    2888:	00230212 	eoreq	r0, r3, r2, lsl r2
    288c:	000a6b06 	andeq	r6, sl, r6, lsl #22
    2890:	53570300 	cmppl	r7, #0
    2894:	04000000 	streq	r0, [r0], #-0
    2898:	23020012 	movwcs	r0, #8210	; 0x2012
    289c:	ec030000 	stc	0, cr0, [r3], {-0}
    28a0:	0300000b 	movweq	r0, #11
    28a4:	0001e958 	andeq	lr, r1, r8, asr r9
    28a8:	03040500 	movweq	r0, #17664	; 0x4500
    28ac:	0002e75f 	andeq	lr, r2, pc, asr r7
    28b0:	06090600 	streq	r0, [r9], -r0, lsl #12
    28b4:	61030000 	mrsvs	r0, (UNDEF: 3)
    28b8:	00000053 	andeq	r0, r0, r3, asr r0
    28bc:	021b0504 	andseq	r0, fp, #16777216	; 0x1000000
    28c0:	89060023 	stmdbhi	r6, {r0, r1, r5}
    28c4:	0300000c 	movweq	r0, #12
    28c8:	00005362 	andeq	r5, r0, r2, ror #6
    28cc:	100b0400 	andne	r0, fp, r0, lsl #8
    28d0:	06002302 	streq	r2, [r0], -r2, lsl #6
    28d4:	0000060e 	andeq	r0, r0, lr, lsl #12
    28d8:	00536303 	subseq	r6, r3, r3, lsl #6
    28dc:	02040000 	andeq	r0, r4, #0
    28e0:	0023020e 	eoreq	r0, r3, lr, lsl #4
    28e4:	000a6106 	andeq	r6, sl, r6, lsl #2
    28e8:	53640300 	cmnpl	r4, #0
    28ec:	04000000 	streq	r0, [r0], #-0
    28f0:	23020806 	movwcs	r0, #10246	; 0x2806
    28f4:	05f30600 	ldrbeq	r0, [r3, #1536]!	; 0x600
    28f8:	65030000 	strvs	r0, [r3, #-0]
    28fc:	00000053 	andeq	r0, r0, r3, asr r0
    2900:	02060204 	andeq	r0, r6, #1073741824	; 0x40000000
    2904:	6b060023 	blvs	182998 <__bss_end+0x17f3e4>
    2908:	0300000a 	movweq	r0, #10
    290c:	00005366 	andeq	r5, r0, r6, ror #6
    2910:	00060400 	andeq	r0, r6, r0, lsl #8
    2914:	00002302 	andeq	r2, r0, r2, lsl #6
    2918:	5d030407 	cfstrspl	mvf0, [r3, #-28]	; 0xffffffe4
    291c:	00000306 	andeq	r0, r0, r6, lsl #6
    2920:	0003aa08 	andeq	sl, r3, r8, lsl #20
    2924:	535e0300 	cmppl	lr, #0
    2928:	08000000 	stmdaeq	r0, {}	; <UNPREDICTABLE>
    292c:	00000859 	andeq	r0, r0, r9, asr r8
    2930:	02786703 	rsbseq	r6, r8, #786432	; 0xc0000
    2934:	03000000 	movweq	r0, #0
    2938:	000008d2 	ldrdeq	r0, [r0], -r2
    293c:	02e76803 	rsceq	r6, r7, #196608	; 0x30000
    2940:	b1090000 	mrslt	r0, (UNDEF: 9)
    2944:	04000007 	streq	r0, [r0], #-7
    2948:	03406a03 	movteq	r6, #2563	; 0xa03
    294c:	6a060000 	bvs	182954 <__bss_end+0x17f3a0>
    2950:	0300000c 	movweq	r0, #12
    2954:	0000536c 	andeq	r5, r0, ip, ror #6
    2958:	10100400 	andsne	r0, r0, r0, lsl #8
    295c:	06002302 	streq	r2, [r0], -r2, lsl #6
    2960:	00000c89 	andeq	r0, r0, r9, lsl #25
    2964:	00536d03 	subseq	r6, r3, r3, lsl #26
    2968:	10040000 	andne	r0, r4, r0
    296c:	00230200 	eoreq	r0, r3, r0, lsl #4
    2970:	0b310300 	bleq	c43578 <__bss_end+0xc3ffc4>
    2974:	6e030000 	cdpvs	0, 0, cr0, cr3, cr0, {0}
    2978:	00000311 	andeq	r0, r0, r1, lsl r3
    297c:	000d0c0a 	andeq	r0, sp, sl, lsl #24
    2980:	0302dc00 	movweq	sp, #11264	; 0x2c00
    2984:	000b2170 	andeq	r2, fp, r0, ror r1
    2988:	07800b00 	streq	r0, [r0, r0, lsl #22]
    298c:	72030000 	andvc	r0, r3, #0
    2990:	00000b21 	andeq	r0, r0, r1, lsr #22
    2994:	0b002302 	bleq	b5a4 <__bss_end+0x7ff0>
    2998:	00000794 	muleq	r0, r4, r7
    299c:	0b267303 	bleq	99f5b0 <__bss_end+0x99bffc>
    29a0:	23020000 	movwcs	r0, #8192	; 0x2000
    29a4:	0d040b04 	vstreq	d0, [r4, #-16]
    29a8:	74030000 	strvc	r0, [r3], #-0
    29ac:	00000b26 	andeq	r0, r0, r6, lsr #22
    29b0:	0b082302 	bleq	20b5c0 <__bss_end+0x20800c>
    29b4:	00000a61 	andeq	r0, r0, r1, ror #20
    29b8:	0b267503 	bleq	99fdcc <__bss_end+0x99c818>
    29bc:	23020000 	movwcs	r0, #8192	; 0x2000
    29c0:	08c00b0c 	stmiaeq	r0, {r2, r3, r8, r9, fp}^
    29c4:	76030000 	strvc	r0, [r3], -r0
    29c8:	00000b26 	andeq	r0, r0, r6, lsr #22
    29cc:	0b102302 	bleq	40b5dc <__bss_end+0x408028>
    29d0:	00000a6b 	andeq	r0, r0, fp, ror #20
    29d4:	0b267703 	bleq	9a05e8 <__bss_end+0x99d034>
    29d8:	23020000 	movwcs	r0, #8192	; 0x2000
    29dc:	044a0b14 	strbeq	r0, [sl], #-2836	; 0xb14
    29e0:	78030000 	stmdavc	r3, {}	; <UNPREDICTABLE>
    29e4:	00000b26 	andeq	r0, r0, r6, lsr #22
    29e8:	0b182302 	bleq	60b5f8 <__bss_end+0x608044>
    29ec:	00000a75 	andeq	r0, r0, r5, ror sl
    29f0:	0b267903 	bleq	9a0e04 <__bss_end+0x99d850>
    29f4:	23020000 	movwcs	r0, #8192	; 0x2000
    29f8:	0a070b1c 	beq	1c5670 <__bss_end+0x1c20bc>
    29fc:	7a030000 	bvc	c2a04 <__bss_end+0xbf450>
    2a00:	00000b26 	andeq	r0, r0, r6, lsr #22
    2a04:	0b202302 	bleq	80b614 <__bss_end+0x808060>
    2a08:	00000a7f 	andeq	r0, r0, pc, ror sl
    2a0c:	0b267b03 	bleq	9a1620 <__bss_end+0x99e06c>
    2a10:	23020000 	movwcs	r0, #8192	; 0x2000
    2a14:	04020b24 	streq	r0, [r2], #-2852	; 0xb24
    2a18:	7c030000 	stcvc	0, cr0, [r3], {-0}
    2a1c:	00000b26 	andeq	r0, r0, r6, lsr #22
    2a20:	0b282302 	bleq	a0b630 <__bss_end+0xa0807c>
    2a24:	00000a89 	andeq	r0, r0, r9, lsl #21
    2a28:	0b267d03 	bleq	9a1e3c <__bss_end+0x99e888>
    2a2c:	23020000 	movwcs	r0, #8192	; 0x2000
    2a30:	09ef0b2c 	stmibeq	pc!, {r2, r3, r5, r8, r9, fp}^	; <UNPREDICTABLE>
    2a34:	7e030000 	cdpvc	0, 0, cr0, cr3, cr0, {0}
    2a38:	00000b26 	andeq	r0, r0, r6, lsr #22
    2a3c:	0b302302 	bleq	c0b64c <__bss_end+0xc08098>
    2a40:	00000a93 	muleq	r0, r3, sl
    2a44:	0b267f03 	bleq	9a2658 <__bss_end+0x99f0a4>
    2a48:	23020000 	movwcs	r0, #8192	; 0x2000
    2a4c:	07a90b34 			; <UNDEFINED> instruction: 0x07a90b34
    2a50:	80030000 	andhi	r0, r3, r0
    2a54:	00000b26 	andeq	r0, r0, r6, lsr #22
    2a58:	0b382302 	bleq	e0b668 <__bss_end+0xe080b4>
    2a5c:	00000a9d 	muleq	r0, sp, sl
    2a60:	0b268103 	bleq	9a2e74 <__bss_end+0x99f8c0>
    2a64:	23020000 	movwcs	r0, #8192	; 0x2000
    2a68:	0b1f0b3c 	bleq	7c5760 <__bss_end+0x7c21ac>
    2a6c:	82030000 	andhi	r0, r3, #0
    2a70:	00000b26 	andeq	r0, r0, r6, lsr #22
    2a74:	0b402302 	bleq	100b684 <__bss_end+0x10080d0>
    2a78:	00000d7f 	andeq	r0, r0, pc, ror sp
    2a7c:	0b268303 	bleq	9a3690 <__bss_end+0x9a00dc>
    2a80:	23020000 	movwcs	r0, #8192	; 0x2000
    2a84:	04410b44 	strbeq	r0, [r1], #-2884	; 0xb44
    2a88:	84030000 	strhi	r0, [r3], #-0
    2a8c:	00000b26 	andeq	r0, r0, r6, lsr #22
    2a90:	0b482302 	bleq	120b6a0 <__bss_end+0x12080ec>
    2a94:	00000bc8 	andeq	r0, r0, r8, asr #23
    2a98:	0b268503 	bleq	9a3eac <__bss_end+0x9a08f8>
    2a9c:	23020000 	movwcs	r0, #8192	; 0x2000
    2aa0:	08c80b4c 	stmiaeq	r8, {r2, r3, r6, r8, r9, fp}^
    2aa4:	86030000 	strhi	r0, [r3], -r0
    2aa8:	00000b2b 	andeq	r0, r0, fp, lsr #22
    2aac:	0b502302 	bleq	140b6bc <__bss_end+0x1408108>
    2ab0:	000008ad 	andeq	r0, r0, sp, lsr #17
    2ab4:	0b308703 	bleq	c246c8 <__bss_end+0xc21114>
    2ab8:	23020000 	movwcs	r0, #8192	; 0x2000
    2abc:	05830b54 	streq	r0, [r3, #2900]	; 0xb54
    2ac0:	88030000 	stmdahi	r3, {}	; <UNPREDICTABLE>
    2ac4:	00000b35 	andeq	r0, r0, r5, lsr fp
    2ac8:	0b582302 	bleq	160b6d8 <__bss_end+0x1608124>
    2acc:	00000a35 	andeq	r0, r0, r5, lsr sl
    2ad0:	0b268903 	bleq	9a4ee4 <__bss_end+0x9a1930>
    2ad4:	23020000 	movwcs	r0, #8192	; 0x2000
    2ad8:	0b160b5c 	bleq	585850 <__bss_end+0x58229c>
    2adc:	8a030000 	bhi	c2ae4 <__bss_end+0xbf530>
    2ae0:	00000b26 	andeq	r0, r0, r6, lsr #22
    2ae4:	0b602302 	bleq	180b6f4 <__bss_end+0x1808140>
    2ae8:	0000073a 	andeq	r0, r0, sl, lsr r7
    2aec:	0b268b03 	bleq	9a5700 <__bss_end+0x9a214c>
    2af0:	23020000 	movwcs	r0, #8192	; 0x2000
    2af4:	0c9c0b64 	vldmiaeq	ip, {d0-<overflow reg d49>}
    2af8:	8c030000 	stchi	0, cr0, [r3], {-0}
    2afc:	00000b26 	andeq	r0, r0, r6, lsr #22
    2b00:	0b682302 	bleq	1a0b710 <__bss_end+0x1a0815c>
    2b04:	00000947 	andeq	r0, r0, r7, asr #18
    2b08:	0b268d03 	bleq	9a5f1c <__bss_end+0x9a2968>
    2b0c:	23020000 	movwcs	r0, #8192	; 0x2000
    2b10:	0aa70b6c 	beq	fe9c58c8 <__bss_end+0xfe9c2314>
    2b14:	8e030000 	cdphi	0, 0, cr0, cr3, cr0, {0}
    2b18:	00000b4a 	andeq	r0, r0, sl, asr #22
    2b1c:	0b702302 	bleq	1c0b72c <__bss_end+0x1c08178>
    2b20:	00000d75 	andeq	r0, r0, r5, ror sp
    2b24:	0b268f03 	bleq	9a6738 <__bss_end+0x9a3184>
    2b28:	23020000 	movwcs	r0, #8192	; 0x2000
    2b2c:	03ee0b78 	mvneq	r0, #122880	; 0x1e000
    2b30:	90030000 	andls	r0, r3, r0
    2b34:	00000b26 	andeq	r0, r0, r6, lsr #22
    2b38:	0b7c2302 	bleq	1f0b748 <__bss_end+0x1f08194>
    2b3c:	00000d42 	andeq	r0, r0, r2, asr #26
    2b40:	0b269103 	bleq	9a6f54 <__bss_end+0x9a39a0>
    2b44:	23030000 	movwcs	r0, #12288	; 0x3000
    2b48:	a50b0180 	strge	r0, [fp, #-384]	; 0x180
    2b4c:	0300000c 	movweq	r0, #12
    2b50:	000b2692 	muleq	fp, r2, r6
    2b54:	84230300 	strthi	r0, [r3], #-768	; 0x300
    2b58:	64530c01 	ldrbvs	r0, [r3], #-3073	; 0xc01
    2b5c:	93030030 	movwls	r0, #12336	; 0x3030
    2b60:	00000b26 	andeq	r0, r0, r6, lsr #22
    2b64:	01882303 	orreq	r2, r8, r3, lsl #6
    2b68:	3164530c 	cmncc	r4, ip, lsl #6
    2b6c:	26940300 	ldrcs	r0, [r4], r0, lsl #6
    2b70:	0300000b 	movweq	r0, #11
    2b74:	0c018c23 	stceq	12, cr8, [r1], {35}	; 0x23
    2b78:	00326453 	eorseq	r6, r2, r3, asr r4
    2b7c:	0b269503 	bleq	9a7f90 <__bss_end+0x9a49dc>
    2b80:	23030000 	movwcs	r0, #12288	; 0x3000
    2b84:	b00b0190 	mullt	fp, r0, r1
    2b88:	0300000c 	movweq	r0, #12
    2b8c:	000b4f96 	muleq	fp, r6, pc	; <UNPREDICTABLE>
    2b90:	94230300 	strtls	r0, [r3], #-768	; 0x300
    2b94:	73530c01 	cmpvc	r3, #256	; 0x100
    2b98:	26970300 	ldrcs	r0, [r7], r0, lsl #6
    2b9c:	0300000b 	movweq	r0, #11
    2ba0:	0b019c23 	bleq	69c34 <__bss_end+0x66680>
    2ba4:	00000b0c 	andeq	r0, r0, ip, lsl #22
    2ba8:	0b269803 	bleq	9a8bbc <__bss_end+0x9a5608>
    2bac:	23030000 	movwcs	r0, #12288	; 0x3000
    2bb0:	110b01a0 	smlatbne	fp, r0, r1, r0
    2bb4:	0300000b 	movweq	r0, #11
    2bb8:	000b2699 	muleq	fp, r9, r6
    2bbc:	a4230300 	strtge	r0, [r3], #-768	; 0x300
    2bc0:	0cbb0b01 	fldmiaxeq	fp!, {d0-d-1}	;@ Deprecated
    2bc4:	9a030000 	bls	c2bcc <__bss_end+0xbf618>
    2bc8:	00000b54 	andeq	r0, r0, r4, asr fp
    2bcc:	01a82303 			; <UNDEFINED> instruction: 0x01a82303
    2bd0:	0004320b 	andeq	r3, r4, fp, lsl #4
    2bd4:	269b0300 	ldrcs	r0, [fp], r0, lsl #6
    2bd8:	0300000b 	movweq	r0, #11
    2bdc:	0b01b023 	bleq	6ec70 <__bss_end+0x6b6bc>
    2be0:	00000437 	andeq	r0, r0, r7, lsr r4
    2be4:	0b269c03 	bleq	9a9bf8 <__bss_end+0x9a6644>
    2be8:	23030000 	movwcs	r0, #12288	; 0x3000
    2bec:	3c0b01b4 	stfccs	f0, [fp], {180}	; 0xb4
    2bf0:	03000004 	movweq	r0, #4
    2bf4:	000b269d 	muleq	fp, sp, r6
    2bf8:	b8230300 	stmdalt	r3!, {r8, r9}
    2bfc:	04f50b01 	ldrbteq	r0, [r5], #2817	; 0xb01
    2c00:	9e030000 	cdpls	0, 0, cr0, cr3, cr0, {0}
    2c04:	00000b26 	andeq	r0, r0, r6, lsr #22
    2c08:	01bc2303 			; <UNDEFINED> instruction: 0x01bc2303
    2c0c:	00093e0b 	andeq	r3, r9, fp, lsl #28
    2c10:	269f0300 	ldrcs	r0, [pc], r0, lsl #6
    2c14:	0300000b 	movweq	r0, #11
    2c18:	0b01c023 	bleq	72cac <__bss_end+0x6f6f8>
    2c1c:	0000088b 	andeq	r0, r0, fp, lsl #17
    2c20:	0b59a003 	bleq	166ac34 <__bss_end+0x1667680>
    2c24:	23030000 	movwcs	r0, #12288	; 0x3000
    2c28:	550c01c4 	strpl	r0, [ip, #-452]	; 0x1c4
    2c2c:	03006273 	movweq	r6, #627	; 0x273
    2c30:	000b26a1 	andeq	r2, fp, r1, lsr #13
    2c34:	cc230300 	stcgt	3, cr0, [r3], #-0
    2c38:	0c390b01 	ldceq	11, cr0, [r9], #-4
    2c3c:	a2030000 	andge	r0, r3, #0
    2c40:	00000b26 	andeq	r0, r0, r6, lsr #22
    2c44:	01d02303 	bicseq	r2, r0, r3, lsl #6
    2c48:	0007c80b 	andeq	ip, r7, fp, lsl #16
    2c4c:	6ea30300 	cdpvs	3, 10, cr0, cr3, cr0, {0}
    2c50:	0300000b 	movweq	r0, #11
    2c54:	0b01d423 	bleq	77ce8 <__bss_end+0x74734>
    2c58:	00000cf8 	strdeq	r0, [r0], -r8
    2c5c:	0b26a403 	bleq	9abc70 <__bss_end+0x9a86bc>
    2c60:	23030000 	movwcs	r0, #12288	; 0x3000
    2c64:	e40b01f0 	str	r0, [fp], #-496	; 0x1f0
    2c68:	0300000b 	movweq	r0, #11
    2c6c:	000b26a5 	andeq	r2, fp, r5, lsr #13
    2c70:	f4230300 	vld2.8	{d0-d3}, [r3], r0
    2c74:	0c730b01 	ldcleq	11, cr0, [r3], #-4
    2c78:	a6030000 	strge	r0, [r3], -r0
    2c7c:	00000b26 	andeq	r0, r0, r6, lsr #22
    2c80:	01f82303 	mvnseq	r2, r3, lsl #6
    2c84:	0009c00b 	andeq	ip, r9, fp
    2c88:	26a70300 	strtcs	r0, [r7], r0, lsl #6
    2c8c:	0300000b 	movweq	r0, #11
    2c90:	0b01fc23 	bleq	81d24 <__bss_end+0x7e770>
    2c94:	00000991 	muleq	r0, r1, r9
    2c98:	0b26a803 	bleq	9accac <__bss_end+0x9a96f8>
    2c9c:	23030000 	movwcs	r0, #12288	; 0x3000
    2ca0:	880b0280 	stmdahi	fp, {r7, r9}
    2ca4:	03000007 	movweq	r0, #7
    2ca8:	000b26a9 	andeq	r2, fp, r9, lsr #13
    2cac:	84230300 	strthi	r0, [r3], #-768	; 0x300
    2cb0:	03860b02 	orreq	r0, r6, #2048	; 0x800
    2cb4:	aa030000 	bge	c2cbc <__bss_end+0xbf708>
    2cb8:	00000b26 	andeq	r0, r0, r6, lsr #22
    2cbc:	02882303 	addeq	r2, r8, #201326592	; 0xc000000
    2cc0:	0004dc0b 	andeq	sp, r4, fp, lsl #24
    2cc4:	26ab0300 	strtcs	r0, [fp], r0, lsl #6
    2cc8:	0300000b 	movweq	r0, #11
    2ccc:	0b028c23 	bleq	a5d60 <__bss_end+0xa27ac>
    2cd0:	00000392 	muleq	r0, r2, r3
    2cd4:	0b26ac03 	bleq	9adce8 <__bss_end+0x9aa734>
    2cd8:	23030000 	movwcs	r0, #12288	; 0x3000
    2cdc:	9e0b0290 	mcrls	2, 0, r0, cr11, cr0, {4}
    2ce0:	03000003 	movweq	r0, #3
    2ce4:	000b26ad 	andeq	r2, fp, sp, lsr #13
    2ce8:	94230300 	strtls	r0, [r3], #-768	; 0x300
    2cec:	03de0b02 	bicseq	r0, lr, #2048	; 0x800
    2cf0:	ae030000 	cdpge	0, 0, cr0, cr3, cr0, {0}
    2cf4:	00000b26 	andeq	r0, r0, r6, lsr #22
    2cf8:	02982303 	addseq	r2, r8, #201326592	; 0xc000000
    2cfc:	0003e60b 	andeq	lr, r3, fp, lsl #12
    2d00:	26af0300 	strtcs	r0, [pc], r0, lsl #6
    2d04:	0300000b 	movweq	r0, #11
    2d08:	0b029c23 	bleq	a9d9c <__bss_end+0xa67e8>
    2d0c:	000007d9 	ldrdeq	r0, [r0], -r9
    2d10:	0b83b003 	bleq	fe0eed24 <__bss_end+0xfe0eb770>
    2d14:	23030000 	movwcs	r0, #12288	; 0x3000
    2d18:	3d0b02a0 	sfmcc	f0, 4, [fp, #-640]	; 0xfffffd80
    2d1c:	0300000a 	movweq	r0, #10
    2d20:	000b26b1 			; <UNDEFINED> instruction: 0x000b26b1
    2d24:	b0230300 	eorlt	r0, r3, r0, lsl #6
    2d28:	0ad60b02 	beq	ff585938 <__bss_end+0xff582384>
    2d2c:	b2030000 	andlt	r0, r3, #0
    2d30:	00000b26 	andeq	r0, r0, r6, lsr #22
    2d34:	02b42303 	adcseq	r2, r4, #201326592	; 0xc000000
    2d38:	00040a0b 	andeq	r0, r4, fp, lsl #20
    2d3c:	26b30300 	ldrtcs	r0, [r3], r0, lsl #6
    2d40:	0300000b 	movweq	r0, #11
    2d44:	0c02b823 	stceq	8, cr11, [r2], {35}	; 0x23
    2d48:	03006556 	movweq	r6, #1366	; 0x556
    2d4c:	000b26b4 			; <UNDEFINED> instruction: 0x000b26b4
    2d50:	bc230300 	stclt	3, cr0, [r3], #-0
    2d54:	09840b02 	stmibeq	r4, {r1, r8, r9, fp}
    2d58:	b5030000 	strlt	r0, [r3, #-0]
    2d5c:	00000b26 	andeq	r0, r0, r6, lsr #22
    2d60:	02c02303 	sbceq	r2, r0, #201326592	; 0xc000000
    2d64:	7376410c 	cmnvc	r6, #3
    2d68:	26b60300 	ldrtcs	r0, [r6], r0, lsl #6
    2d6c:	0300000b 	movweq	r0, #11
    2d70:	0b02c423 	bleq	b3e04 <__bss_end+0xb0850>
    2d74:	00000416 	andeq	r0, r0, r6, lsl r4
    2d78:	0b26b703 	bleq	9b098c <__bss_end+0x9ad3d8>
    2d7c:	23030000 	movwcs	r0, #12288	; 0x3000
    2d80:	e40b02c8 	str	r0, [fp], #-712	; 0x2c8
    2d84:	03000007 	movweq	r0, #7
    2d88:	000b26b8 			; <UNDEFINED> instruction: 0x000b26b8
    2d8c:	cc230300 	stcgt	3, cr0, [r3], #-0
    2d90:	08960b02 	ldmeq	r6, {r1, r8, r9, fp}
    2d94:	b9030000 	stmdblt	r3, {}	; <UNPREDICTABLE>
    2d98:	00000b26 	andeq	r0, r0, r6, lsr #22
    2d9c:	02d02303 	sbcseq	r2, r0, #201326592	; 0xc000000
    2da0:	000b680b 	andeq	r6, fp, fp, lsl #16
    2da4:	26ba0300 	ldrtcs	r0, [sl], r0, lsl #6
    2da8:	0300000b 	movweq	r0, #11
    2dac:	0b02d423 	bleq	b7e40 <__bss_end+0xb488c>
    2db0:	000004ba 			; <UNDEFINED> instruction: 0x000004ba
    2db4:	0b26bb03 	bleq	9b19c8 <__bss_end+0x9ae414>
    2db8:	23030000 	movwcs	r0, #12288	; 0x3000
    2dbc:	040b02d8 	streq	r0, [fp], #-728	; 0x2d8
    2dc0:	03000005 	movweq	r0, #5
    2dc4:	000b26bc 			; <UNDEFINED> instruction: 0x000b26bc
    2dc8:	dc230300 	stcle	3, cr0, [r3], #-0
    2dcc:	04c60b02 	strbeq	r0, [r6], #2818	; 0xb02
    2dd0:	bd030000 	stclt	0, cr0, [r3, #-0]
    2dd4:	00000b26 	andeq	r0, r0, r6, lsr #22
    2dd8:	02e02303 	rsceq	r2, r0, #201326592	; 0xc000000
    2ddc:	0007ef0b 	andeq	lr, r7, fp, lsl #30
    2de0:	26be0300 	ldrtcs	r0, [lr], r0, lsl #6
    2de4:	0300000b 	movweq	r0, #11
    2de8:	0b02e423 	bleq	bbe7c <__bss_end+0xb88c8>
    2dec:	00000ab6 			; <UNDEFINED> instruction: 0x00000ab6
    2df0:	0b26bf03 	bleq	9b2a04 <__bss_end+0x9af450>
    2df4:	23030000 	movwcs	r0, #12288	; 0x3000
    2df8:	c20b02e8 	andgt	r0, fp, #-2147483634	; 0x8000000e
    2dfc:	0300000a 	movweq	r0, #10
    2e00:	000b26c0 	andeq	r2, fp, r0, asr #13
    2e04:	ec230300 	stc	3, cr0, [r3], #-0
    2e08:	07fa0b02 	ldrbeq	r0, [sl, r2, lsl #22]!
    2e0c:	c1030000 	mrsgt	r0, (UNDEF: 3)
    2e10:	00000b88 	andeq	r0, r0, r8, lsl #23
    2e14:	02f02303 	rscseq	r2, r0, #201326592	; 0xc000000
    2e18:	000cc60b 	andeq	ip, ip, fp, lsl #12
    2e1c:	26c20300 	strbcs	r0, [r2], r0, lsl #6
    2e20:	0300000b 	movweq	r0, #11
    2e24:	0b038023 	bleq	e2eb8 <__bss_end+0xdf904>
    2e28:	0000065b 	andeq	r0, r0, fp, asr r6
    2e2c:	0b26c303 	bleq	9b3a40 <__bss_end+0x9b048c>
    2e30:	23030000 	movwcs	r0, #12288	; 0x3000
    2e34:	670b0384 	strvs	r0, [fp, -r4, lsl #7]
    2e38:	03000006 	movweq	r0, #6
    2e3c:	000b26c4 	andeq	r2, fp, r4, asr #13
    2e40:	88230300 	stmdahi	r3!, {r8, r9}
    2e44:	06730b03 	ldrbteq	r0, [r3], -r3, lsl #22
    2e48:	c5030000 	strgt	r0, [r3, #-0]
    2e4c:	00000b26 	andeq	r0, r0, r6, lsr #22
    2e50:	038c2303 	orreq	r2, ip, #201326592	; 0xc000000
    2e54:	0008050b 	andeq	r0, r8, fp, lsl #10
    2e58:	8dc60300 	stclhi	3, cr0, [r6]
    2e5c:	0300000b 	movweq	r0, #11
    2e60:	0b039023 	bleq	e6ef4 <__bss_end+0xe3940>
    2e64:	00000690 	muleq	r0, r0, r6
    2e68:	0b26c703 	bleq	9b4a7c <__bss_end+0x9b14c8>
    2e6c:	23030000 	movwcs	r0, #12288	; 0x3000
    2e70:	fa0b03a0 	blx	2c3cf8 <__bss_end+0x2c0744>
    2e74:	03000005 	movweq	r0, #5
    2e78:	000b26c8 	andeq	r2, fp, r8, asr #13
    2e7c:	a4230300 	strtge	r0, [r3], #-768	; 0x300
    2e80:	08ee0b03 	stmiaeq	lr!, {r0, r1, r8, r9, fp}^
    2e84:	c9030000 	stmdbgt	r3, {}	; <UNPREDICTABLE>
    2e88:	00000b26 	andeq	r0, r0, r6, lsr #22
    2e8c:	03a82303 			; <UNDEFINED> instruction: 0x03a82303
    2e90:	0006e50b 	andeq	lr, r6, fp, lsl #10
    2e94:	26ca0300 	strbcs	r0, [sl], r0, lsl #6
    2e98:	0300000b 	movweq	r0, #11
    2e9c:	0b03ac23 	bleq	edf30 <__bss_end+0xea97c>
    2ea0:	000006f1 	strdeq	r0, [r0], -r1
    2ea4:	0b26cb03 	bleq	9b5ab8 <__bss_end+0x9b2504>
    2ea8:	23030000 	movwcs	r0, #12288	; 0x3000
    2eac:	b50b03b0 	strlt	r0, [fp, #-944]	; 0x3b0
    2eb0:	03000008 	movweq	r0, #8
    2eb4:	000ba2cc 	andeq	sl, fp, ip, asr #5
    2eb8:	b4230300 	strtlt	r0, [r3], #-768	; 0x300
    2ebc:	03be0b03 			; <UNDEFINED> instruction: 0x03be0b03
    2ec0:	cd030000 	stcgt	0, cr0, [r3, #-0]
    2ec4:	00000b26 	andeq	r0, r0, r6, lsr #22
    2ec8:	03c02303 	biceq	r2, r0, #201326592	; 0xc000000
    2ecc:	00079d0b 	andeq	r9, r7, fp, lsl #26
    2ed0:	b7ce0300 	strblt	r0, [lr, r0, lsl #6]
    2ed4:	0300000b 	movweq	r0, #11
    2ed8:	0b03c423 	bleq	f3f6c <__bss_end+0xf09b8>
    2edc:	0000067f 	andeq	r0, r0, pc, ror r6
    2ee0:	0bbccf03 	bleq	fef36af4 <__bss_end+0xfef33540>
    2ee4:	23030000 	movwcs	r0, #12288	; 0x3000
    2ee8:	640b0480 	strvs	r0, [fp], #-1152	; 0x480
    2eec:	03000009 	movweq	r0, #9
    2ef0:	000b26d0 	ldrdeq	r2, [fp], -r0
    2ef4:	84230300 	strthi	r0, [r3], #-768	; 0x300
    2ef8:	0c7d0b04 	ldcleq	11, cr0, [sp], #-16
    2efc:	d1030000 	mrsle	r0, (UNDEF: 3)
    2f00:	00000b26 	andeq	r0, r0, r6, lsr #22
    2f04:	04882303 	streq	r2, [r8], #771	; 0x303
    2f08:	000c450b 	andeq	r4, ip, fp, lsl #10
    2f0c:	26d20300 	ldrbcs	r0, [r2], r0, lsl #6
    2f10:	0300000b 	movweq	r0, #11
    2f14:	0b048c23 	bleq	125fa8 <__bss_end+0x1229f4>
    2f18:	00000593 	muleq	r0, r3, r5
    2f1c:	0bc1d303 	bleq	ff077b30 <__bss_end+0xff07457c>
    2f20:	23030000 	movwcs	r0, #12288	; 0x3000
    2f24:	500b0490 	mulpl	fp, r0, r4
    2f28:	03000008 	movweq	r0, #8
    2f2c:	000bd6d5 	ldrdeq	sp, [fp], -r5
    2f30:	a0230300 	eorge	r0, r3, r0, lsl #6
    2f34:	04960b04 	ldreq	r0, [r6], #2820	; 0xb04
    2f38:	d6030000 	strle	r0, [r3], -r0
    2f3c:	00000b26 	andeq	r0, r0, r6, lsr #22
    2f40:	04a42303 	strteq	r2, [r4], #771	; 0x303
    2f44:	0003b00b 	andeq	fp, r3, fp
    2f48:	26d70300 	ldrbcs	r0, [r7], r0, lsl #6
    2f4c:	0300000b 	movweq	r0, #11
    2f50:	0b04a823 	bleq	12cfe4 <__bss_end+0x129a30>
    2f54:	00000874 	andeq	r0, r0, r4, ror r8
    2f58:	0b26d803 	bleq	9b8f6c <__bss_end+0x9b59b8>
    2f5c:	23030000 	movwcs	r0, #12288	; 0x3000
    2f60:	cd0b04ac 	cfstrsgt	mvf0, [fp, #-688]	; 0xfffffd50
    2f64:	03000006 	movweq	r0, #6
    2f68:	000b26d9 	ldrdeq	r2, [fp], -r9
    2f6c:	b0230300 	eorlt	r0, r3, r0, lsl #6
    2f70:	0b4a0b04 	bleq	1285b88 <__bss_end+0x12825d4>
    2f74:	da030000 	ble	c2f7c <__bss_end+0xbf9c8>
    2f78:	00000b26 	andeq	r0, r0, r6, lsr #22
    2f7c:	04b42303 	ldrteq	r2, [r4], #771	; 0x303
    2f80:	000d340b 	andeq	r3, sp, fp, lsl #8
    2f84:	26db0300 	ldrbcs	r0, [fp], r0, lsl #6
    2f88:	0300000b 	movweq	r0, #11
    2f8c:	0b04b823 	bleq	131020 <__bss_end+0x12da6c>
    2f90:	000005d5 	ldrdeq	r0, [r0], -r5
    2f94:	0b26dc03 	bleq	9b9fa8 <__bss_end+0x9b69f4>
    2f98:	23030000 	movwcs	r0, #12288	; 0x3000
    2f9c:	d80b04bc 	stmdale	fp, {r2, r3, r4, r5, r7, sl}
    2fa0:	03000006 	movweq	r0, #6
    2fa4:	000b26dd 	ldrdeq	r2, [fp], -sp
    2fa8:	c0230300 	eorgt	r0, r3, r0, lsl #6
    2fac:	04e90b04 	strbteq	r0, [r9], #2820	; 0xb04
    2fb0:	de030000 	cdple	0, 0, cr0, cr3, cr0, {0}
    2fb4:	00000b26 	andeq	r0, r0, r6, lsr #22
    2fb8:	04c42303 	strbeq	r2, [r4], #771	; 0x303
    2fbc:	0009ae0b 	andeq	sl, r9, fp, lsl #28
    2fc0:	26df0300 	ldrbcs	r0, [pc], r0, lsl #6
    2fc4:	0300000b 	movweq	r0, #11
    2fc8:	0b04c823 	bleq	13505c <__bss_end+0x131aa8>
    2fcc:	000009e1 	andeq	r0, r0, r1, ror #19
    2fd0:	0b26e003 	bleq	9bafe4 <__bss_end+0x9b7a30>
    2fd4:	23030000 	movwcs	r0, #12288	; 0x3000
    2fd8:	fc0b04cc 	stc2	4, cr0, [fp], {204}	; 0xcc
    2fdc:	03000004 	movweq	r0, #4
    2fe0:	000b26e2 	andeq	r2, fp, r2, ror #13
    2fe4:	d0230300 	eorle	r0, r3, r0, lsl #6
    2fe8:	09a50b04 	stmibeq	r5!, {r2, r8, r9, fp}
    2fec:	e3030000 	movw	r0, #12288	; 0x3000
    2ff0:	00000b26 	andeq	r0, r0, r6, lsr #22
    2ff4:	04d42303 	ldrbeq	r2, [r4], #771	; 0x303
    2ff8:	00059f0b 	andeq	r9, r5, fp, lsl #30
    2ffc:	dbe50300 	blle	ff943c04 <__bss_end+0xff940650>
    3000:	0300000b 	movweq	r0, #11
    3004:	0b04d823 	bleq	139098 <__bss_end+0x135ae4>
    3008:	000009fa 	strdeq	r0, [r0], -sl
    300c:	0b26e603 	bleq	9bc820 <__bss_end+0x9b926c>
    3010:	23030000 	movwcs	r0, #12288	; 0x3000
    3014:	ab0b04e0 	blge	2c439c <__bss_end+0x2c0de8>
    3018:	03000005 	movweq	r0, #5
    301c:	000be0e7 	andeq	lr, fp, r7, ror #1
    3020:	e4230300 	strt	r0, [r3], #-768	; 0x300
    3024:	055e0b04 	ldrbeq	r0, [lr, #-2820]	; 0xb04
    3028:	e8030000 	stmda	r3, {}	; <UNPREDICTABLE>
    302c:	00000b26 	andeq	r0, r0, r6, lsr #22
    3030:	04f02303 	ldrbteq	r2, [r0], #771	; 0x303
    3034:	0005b70b 	andeq	fp, r5, fp, lsl #14
    3038:	e5e90300 	strb	r0, [r9, #768]!	; 0x300
    303c:	0300000b 	movweq	r0, #11
    3040:	0b04f423 	bleq	1400d4 <__bss_end+0x13cb20>
    3044:	0000091a 	andeq	r0, r0, sl, lsl r9
    3048:	0b26ea03 	bleq	9bd85c <__bss_end+0x9ba2a8>
    304c:	23030000 	movwcs	r0, #12288	; 0x3000
    3050:	cd0b0580 	cfstr32gt	mvfx0, [fp, #-512]	; 0xfffffe00
    3054:	03000009 	movweq	r0, #9
    3058:	000b26ec 	andeq	r2, fp, ip, ror #13
    305c:	84230300 	strthi	r0, [r3], #-768	; 0x300
    3060:	06a20b05 	strteq	r0, [r2], r5, lsl #22
    3064:	ed030000 	stc	0, cr0, [r3, #-0]
    3068:	00000b26 	andeq	r0, r0, r6, lsr #22
    306c:	05882303 	streq	r2, [r8, #771]	; 0x303
    3070:	00096d0b 	andeq	r6, r9, fp, lsl #26
    3074:	26ee0300 	strbtcs	r0, [lr], r0, lsl #6
    3078:	0300000b 	movweq	r0, #11
    307c:	0b058c23 	bleq	166110 <__bss_end+0x162b5c>
    3080:	00000b74 	andeq	r0, r0, r4, ror fp
    3084:	0b26ef03 	bleq	9bec98 <__bss_end+0x9bb6e4>
    3088:	23030000 	movwcs	r0, #12288	; 0x3000
    308c:	c90b0590 	stmdbgt	fp, {r4, r7, r8, sl}
    3090:	03000005 	movweq	r0, #5
    3094:	000beaf0 	strdeq	lr, [fp], -r0
    3098:	94230300 	strtls	r0, [r3], #-768	; 0x300
    309c:	09500b05 	ldmdbeq	r0, {r0, r2, r8, r9, fp}^
    30a0:	f1030000 			; <UNDEFINED> instruction: 0xf1030000
    30a4:	00000b26 	andeq	r0, r0, r6, lsr #22
    30a8:	05a42303 	streq	r2, [r4, #771]!	; 0x303
    30ac:	000c550b 	andeq	r5, ip, fp, lsl #10
    30b0:	26f20300 	ldrbtcs	r0, [r2], r0, lsl #6
    30b4:	0300000b 	movweq	r0, #11
    30b8:	0b05a823 	bleq	16d14c <__bss_end+0x169b98>
    30bc:	00000356 	andeq	r0, r0, r6, asr r3
    30c0:	0b26f303 	bleq	9bfcd4 <__bss_end+0x9bc720>
    30c4:	23030000 	movwcs	r0, #12288	; 0x3000
    30c8:	d20b05ac 	andle	r0, fp, #721420288	; 0x2b000000
    30cc:	0300000b 	movweq	r0, #11
    30d0:	000b26f4 	strdeq	r2, [fp], -r4
    30d4:	b0230300 	eorlt	r0, r3, r0, lsl #6
    30d8:	03630b05 	cmneq	r3, #5120	; 0x1400
    30dc:	f5030000 			; <UNDEFINED> instruction: 0xf5030000
    30e0:	00000bef 	andeq	r0, r0, pc, ror #23
    30e4:	05b42303 	ldreq	r2, [r4, #771]!	; 0x303
    30e8:	0008fc0b 	andeq	pc, r8, fp, lsl #24
    30ec:	26f70300 	ldrbtcs	r0, [r7], r0, lsl #6
    30f0:	0300000b 	movweq	r0, #11
    30f4:	0b05c023 	bleq	173188 <__bss_end+0x16fbd4>
    30f8:	00000906 	andeq	r0, r0, r6, lsl #18
    30fc:	0b26f803 	bleq	9c1110 <__bss_end+0x9bdb5c>
    3100:	23030000 	movwcs	r0, #12288	; 0x3000
    3104:	100b05c4 	andne	r0, fp, r4, asr #11
    3108:	03000009 	movweq	r0, #9
    310c:	000b26f9 	strdeq	r2, [fp], -r9
    3110:	c8230300 	stmdagt	r3!, {r8, r9}
    3114:	085e0b05 	ldmdaeq	lr, {r0, r2, r8, r9, fp}^
    3118:	fa030000 	blx	c3120 <__bss_end+0xbfb6c>
    311c:	00000b26 	andeq	r0, r0, r6, lsr #22
    3120:	05cc2303 	strbeq	r2, [ip, #771]	; 0x303
    3124:	000a4d0b 	andeq	r4, sl, fp, lsl #26
    3128:	26fb0300 	ldrbtcs	r0, [fp], r0, lsl #6
    312c:	0300000b 	movweq	r0, #11
    3130:	0b05d023 	bleq	1771c4 <__bss_end+0x173c10>
    3134:	00000869 	andeq	r0, r0, r9, ror #16
    3138:	0b26fc03 	bleq	9c214c <__bss_end+0x9beb98>
    313c:	23030000 	movwcs	r0, #12288	; 0x3000
    3140:	2a0b05d4 	bcs	2c4898 <__bss_end+0x2c12e4>
    3144:	03000006 	movweq	r0, #6
    3148:	000b26fd 	strdeq	r2, [fp], -sp
    314c:	d8230300 	stmdale	r3!, {r8, r9}
    3150:	230d0005 	movwcs	r0, #53253	; 0xd005
    3154:	0d000001 	stceq	0, cr0, [r0, #-4]
    3158:	00000053 	andeq	r0, r0, r3, asr r0
    315c:	0001de0d 	andeq	sp, r1, sp, lsl #28
    3160:	026d0d00 	rsbeq	r0, sp, #0
    3164:	060d0000 	streq	r0, [sp], -r0
    3168:	0e000003 	cdpeq	0, 0, cr0, cr0, cr3, {0}
    316c:	00000053 	andeq	r0, r0, r3, asr r0
    3170:	00000b4a 	andeq	r0, r0, sl, asr #22
    3174:	00005e0f 	andeq	r5, r0, pc, lsl #28
    3178:	0d000100 	stfeqs	f0, [r0, #-0]
    317c:	00000b3a 	andeq	r0, r0, sl, lsr fp
    3180:	000b3a0d 	andeq	r3, fp, sp, lsl #20
    3184:	0b3a0d00 	bleq	e8658c <__bss_end+0xe82fd8>
    3188:	3a0d0000 	bcc	343190 <__bss_end+0x33fbdc>
    318c:	0e00000b 	cdpeq	0, 0, cr0, cr0, cr11, {0}
    3190:	00000053 	andeq	r0, r0, r3, asr r0
    3194:	00000b6e 	andeq	r0, r0, lr, ror #22
    3198:	00005e0f 	andeq	r5, r0, pc, lsl #28
    319c:	0d000600 	stceq	6, cr0, [r0, #-0]
    31a0:	00000b5e 	andeq	r0, r0, lr, asr fp
    31a4:	0000530e 	andeq	r5, r0, lr, lsl #6
    31a8:	000b8300 	andeq	r8, fp, r0, lsl #6
    31ac:	005e0f00 	subseq	r0, lr, r0, lsl #30
    31b0:	00030000 	andeq	r0, r3, r0
    31b4:	000b730d 	andeq	r7, fp, sp, lsl #6
    31b8:	0b730d00 	bleq	1cc65c0 <__bss_end+0x1cc300c>
    31bc:	730d0000 	movwvc	r0, #53248	; 0xd000
    31c0:	0e00000b 	cdpeq	0, 0, cr0, cr0, cr11, {0}
    31c4:	00000053 	andeq	r0, r0, r3, asr r0
    31c8:	00000ba2 	andeq	r0, r0, r2, lsr #23
    31cc:	00005e0f 	andeq	r5, r0, pc, lsl #28
    31d0:	0d000200 	sfmeq	f0, 4, [r0, #-0]
    31d4:	00000b92 	muleq	r0, r2, fp
    31d8:	0000530e 	andeq	r5, r0, lr, lsl #6
    31dc:	000bb700 	andeq	fp, fp, r0, lsl #14
    31e0:	005e0f00 	subseq	r0, lr, r0, lsl #30
    31e4:	000e0000 	andeq	r0, lr, r0
    31e8:	000ba70d 	andeq	sl, fp, sp, lsl #14
    31ec:	03400d00 	movteq	r0, #3328	; 0xd00
    31f0:	730d0000 	movwvc	r0, #53248	; 0xd000
    31f4:	0e00000b 	cdpeq	0, 0, cr0, cr0, cr11, {0}
    31f8:	00000053 	andeq	r0, r0, r3, asr r0
    31fc:	00000bd6 	ldrdeq	r0, [r0], -r6
    3200:	00005e0f 	andeq	r5, r0, pc, lsl #28
    3204:	0d000000 	stceq	0, cr0, [r0, #-0]
    3208:	00000bc6 	andeq	r0, r0, r6, asr #23
    320c:	000b3a0d 	andeq	r3, fp, sp, lsl #20
    3210:	0b920d00 	bleq	fe486618 <__bss_end+0xfe483064>
    3214:	920d0000 	andls	r0, sp, #0
    3218:	0d00000b 	stceq	0, cr0, [r0, #-44]	; 0xffffffd4
    321c:	00000b73 	andeq	r0, r0, r3, ror fp
    3220:	000b920d 	andeq	r9, fp, sp, lsl #4
    3224:	0b970300 	bleq	fe5c3e2c <__bss_end+0xfe5c0878>
    3228:	fe030000 	cdp2	0, 0, cr0, cr3, cr0, {0}
    322c:	0000034b 	andeq	r0, r0, fp, asr #6
    3230:	0bf40410 	bleq	ffd04278 <__bss_end+0xffd00cc4>
    3234:	47110000 	ldrmi	r0, [r1, -r0]
    3238:	04000001 	streq	r0, [r0], #-1
    323c:	0c728904 	ldcleq	9, cr8, [r2], #-16
    3240:	1e120000 	cdpne	0, 1, cr0, cr2, cr0, {0}
    3244:	00000000 	andeq	r0, r0, r0
    3248:	00009612 	andeq	r9, r0, r2, lsl r6
    324c:	39120100 	ldmdbcc	r2, {r8}
    3250:	02000000 	andeq	r0, r0, #0
    3254:	00007312 	andeq	r7, r0, r2, lsl r3
    3258:	8d120300 	ldchi	3, cr0, [r2, #-0]
    325c:	04000001 	streq	r0, [r0], #-1
    3260:	00010e12 	andeq	r0, r1, r2, lsl lr
    3264:	f6120500 			; <UNDEFINED> instruction: 0xf6120500
    3268:	06000000 	streq	r0, [r0], -r0
    326c:	00013112 	andeq	r3, r1, r2, lsl r1
    3270:	12120700 	andsne	r0, r2, #0
    3274:	08000000 	stmdaeq	r0, {}	; <UNPREDICTABLE>
    3278:	00006812 	andeq	r6, r0, r2, lsl r8
    327c:	03120900 	tsteq	r2, #0
    3280:	0a000001 	beq	328c <debugger_buffer+0xc>
    3284:	00019912 	andeq	r9, r1, r2, lsl r9
    3288:	41120b00 	tstmi	r2, r0, lsl #22
    328c:	0c000001 	stceq	0, cr0, [r0], {1}
    3290:	00017112 	andeq	r7, r1, r2, lsl r1
    3294:	1e120d00 	cdpne	13, 1, cr0, cr2, cr0, {0}
    3298:	0e000002 	cdpeq	0, 0, cr0, cr0, cr2, {0}
    329c:	00002b12 	andeq	r2, r0, r2, lsl fp
    32a0:	02000f00 	andeq	r0, r0, #0
    32a4:	00880801 	addeq	r0, r8, r1, lsl #16
    32a8:	04020000 	streq	r0, [r2], #-0
    32ac:	00011f07 	andeq	r1, r1, r7, lsl #30
    32b0:	13e71300 	mvnne	r1, #0
    32b4:	11010000 	mrsne	r0, (UNDEF: 1)
    32b8:	00005301 	andeq	r5, r0, r1, lsl #6
    32bc:	0ce80100 	stfeqe	f0, [r8]
    32c0:	fa140000 	blx	5032c8 <__bss_end+0x4ffd14>
    32c4:	01000014 	tsteq	r0, r4, lsl r0
    32c8:	00005311 	andeq	r5, r0, r1, lsl r3
    32cc:	14661500 	strbtne	r1, [r6], #-1280	; 0x500
    32d0:	13010000 	movwne	r0, #4096	; 0x1000
    32d4:	00000053 	andeq	r0, r0, r3, asr r0
    32d8:	0014b615 	andseq	fp, r4, r5, lsl r6
    32dc:	53140100 	tstpl	r4, #0
    32e0:	16000000 	strne	r0, [r0], -r0
    32e4:	00676572 	rsbeq	r6, r7, r2, ror r5
    32e8:	0ce81601 	stcleq	6, cr1, [r8], #4
    32ec:	de150000 	cdple	0, 1, cr0, cr5, cr0, {0}
    32f0:	01000014 	tsteq	r0, r4, lsl r0
    32f4:	000bff17 	andeq	pc, fp, r7, lsl pc	; <UNPREDICTABLE>
    32f8:	157a1500 	ldrbne	r1, [sl, #-1280]!	; 0x500
    32fc:	18010000 	stmdane	r1, {}	; <UNPREDICTABLE>
    3300:	00000306 	andeq	r0, r0, r6, lsl #6
    3304:	00159915 	andseq	r9, r5, r5, lsl r9
    3308:	531a0100 	tstpl	sl, #0
    330c:	16000000 	strne	r0, [r0], -r0
    3310:	1b010069 	blne	434bc <__bss_end+0x3ff08>
    3314:	00000053 	andeq	r0, r0, r3, asr r0
    3318:	ee041000 	cdp	0, 0, cr1, cr4, cr0, {0}
    331c:	0d00000c 	stceq	0, cr0, [r0, #-48]	; 0xffffffd0
    3320:	0000005e 	andeq	r0, r0, lr, asr r0
    3324:	00148117 	andseq	r8, r4, r7, lsl r1
    3328:	015b0100 	cmpeq	fp, r0, lsl #2
    332c:	0d0c0101 	stfeqs	f0, [ip, #-4]
    3330:	63180000 	tstvs	r8, #0
    3334:	015b0100 	cmpeq	fp, r0, lsl #2
    3338:	00000c72 	andeq	r0, r0, r2, ror ip
    333c:	15831900 	strne	r1, [r3, #2304]	; 0x900
    3340:	67010000 	strvs	r0, [r1, -r0]
    3344:	0c720101 	ldfeqe	f0, [r2], #-4
    3348:	2b010000 	blcs	43350 <__bss_end+0x3fd9c>
    334c:	1a00000d 	bne	3388 <gpio_clk_inited.2455>
    3350:	0000077b 	andeq	r0, r0, fp, ror r7
    3354:	53016901 	movwpl	r6, #6401	; 0x1901
    3358:	00000000 	andeq	r0, r0, r0
    335c:	14e6011b 	strbtne	r0, [r6], #283	; 0x11b
    3360:	98010000 	stmdals	r1, {}	; <UNPREDICTABLE>
    3364:	1b010101 	blne	43770 <__bss_end+0x401bc>
    3368:	00150301 	andseq	r0, r5, r1, lsl #6
    336c:	019f0100 	orrseq	r0, pc, r0, lsl #2
    3370:	a6170101 	ldrge	r0, [r7], -r1, lsl #2
    3374:	01000014 	tsteq	r0, r4, lsl r0
    3378:	010101c5 	smlabteq	r1, r5, r1, r0
    337c:	00000d5a 	andeq	r0, r0, sl, asr sp
    3380:	01006318 	tsteq	r0, r8, lsl r3
    3384:	0c7201c5 	ldfeqe	f0, [r2], #-788	; 0xfffffcec
    3388:	19000000 	stmdbne	r0, {}	; <UNPREDICTABLE>
    338c:	00001444 	andeq	r1, r0, r4, asr #8
    3390:	0101d101 	tsteq	r1, r1, lsl #2
    3394:	00000c72 	andeq	r0, r0, r2, ror ip
    3398:	000d7901 	andeq	r7, sp, r1, lsl #18
    339c:	077b1a00 	ldrbeq	r1, [fp, -r0, lsl #20]!
    33a0:	d3010000 	movwle	r0, #4096	; 0x1000
    33a4:	00005301 	andeq	r5, r0, r1, lsl #6
    33a8:	0b1c0000 	bleq	7033b0 <__bss_end+0x6ffdfc>
    33ac:	01000014 	tsteq	r0, r4, lsl r0
    33b0:	16f001d9 	usatne	r0, #16, r9, asr #3
    33b4:	17980000 	ldrne	r0, [r8, r0]
    33b8:	06c20000 	strbeq	r0, [r2], r0
    33bc:	0de70000 	stcleq	0, cr0, [r7]
    33c0:	fa1d0000 	blx	7433c8 <__bss_end+0x73fe14>
    33c4:	01000014 	tsteq	r0, r4, lsl r0
    33c8:	000053d9 	ldrdeq	r5, [r0], -r9
    33cc:	0006e200 	andeq	lr, r6, r0, lsl #4
    33d0:	14c31d00 	strbne	r1, [r3], #3328	; 0xd00
    33d4:	d9010000 	stmdble	r1, {}	; <UNPREDICTABLE>
    33d8:	00000053 	andeq	r0, r0, r3, asr r0
    33dc:	00000700 	andeq	r0, r0, r0, lsl #14
    33e0:	0100691e 	tsteq	r0, lr, lsl r9
    33e4:	000053db 	ldrdeq	r5, [r0], -fp
    33e8:	721f0000 	andsvc	r0, pc, #0
    33ec:	01006765 	tsteq	r0, r5, ror #14
    33f0:	000ce8dc 	ldrdeq	lr, [ip], -ip
    33f4:	00071e00 	andeq	r1, r7, r0, lsl #28
    33f8:	14972000 	ldrne	r2, [r7], #0
    33fc:	dd010000 	stcle	0, cr0, [r1, #-0]
    3400:	00000053 	andeq	r0, r0, r3, asr r0
    3404:	00000759 	andeq	r0, r0, r9, asr r7
    3408:	0013f620 	andseq	pc, r3, r0, lsr #12
    340c:	53de0100 	bicspl	r0, lr, #0
    3410:	79000000 	stmdbvc	r0, {}	; <UNPREDICTABLE>
    3414:	00000007 	andeq	r0, r0, r7
    3418:	000c8021 	andeq	r8, ip, r1, lsr #32
    341c:	00179800 	andseq	r9, r7, r0, lsl #16
    3420:	00184400 	andseq	r4, r8, r0, lsl #8
    3424:	0007a400 	andeq	sl, r7, r0, lsl #8
    3428:	000e8400 	andeq	r8, lr, r0, lsl #8
    342c:	0c912200 	lfmeq	f2, 4, [r1], {0}
    3430:	07c40000 	strbeq	r0, [r4, r0]
    3434:	9c230000 	stcls	0, cr0, [r3], #-0
    3438:	e200000c 	and	r0, r0, #12
    343c:	23000007 	movwcs	r0, #7
    3440:	00000ca7 	andeq	r0, r0, r7, lsr #25
    3444:	00000801 	andeq	r0, r0, r1, lsl #16
    3448:	000cb223 	andeq	fp, ip, r3, lsr #4
    344c:	00082b00 	andeq	r2, r8, r0, lsl #22
    3450:	0cbd2300 	ldceq	3, cr2, [sp]
    3454:	085f0000 	ldmdaeq	pc, {}^	; <UNPREDICTABLE>
    3458:	c8230000 	stmdagt	r3!, {}	; <UNPREDICTABLE>
    345c:	7e00000c 	cdpvc	0, 0, cr0, cr0, cr12, {0}
    3460:	24000008 	strcs	r0, [r0], #-8
    3464:	00000cd3 	ldrdeq	r0, [r0], -r3
    3468:	0cde2400 	cfldrdeq	mvd2, [lr], {0}
    346c:	25000000 	strcs	r0, [r0, #-0]
    3470:	00000c80 	andeq	r0, r0, r0, lsl #25
    3474:	000017d4 	ldrdeq	r1, [r0], -r4
    3478:	00000000 	andeq	r0, r0, r0
    347c:	18261101 	stmdane	r6!, {r0, r8, ip}
    3480:	27000000 	strcs	r0, [r0, -r0]
    3484:	00000c9c 	muleq	r0, ip, ip
    3488:	000ca727 	andeq	sl, ip, r7, lsr #14
    348c:	0cb22800 	ldceq	8, cr2, [r2]
    3490:	85d80000 	ldrbhi	r0, [r8]
    3494:	277f8e88 	ldrbcs	r8, [pc, -r8, lsl #29]!
    3498:	00000cbd 			; <UNDEFINED> instruction: 0x00000cbd
    349c:	000cc827 	andeq	ip, ip, r7, lsr #16
    34a0:	0c912900 	ldceq	9, cr2, [r1], {0}
    34a4:	d3240000 	teqle	r4, #0
    34a8:	0000000c 	andeq	r0, r0, ip
    34ac:	000cde24 	andeq	sp, ip, r4, lsr #28
    34b0:	00000000 	andeq	r0, r0, r0
    34b4:	9e012a00 	vmlals.f32	s4, s2, s0
    34b8:	01000015 	tsteq	r0, r5, lsl r0
    34bc:	44010107 	strmi	r0, [r1], #-263	; 0x107
    34c0:	84000018 	strhi	r0, [r0], #-24
    34c4:	02000018 	andeq	r0, r0, #24
    34c8:	0eae007d 	mcreq	0, 5, r0, cr14, cr13, {3}
    34cc:	362b0000 	strtcc	r0, [fp], -r0
    34d0:	7400000d 	strvc	r0, [r0], #-13
    34d4:	7c000018 	stcvc	0, cr0, [r0], {24}
    34d8:	01000018 	tsteq	r0, r8, lsl r0
    34dc:	2c000114 	stfcss	f0, [r0], {20}
    34e0:	00145401 	andseq	r5, r4, r1, lsl #8
    34e4:	013f0100 	teqeq	pc, r0, lsl #2
    34e8:	00188401 	andseq	r8, r8, r1, lsl #8
    34ec:	00190800 	andseq	r0, r9, r0, lsl #16
    34f0:	00089100 	andeq	r9, r8, r0, lsl #2
    34f4:	000f1800 	andeq	r1, pc, r0, lsl #16
    34f8:	14c32d00 	strbne	r2, [r3], #3328	; 0xd00
    34fc:	3f010000 	svccc	0x00010000
    3500:	00005301 	andeq	r5, r0, r1, lsl #6
    3504:	0008b100 	andeq	fp, r8, r0, lsl #2
    3508:	66642e00 	strbtvs	r2, [r4], -r0, lsl #28
    350c:	01410100 	mrseq	r0, (UNDEF: 81)
    3510:	00000053 	andeq	r0, r0, r3, asr r0
    3514:	000008cf 	andeq	r0, r0, pc, asr #17
    3518:	72636c2e 	rsbvc	r6, r3, #11776	; 0x2e00
    351c:	01420100 	mrseq	r0, (UNDEF: 82)
    3520:	00000053 	andeq	r0, r0, r3, asr r0
    3524:	000008f2 	strdeq	r0, [r0], -r2
    3528:	0014b62f 	andseq	fp, r4, pc, lsr #12
    352c:	01430100 	mrseq	r0, (UNDEF: 83)
    3530:	00000053 	andeq	r0, r0, r3, asr r0
    3534:	00000911 	andeq	r0, r0, r1, lsl r9
    3538:	000d2b30 	andeq	r2, sp, r0, lsr fp
    353c:	0018c000 	andseq	ip, r8, r0
    3540:	00003000 	andeq	r3, r0, r0
    3544:	01570100 	cmpeq	r7, r0, lsl #2
    3548:	6f013100 	svcvs	0x00013100
    354c:	01000014 	tsteq	r0, r4, lsl r0
    3550:	41010170 	tstmi	r1, r0, ror r1
    3554:	08000000 	stmdaeq	r0, {}	; <UNPREDICTABLE>
    3558:	b8000019 	stmdalt	r0, {r0, r3, r4}
    355c:	3f000019 	svccc	0x00000019
    3560:	7b000009 	blvc	358c <saved_context_r13_fiq+0x18>
    3564:	2d00000f 	stccs	0, cr0, [r0, #-60]	; 0xffffffc4
    3568:	0000165b 	andeq	r1, r0, fp, asr r6
    356c:	7b017001 	blvc	5f578 <__bss_end+0x5bfc4>
    3570:	5f00000f 	svcpl	0x0000000f
    3574:	32000009 	andcc	r0, r0, #9
    3578:	00000cf3 	strdeq	r0, [r0], -r3
    357c:	0000192c 	andeq	r1, r0, ip, lsr #18
    3580:	00000048 	andeq	r0, r0, r8, asr #32
    3584:	60017e01 	andvs	r7, r1, r1, lsl #28
    3588:	2900000f 	stmdbcs	r0, {r0, r1, r2, r3}
    358c:	00000d01 	andeq	r0, r0, r1, lsl #26
    3590:	0cf33300 	ldcleq	3, cr3, [r3]
    3594:	19480000 	stmdbne	r8, {}^	; <UNPREDICTABLE>
    3598:	19700000 	ldmdbne	r0!, {}^	; <UNPREDICTABLE>
    359c:	80010000 	andhi	r0, r1, r0
    35a0:	0d012201 	sfmeq	f2, 4, [r1, #-4]
    35a4:	098a0000 	stmibeq	sl, {}	; <UNPREDICTABLE>
    35a8:	00000000 	andeq	r0, r0, r0
    35ac:	0f810410 	svceq	0x00810410
    35b0:	72340000 	eorsvc	r0, r4, #0
    35b4:	3100000c 	tstcc	r0, ip
    35b8:	00151701 	andseq	r1, r5, r1, lsl #14
    35bc:	01860100 	orreq	r0, r6, r0, lsl #2
    35c0:	00005301 	andeq	r5, r0, r1, lsl #6
    35c4:	0019b800 	andseq	fp, r9, r0, lsl #16
    35c8:	001a4400 	andseq	r4, sl, r0, lsl #8
    35cc:	00099d00 	andeq	r9, r9, r0, lsl #26
    35d0:	000ffd00 	andeq	pc, pc, r0, lsl #26
    35d4:	75623500 	strbvc	r3, [r2, #-1280]!	; 0x500
    35d8:	86010066 	strhi	r0, [r1], -r6, rrx
    35dc:	000ffd01 	andeq	pc, pc, r1, lsl #26
    35e0:	0009bd00 	andeq	fp, r9, r0, lsl #26
    35e4:	006e3600 	rsbeq	r3, lr, r0, lsl #12
    35e8:	53018601 	movwpl	r8, #5633	; 0x1601
    35ec:	01000000 	mrseq	r0, (UNDEF: 0)
    35f0:	00692e51 	rsbeq	r2, r9, r1, asr lr
    35f4:	53018801 	movwpl	r8, #6145	; 0x1801
    35f8:	d0000000 	andle	r0, r0, r0
    35fc:	2e000009 	cdpcs	0, 0, cr0, cr0, cr9, {0}
    3600:	89010063 	stmdbhi	r1, {r0, r1, r5, r6}
    3604:	000c7201 	andeq	r7, ip, r1, lsl #4
    3608:	0009fb00 	andeq	pc, r9, r0, lsl #22
    360c:	0d0c3700 	stceq	7, cr3, [ip, #-0]
    3610:	19e40000 	stmibne	r4!, {}^	; <UNPREDICTABLE>
    3614:	00680000 	rsbeq	r0, r8, r0
    3618:	90010000 	andls	r0, r1, r0
    361c:	00902601 	addseq	r2, r0, r1, lsl #12
    3620:	1e230000 	cdpne	0, 2, cr0, cr3, cr0, {0}
    3624:	1b00000d 	blne	3660 <__bss_end+0xac>
    3628:	0000000a 	andeq	r0, r0, sl
    362c:	04100000 	ldreq	r0, [r0], #-0
    3630:	00000c72 	andeq	r0, r0, r2, ror ip
    3634:	000d2b38 	andeq	r2, sp, r8, lsr fp
    3638:	001a4400 	andseq	r4, sl, r0, lsl #8
    363c:	001a5800 	andseq	r5, sl, r0, lsl #16
    3640:	007d0200 	rsbseq	r0, sp, r0, lsl #4
    3644:	000d3638 	andeq	r3, sp, r8, lsr r6
    3648:	001a5800 	andseq	r5, sl, r0, lsl #16
    364c:	001a6c00 	andseq	r6, sl, r0, lsl #24
    3650:	007d0200 	rsbseq	r0, sp, r0, lsl #4
    3654:	1427012c 	strtne	r0, [r7], #-300	; 0x12c
    3658:	a5010000 	strge	r0, [r1, #-0]
    365c:	1a6c0101 	bne	1b03a68 <__bss_end+0x1b004b4>
    3660:	1af80000 	bne	ffe03668 <__bss_end+0xffe000b4>
    3664:	0a460000 	beq	118366c <__bss_end+0x11800b8>
    3668:	108d0000 	addne	r0, sp, r0
    366c:	c32d0000 	teqgt	sp, #0
    3670:	01000014 	tsteq	r0, r4, lsl r0
    3674:	005301a5 	subseq	r0, r3, r5, lsr #3
    3678:	0a660000 	beq	1983680 <__bss_end+0x19800cc>
    367c:	b62f0000 	strtlt	r0, [pc], -r0
    3680:	01000014 	tsteq	r0, r4, lsl r0
    3684:	005301a8 	subseq	r0, r3, r8, lsr #3
    3688:	0a840000 	beq	fe103690 <__bss_end+0xfe1000dc>
    368c:	642e0000 	strtvs	r0, [lr], #-0
    3690:	a9010066 	stmdbge	r1, {r1, r2, r5, r6}
    3694:	00005301 	andeq	r5, r0, r1, lsl #6
    3698:	000ab200 	andeq	fp, sl, r0, lsl #4
    369c:	636c2e00 	cmnvs	ip, #0
    36a0:	aa010072 	bge	43870 <__bss_end+0x402bc>
    36a4:	00005301 	andeq	r5, r0, r1, lsl #6
    36a8:	000ad500 	andeq	sp, sl, r0, lsl #10
    36ac:	0d2b2b00 	vstmdbeq	fp!, {d2-d1}
    36b0:	1af00000 	bne	ffc036b8 <__bss_end+0xffc00104>
    36b4:	1af40000 	bne	ffd036bc <__bss_end+0xffd00108>
    36b8:	bf010000 	svclt	0x00010000
    36bc:	01310001 	teqeq	r1, r1
    36c0:	0000153f 	andeq	r1, r0, pc, lsr r5
    36c4:	0101e601 	tsteq	r1, r1, lsl #12
    36c8:	00000041 	andeq	r0, r0, r1, asr #32
    36cc:	00001af8 	strdeq	r1, [r0], -r8
    36d0:	00001ba8 	andeq	r1, r0, r8, lsr #23
    36d4:	00000af4 	strdeq	r0, [r0], -r4
    36d8:	000010f0 	strdeq	r1, [r0], -r0
    36dc:	00165b2d 	andseq	r5, r6, sp, lsr #22
    36e0:	01e60100 	mvneq	r0, r0, lsl #2
    36e4:	00000f7b 	andeq	r0, r0, fp, ror pc
    36e8:	00000b14 	andeq	r0, r0, r4, lsl fp
    36ec:	000d4132 	andeq	r4, sp, r2, lsr r1
    36f0:	001b1c00 	andseq	r1, fp, r0, lsl #24
    36f4:	0000b800 	andeq	fp, r0, r0, lsl #16
    36f8:	01f40100 	mvnseq	r0, r0, lsl #2
    36fc:	000010d5 	ldrdeq	r1, [r0], -r5
    3700:	000d4f29 	andeq	r4, sp, r9, lsr #30
    3704:	41330000 	teqmi	r3, r0
    3708:	3800000d 	stmdacc	r0, {r0, r2, r3}
    370c:	6000001b 	andvs	r0, r0, fp, lsl r0
    3710:	0100001b 	tsteq	r0, fp, lsl r0
    3714:	4f2201f6 	svcmi	0x002201f6
    3718:	3f00000d 	svccc	0x0000000d
    371c:	0000000b 	andeq	r0, r0, fp
    3720:	1b013100 	blne	4fb28 <__bss_end+0x4c574>
    3724:	01000014 	tsteq	r0, r4, lsl r0
    3728:	530101fd 	movwpl	r0, #4605	; 0x11fd
    372c:	a8000000 	stmdage	r0, {}	; <UNPREDICTABLE>
    3730:	3400001b 	strcc	r0, [r0], #-27
    3734:	5200001c 	andpl	r0, r0, #28
    3738:	6700000b 	strvs	r0, [r0, -fp]
    373c:	35000011 	strcc	r0, [r0, #-17]
    3740:	00667562 	rsbeq	r7, r6, r2, ror #10
    3744:	fd01fd01 	stc2	13, cr15, [r1, #-4]
    3748:	7200000f 	andvc	r0, r0, #15
    374c:	3600000b 	strcc	r0, [r0], -fp
    3750:	fd01006e 	stc2	0, cr0, [r1, #-440]	; 0xfffffe48
    3754:	00005301 	andeq	r5, r0, r1, lsl #6
    3758:	2e510100 	rdfcss	f0, f1, f0
    375c:	ff010069 			; <UNDEFINED> instruction: 0xff010069
    3760:	00005301 	andeq	r5, r0, r1, lsl #6
    3764:	000b8500 	andeq	r8, fp, r0, lsl #10
    3768:	00632e00 	rsbeq	r2, r3, r0, lsl #28
    376c:	72020001 	andvc	r0, r2, #1
    3770:	b000000c 	andlt	r0, r0, ip
    3774:	3700000b 	strcc	r0, [r0, -fp]
    3778:	00000d5a 	andeq	r0, r0, sl, asr sp
    377c:	00001bd4 	ldrdeq	r1, [r0], -r4
    3780:	000000d8 	ldrdeq	r0, [r0], -r8
    3784:	26020701 	strcs	r0, [r2], -r1, lsl #14
    3788:	00000100 	andeq	r0, r0, r0, lsl #2
    378c:	000d6c23 	andeq	r6, sp, r3, lsr #24
    3790:	000bd000 	andeq	sp, fp, r0
    3794:	00000000 	andeq	r0, r0, r0
    3798:	0015aa39 	andseq	sl, r5, r9, lsr sl
    379c:	530a0100 	movwpl	r0, #41216	; 0xa100
    37a0:	05000000 	streq	r0, [r0, #-0]
    37a4:	00327003 	eorseq	r7, r2, r3
    37a8:	15293900 	strne	r3, [r9, #-2304]!	; 0x900
    37ac:	0b010000 	bleq	437b4 <__bss_end+0x40200>
    37b0:	00000053 	andeq	r0, r0, r3, asr r0
    37b4:	32740305 	rsbscc	r0, r4, #335544320	; 0x14000000
    37b8:	33390000 	teqcc	r9, #0
    37bc:	01000014 	tsteq	r0, r4, lsl r0
    37c0:	0000530c 	andeq	r5, r0, ip, lsl #6
    37c4:	6c030500 	cfstr32vs	mvfx0, [r3], {-0}
    37c8:	39000032 	stmdbcc	r0, {r1, r4, r5}
    37cc:	000014cb 	andeq	r1, r0, fp, asr #9
    37d0:	00530d01 	subseq	r0, r3, r1, lsl #26
    37d4:	03050000 	movweq	r0, #20480	; 0x5000
    37d8:	0000327c 	andeq	r3, r0, ip, ror r2
    37dc:	0014bc39 	andseq	fp, r4, r9, lsr ip
    37e0:	530e0100 	movwpl	r0, #57600	; 0xe100
    37e4:	05000000 	streq	r0, [r0, #-0]
    37e8:	00327803 	eorseq	r7, r2, r3, lsl #16
    37ec:	08400000 	stmdaeq	r0, {}^	; <UNPREDICTABLE>
    37f0:	00020000 	andeq	r0, r2, r0
    37f4:	00000c24 	andeq	r0, r0, r4, lsr #24
    37f8:	00460104 	subeq	r0, r6, r4, lsl #2
    37fc:	09010000 	stmdbeq	r1, {}	; <UNPREDICTABLE>
    3800:	5d000016 	stcpl	0, cr0, [r0, #-88]	; 0xffffffa8
    3804:	34000001 	strcc	r0, [r0], #-1
    3808:	2000001c 	andcs	r0, r0, ip, lsl r0
    380c:	55000024 	strpl	r0, [r0, #-36]	; 0x24
    3810:	0200000c 	andeq	r0, r0, #12
    3814:	00810601 	addeq	r0, r1, r1, lsl #12
    3818:	01020000 	mrseq	r0, (UNDEF: 2)
    381c:	00007f08 	andeq	r7, r0, r8, lsl #30
    3820:	05020200 	streq	r0, [r2, #-512]	; 0x200
    3824:	000001a4 	andeq	r0, r0, r4, lsr #3
    3828:	a3070202 	movwge	r0, #29186	; 0x7202
    382c:	03000000 	movweq	r0, #0
    3830:	00001017 	andeq	r1, r0, r7, lsl r0
    3834:	004c1202 	subeq	r1, ip, r2, lsl #4
    3838:	04040000 	streq	r0, [r4], #-0
    383c:	746e6905 	strbtvc	r6, [lr], #-2309	; 0x905
    3840:	07040200 	streq	r0, [r4, -r0, lsl #4]
    3844:	00000124 	andeq	r0, r0, r4, lsr #2
    3848:	7f050802 	svcvc	0x00050802
    384c:	02000001 	andeq	r0, r0, #1
    3850:	011a0708 	tsteq	sl, r8, lsl #14
    3854:	bf030000 	svclt	0x00030000
    3858:	02000015 	andeq	r0, r0, #21
    385c:	00005318 	andeq	r5, r0, r8, lsl r3
    3860:	01470500 	cmpeq	r7, r0, lsl #10
    3864:	04040000 	streq	r0, [r4], #-0
    3868:	0000e089 	andeq	lr, r0, r9, lsl #1
    386c:	001e0600 	andseq	r0, lr, r0, lsl #12
    3870:	06000000 	streq	r0, [r0], -r0
    3874:	00000096 	muleq	r0, r6, r0
    3878:	00390601 	eorseq	r0, r9, r1, lsl #12
    387c:	06020000 	streq	r0, [r2], -r0
    3880:	00000073 	andeq	r0, r0, r3, ror r0
    3884:	018d0603 	orreq	r0, sp, r3, lsl #12
    3888:	06040000 	streq	r0, [r4], -r0
    388c:	0000010e 	andeq	r0, r0, lr, lsl #2
    3890:	00f60605 	rscseq	r0, r6, r5, lsl #12
    3894:	06060000 	streq	r0, [r6], -r0
    3898:	00000131 	andeq	r0, r0, r1, lsr r1
    389c:	00120607 	andseq	r0, r2, r7, lsl #12
    38a0:	06080000 	streq	r0, [r8], -r0
    38a4:	00000068 	andeq	r0, r0, r8, rrx
    38a8:	01030609 	tsteq	r3, r9, lsl #12
    38ac:	060a0000 	streq	r0, [sl], -r0
    38b0:	00000199 	muleq	r0, r9, r1
    38b4:	0141060b 	cmpeq	r1, fp, lsl #12
    38b8:	060c0000 	streq	r0, [ip], -r0
    38bc:	00000171 	andeq	r0, r0, r1, ror r1
    38c0:	021e060d 	andseq	r0, lr, #13631488	; 0xd00000
    38c4:	060e0000 	streq	r0, [lr], -r0
    38c8:	0000002b 	andeq	r0, r0, fp, lsr #32
    38cc:	0102000f 	tsteq	r2, pc
    38d0:	00008808 	andeq	r8, r0, r8, lsl #16
    38d4:	07040200 	streq	r0, [r4, -r0, lsl #4]
    38d8:	0000011f 	andeq	r0, r0, pc, lsl r1
    38dc:	88030407 	stmdahi	r3, {r0, r1, r2, sl}
    38e0:	03000016 	movweq	r0, #22
    38e4:	0000fb28 	andeq	pc, r0, r8, lsr #22
    38e8:	15da0800 	ldrbne	r0, [sl, #2048]	; 0x800
    38ec:	05040000 	streq	r0, [r4, #-0]
    38f0:	00011500 	andeq	r1, r1, r0, lsl #10
    38f4:	16490900 	strbne	r0, [r9], -r0, lsl #18
    38f8:	00ee0000 	rsceq	r0, lr, r0
    38fc:	23020000 	movwcs	r0, #8192	; 0x2000
    3900:	03000100 	movweq	r0, #256	; 0x100
    3904:	000015dc 	ldrdeq	r1, [r0], -ip
    3908:	00f06603 	rscseq	r6, r0, r3, lsl #12
    390c:	970a0000 	strls	r0, [sl, -r0]
    3910:	01000016 	tsteq	r0, r6, lsl r0
    3914:	015e015b 	cmpeq	lr, fp, asr r1
    3918:	5e010000 	cdppl	0, 0, cr0, cr1, cr0, {0}
    391c:	0b000001 	bleq	3928 <__bss_end+0x374>
    3920:	0000166a 	andeq	r1, r0, sl, ror #12
    3924:	015e5b01 	cmpeq	lr, r1, lsl #22
    3928:	730c0000 	movwvc	r0, #49152	; 0xc000
    392c:	01006372 	tsteq	r0, r2, ror r3
    3930:	0001645b 	andeq	r6, r1, fp, asr r4
    3934:	108e0b00 	addne	r0, lr, r0, lsl #22
    3938:	5b010000 	blpl	43940 <__bss_end+0x4038c>
    393c:	00000068 	andeq	r0, r0, r8, rrx
    3940:	706d740d 	rsbvc	r7, sp, sp, lsl #8
    3944:	5e5d0100 	rdfple	f0, f5, f0
    3948:	00000001 	andeq	r0, r0, r1
    394c:	00e0040e 	rsceq	r0, r0, lr, lsl #8
    3950:	040e0000 	streq	r0, [lr], #-0
    3954:	0000016a 	andeq	r0, r0, sl, ror #2
    3958:	0000e00f 	andeq	lr, r0, pc
    395c:	164e0a00 	strbne	r0, [lr], -r0, lsl #20
    3960:	1d010000 	stcne	0, cr0, [r1, #-0]
    3964:	00006801 	andeq	r6, r0, r1, lsl #16
    3968:	01940100 	orrseq	r0, r4, r0, lsl #2
    396c:	730c0000 	movwvc	r0, #49152	; 0xc000
    3970:	641d0100 	ldrvs	r0, [sp], #-256	; 0x100
    3974:	0d000001 	stceq	0, cr0, [r0, #-4]
    3978:	01006373 	tsteq	r0, r3, ror r3
    397c:	0001641f 	andeq	r6, r1, pc, lsl r4
    3980:	620a0000 	andvs	r0, sl, #0
    3984:	01000016 	tsteq	r0, r6, lsl r0
    3988:	015e012e 	cmpeq	lr, lr, lsr #2
    398c:	c7010000 	strgt	r0, [r1, -r0]
    3990:	0b000001 	bleq	399c <__bss_end+0x3e8>
    3994:	0000166a 	andeq	r1, r0, sl, ror #12
    3998:	015e2e01 	cmpeq	lr, r1, lsl #28
    399c:	730c0000 	movwvc	r0, #49152	; 0xc000
    39a0:	01006372 	tsteq	r0, r2, ror r3
    39a4:	0001642e 	andeq	r6, r1, lr, lsr #8
    39a8:	6d740d00 	ldclvs	13, cr0, [r4, #-0]
    39ac:	30010070 	andcc	r0, r1, r0, ror r0
    39b0:	0000015e 	andeq	r0, r0, lr, asr r1
    39b4:	16040a00 	strne	r0, [r4], -r0, lsl #20
    39b8:	9f010000 	svcls	0x00010000
    39bc:	00015e01 	andeq	r5, r1, r1, lsl #28
    39c0:	022d0100 	eoreq	r0, sp, #0
    39c4:	650b0000 	strvs	r0, [fp, #-0]
    39c8:	01000013 	tsteq	r0, r3, lsl r0
    39cc:	00004c9f 	muleq	r0, pc, ip	; <UNPREDICTABLE>
    39d0:	165b0b00 	ldrbne	r0, [fp], -r0, lsl #22
    39d4:	9f010000 	svcls	0x00010000
    39d8:	0000015e 	andeq	r0, r0, lr, asr r1
    39dc:	0016430b 	andseq	r4, r6, fp, lsl #6
    39e0:	4c9f0100 	ldfmis	f0, [pc], {0}
    39e4:	10000000 	andne	r0, r0, r0
    39e8:	00001638 	andeq	r1, r0, r8, lsr r6
    39ec:	022da101 	eoreq	sl, sp, #1073741824	; 0x40000000
    39f0:	f4100000 			; <UNDEFINED> instruction: 0xf4100000
    39f4:	01000015 	tsteq	r0, r5, lsl r0
    39f8:	00004ca2 	andeq	r4, r0, r2, lsr #25
    39fc:	00690d00 	rsbeq	r0, r9, r0, lsl #26
    3a00:	004ca301 	subeq	sl, ip, r1, lsl #6
    3a04:	6a0d0000 	bvs	343a0c <__bss_end+0x340458>
    3a08:	4ca40100 	stfmis	f0, [r4]
    3a0c:	10000000 	andne	r0, r0, r0
    3a10:	00001655 	andeq	r1, r0, r5, asr r6
    3a14:	023da501 	eorseq	sl, sp, #4194304	; 0x400000
    3a18:	11000000 	mrsne	r0, (UNDEF: 0)
    3a1c:	000000e0 	andeq	r0, r0, r0, ror #1
    3a20:	0000023d 	andeq	r0, r0, sp, lsr r2
    3a24:	00005312 	andeq	r5, r0, r2, lsl r3
    3a28:	11000f00 	tstne	r0, r0, lsl #30
    3a2c:	000000e0 	andeq	r0, r0, r0, ror #1
    3a30:	0000024d 	andeq	r0, r0, sp, asr #4
    3a34:	00005312 	andeq	r5, r0, r2, lsl r3
    3a38:	13001000 	movwne	r1, #0
    3a3c:	000015ba 			; <UNDEFINED> instruction: 0x000015ba
    3a40:	5e01ce01 	cdppl	14, 0, cr12, cr1, cr1, {0}
    3a44:	34000001 	strcc	r0, [r0], #-1
    3a48:	f000001c 			; <UNDEFINED> instruction: 0xf000001c
    3a4c:	fb00001c 	blx	3ac6 <__bss_end+0x512>
    3a50:	ce00000b 	cdpgt	0, 0, cr0, cr0, cr11, {0}
    3a54:	14000002 	strne	r0, [r0], #-2
    3a58:	00001365 	andeq	r1, r0, r5, ror #6
    3a5c:	0053ce01 	subseq	ip, r3, r1, lsl #28
    3a60:	0c280000 	stceq	0, cr0, [r8], #-0
    3a64:	5b140000 	blpl	503a6c <__bss_end+0x5004b8>
    3a68:	01000016 	tsteq	r0, r6, lsl r0
    3a6c:	00015ece 	andeq	r5, r1, lr, asr #29
    3a70:	000c5c00 	andeq	r5, ip, r0, lsl #24
    3a74:	16431400 	strbne	r1, [r3], -r0, lsl #8
    3a78:	ce010000 	cdpgt	0, 0, cr0, cr1, cr0, {0}
    3a7c:	0000004c 	andeq	r0, r0, ip, asr #32
    3a80:	00000c7a 	andeq	r0, r0, sl, ror ip
    3a84:	00163815 	andseq	r3, r6, r5, lsl r8
    3a88:	2dd00100 	ldfcse	f0, [r0]
    3a8c:	02000002 	andeq	r0, r0, #2
    3a90:	69165091 	ldmdbvs	r6, {r0, r4, r7, ip, lr}
    3a94:	4cd10100 	ldfmie	f0, [r1], {0}
    3a98:	98000000 	stmdals	r0, {}	; <UNPREDICTABLE>
    3a9c:	1600000c 	strne	r0, [r0], -ip
    3aa0:	d201006a 	andle	r0, r1, #106	; 0x6a
    3aa4:	0000004c 	andeq	r0, r0, ip, asr #32
    3aa8:	00000cc1 	andeq	r0, r0, r1, asr #25
    3aac:	00165515 	andseq	r5, r6, r5, lsl r5
    3ab0:	3dd30100 	ldfcce	f0, [r3]
    3ab4:	03000002 	movweq	r0, #2
    3ab8:	007fbc91 			; <UNDEFINED> instruction: 0x007fbc91
    3abc:	00166f17 	andseq	r6, r6, r7, lsl pc
    3ac0:	016a0100 	cmneq	sl, r0, lsl #2
    3ac4:	00004101 	andeq	r4, r0, r1, lsl #2
    3ac8:	001cf000 	andseq	pc, ip, r0
    3acc:	001d9800 	andseq	r9, sp, r0, lsl #16
    3ad0:	000cd500 	andeq	sp, ip, r0, lsl #10
    3ad4:	00036600 	andeq	r6, r3, r0, lsl #12
    3ad8:	165b1800 	ldrbne	r1, [fp], -r0, lsl #16
    3adc:	6a010000 	bvs	43ae4 <__bss_end+0x40530>
    3ae0:	00015e01 	andeq	r5, r1, r1, lsl #28
    3ae4:	000d0100 	andeq	r0, sp, r0, lsl #2
    3ae8:	656c1900 	strbvs	r1, [ip, #-2304]!	; 0x900
    3aec:	6a01006e 	bvs	43cac <__bss_end+0x406f8>
    3af0:	00004101 	andeq	r4, r0, r1, lsl #2
    3af4:	000d1f00 	andeq	r1, sp, r0, lsl #30
    3af8:	16751800 	ldrbtne	r1, [r5], -r0, lsl #16
    3afc:	6a010000 	bvs	43b04 <__bss_end+0x40550>
    3b00:	00004101 	andeq	r4, r0, r1, lsl #2
    3b04:	000d3d00 	andeq	r3, sp, r0, lsl #26
    3b08:	15d21a00 	ldrbne	r1, [r2, #2560]	; 0xa00
    3b0c:	6e010000 	cdpvs	0, 0, cr0, cr1, cr0, {0}
    3b10:	00023d01 	andeq	r3, r2, r1, lsl #26
    3b14:	5c910200 	lfmpl	f0, 4, [r1], {0}
    3b18:	0001201b 	andeq	r2, r1, fp, lsl r0
    3b1c:	001d2c00 	andseq	r2, sp, r0, lsl #24
    3b20:	00012800 	andeq	r2, r1, r0, lsl #16
    3b24:	01720100 	cmneq	r2, r0, lsl #2
    3b28:	0001471c 	andeq	r4, r1, ip, lsl r7
    3b2c:	000d5b00 	andeq	r5, sp, r0, lsl #22
    3b30:	013c1c00 	teqeq	ip, r0, lsl #24
    3b34:	0d910000 	ldceq	0, cr0, [r1]
    3b38:	311c0000 	tstcc	ip, r0
    3b3c:	b3000001 	movwlt	r0, #1
    3b40:	1d00000d 	stcne	0, cr0, [r0, #-52]	; 0xffffffcc
    3b44:	00000140 	andeq	r0, r0, r0, asr #2
    3b48:	0001521e 	andeq	r5, r1, lr, lsl r2
    3b4c:	000e1300 	andeq	r1, lr, r0, lsl #6
    3b50:	00000000 	andeq	r0, r0, r0
    3b54:	0001c71f 	andeq	ip, r1, pc, lsl r7
    3b58:	001d9800 	andseq	r9, sp, r0, lsl #16
    3b5c:	001e8000 	andseq	r8, lr, r0
    3b60:	000e2600 	andeq	r2, lr, r0, lsl #12
    3b64:	0003bf00 	andeq	fp, r3, r0, lsl #30
    3b68:	01d81c00 	bicseq	r1, r8, r0, lsl #24
    3b6c:	0e530000 	cdpeq	0, 5, cr0, cr3, cr0, {0}
    3b70:	e31c0000 	tst	ip, #0
    3b74:	87000001 	strhi	r0, [r0, -r1]
    3b78:	2000000e 	andcs	r0, r0, lr
    3b7c:	000001f9 	strdeq	r0, [r0], -r9
    3b80:	1e589102 	lognee	f1, f2
    3b84:	00000204 	andeq	r0, r0, r4, lsl #4
    3b88:	00000ea5 	andeq	r0, r0, r5, lsr #29
    3b8c:	00020f1e 	andeq	r0, r2, lr, lsl pc
    3b90:	000ed000 	andeq	sp, lr, r0
    3b94:	02181e00 	andseq	r1, r8, #0
    3b98:	0f050000 	svceq	0x00050000
    3b9c:	21200000 	teqcs	r0, r0
    3ba0:	02000002 	andeq	r0, r0, #2
    3ba4:	ee214491 	mcr	4, 1, r4, cr1, cr1, {4}
    3ba8:	0a000001 	beq	3bb4 <__bss_end+0x600>
    3bac:	fd012200 	stc2	2, cr2, [r1, #-0]
    3bb0:	01000015 	tsteq	r0, r5, lsl r0
    3bb4:	41010104 	tstmi	r1, r4, lsl #2
    3bb8:	80000000 	andhi	r0, r0, r0
    3bbc:	5000001e 	andpl	r0, r0, lr, lsl r0
    3bc0:	24000021 	strcs	r0, [r0], #-33	; 0x21
    3bc4:	f000000f 			; <UNDEFINED> instruction: 0xf000000f
    3bc8:	18000005 	stmdane	r0, {r0, r2}
    3bcc:	000015cb 	andeq	r1, r0, fp, asr #11
    3bd0:	64010401 	strvs	r0, [r1], #-1025	; 0x401
    3bd4:	5d000001 	stcpl	0, cr0, [r0, #-4]
    3bd8:	2300000f 	movwcs	r0, #15
    3bdc:	00163e1a 	andseq	r3, r6, sl, lsl lr
    3be0:	01060100 	mrseq	r0, (UNDEF: 22)
    3be4:	00000115 	andeq	r0, r0, r5, lsl r1
    3be8:	1a4c9102 	bne	1327ff8 <__bss_end+0x1324a44>
    3bec:	0000165b 	andeq	r1, r0, fp, asr r6
    3bf0:	2d010701 	stccs	7, cr0, [r1, #-4]
    3bf4:	03000002 	movweq	r0, #2
    3bf8:	247fbc91 	ldrbtcs	fp, [pc], #-3217	; 3c00 <__bss_end+0x64c>
    3bfc:	00001669 	andeq	r1, r0, r9, ror #12
    3c00:	5e010801 	cdppl	8, 0, cr0, cr1, cr1, {0}
    3c04:	a0000001 	andge	r0, r0, r1
    3c08:	2400000f 	strcs	r0, [r0], #-15
    3c0c:	000015c6 	andeq	r1, r0, r6, asr #11
    3c10:	5e010901 	cdppl	9, 0, cr0, cr1, cr1, {0}
    3c14:	12000001 	andne	r0, r0, #1
    3c18:	24000010 	strcs	r0, [r0], #-16
    3c1c:	00001675 	andeq	r1, r0, r5, ror r6
    3c20:	41010a01 	tstmi	r1, r1, lsl #20
    3c24:	28000000 	stmdacs	r0, {}	; <UNPREDICTABLE>
    3c28:	25000010 	strcs	r0, [r0, #-16]
    3c2c:	006e656c 	rsbeq	r6, lr, ip, ror #10
    3c30:	41010b01 	tstmi	r1, r1, lsl #22
    3c34:	46000000 	strmi	r0, [r0], -r0
    3c38:	26000010 			; <UNDEFINED> instruction: 0x26000010
    3c3c:	0000016f 	andeq	r0, r0, pc, ror #2
    3c40:	00001fa0 	andeq	r1, r0, r0, lsr #31
    3c44:	00001fc0 	andeq	r1, r0, r0, asr #31
    3c48:	7e013c01 	cdpvc	12, 0, cr3, cr1, cr1, {0}
    3c4c:	1c000004 	stcne	0, cr0, [r0], {4}
    3c50:	00000180 	andeq	r0, r0, r0, lsl #3
    3c54:	0000109c 	muleq	r0, ip, r0
    3c58:	001fa027 	andseq	sl, pc, r7, lsr #32
    3c5c:	001fc000 	andseq	ip, pc, r0
    3c60:	01891e00 	orreq	r1, r9, r0, lsl #28
    3c64:	10af0000 	adcne	r0, pc, r0
    3c68:	00000000 	andeq	r0, r0, r0
    3c6c:	00019426 	andeq	r9, r1, r6, lsr #8
    3c70:	001fdc00 	andseq	sp, pc, r0, lsl #24
    3c74:	001fec00 	andseq	lr, pc, r0, lsl #24
    3c78:	013e0100 	teqeq	lr, r0, lsl #2
    3c7c:	000004b8 			; <UNDEFINED> instruction: 0x000004b8
    3c80:	0001b01c 	andeq	fp, r1, ip, lsl r0
    3c84:	0010da00 	andseq	sp, r0, r0, lsl #20
    3c88:	01a51c00 			; <UNDEFINED> instruction: 0x01a51c00
    3c8c:	10ed0000 	rscne	r0, sp, r0
    3c90:	dc270000 	stcle	0, cr0, [r7], #-0
    3c94:	ec00001f 	stc	0, cr0, [r0], {31}
    3c98:	1e00001f 	mcrne	0, 0, r0, cr0, cr15, {0}
    3c9c:	000001bb 			; <UNDEFINED> instruction: 0x000001bb
    3ca0:	0000110b 	andeq	r1, r0, fp, lsl #2
    3ca4:	94260000 	strtls	r0, [r6], #-0
    3ca8:	0c000001 	stceq	0, cr0, [r0], {1}
    3cac:	1c000020 	stcne	0, cr0, [r0], {32}
    3cb0:	01000020 	tsteq	r0, r0, lsr #32
    3cb4:	04f2014c 	ldrbteq	r0, [r2], #332	; 0x14c
    3cb8:	b01c0000 	andslt	r0, ip, r0
    3cbc:	1e000001 	cdpne	0, 0, cr0, cr0, cr1, {0}
    3cc0:	1c000011 	stcne	0, cr0, [r0], {17}
    3cc4:	000001a5 	andeq	r0, r0, r5, lsr #3
    3cc8:	00001134 	andeq	r1, r0, r4, lsr r1
    3ccc:	00200c27 	eoreq	r0, r0, r7, lsr #24
    3cd0:	00201c00 	eoreq	r1, r0, r0, lsl #24
    3cd4:	01bb1e00 			; <UNDEFINED> instruction: 0x01bb1e00
    3cd8:	11520000 	cmpne	r2, r0
    3cdc:	00000000 	andeq	r0, r0, r0
    3ce0:	00016f26 	andeq	r6, r1, r6, lsr #30
    3ce4:	00201c00 	eoreq	r1, r0, r0, lsl #24
    3ce8:	00203c00 	eoreq	r3, r0, r0, lsl #24
    3cec:	014d0100 	mrseq	r0, (UNDEF: 93)
    3cf0:	0000051f 	andeq	r0, r0, pc, lsl r5
    3cf4:	00018028 	andeq	r8, r1, r8, lsr #32
    3cf8:	201c2700 	andscs	r2, ip, r0, lsl #14
    3cfc:	203c0000 	eorscs	r0, ip, r0
    3d00:	891e0000 	ldmdbhi	lr, {}	; <UNPREDICTABLE>
    3d04:	65000001 	strvs	r0, [r0, #-1]
    3d08:	00000011 	andeq	r0, r0, r1, lsl r0
    3d0c:	016f2600 	cmneq	pc, r0, lsl #12
    3d10:	20600000 	rsbcs	r0, r0, r0
    3d14:	20800000 	addcs	r0, r0, r0
    3d18:	32010000 	andcc	r0, r1, #0
    3d1c:	00055001 	andeq	r5, r5, r1
    3d20:	01801c00 	orreq	r1, r0, r0, lsl #24
    3d24:	11930000 	orrsne	r0, r3, r0
    3d28:	60270000 	eorvs	r0, r7, r0
    3d2c:	80000020 	andhi	r0, r0, r0, lsr #32
    3d30:	1e000020 	cdpne	0, 0, cr0, cr0, cr0, {1}
    3d34:	00000189 	andeq	r0, r0, r9, lsl #3
    3d38:	000011a6 	andeq	r1, r0, r6, lsr #3
    3d3c:	94260000 	strtls	r0, [r6], #-0
    3d40:	9c000001 	stcls	0, cr0, [r0], {1}
    3d44:	ac000020 	stcge	0, cr0, [r0], {32}
    3d48:	01000020 	tsteq	r0, r0, lsr #32
    3d4c:	058a0134 	streq	r0, [sl, #308]	; 0x134
    3d50:	b01c0000 	andslt	r0, ip, r0
    3d54:	d1000001 	tstle	r0, r1
    3d58:	1c000011 	stcne	0, cr0, [r0], {17}
    3d5c:	000001a5 	andeq	r0, r0, r5, lsr #3
    3d60:	000011e4 	andeq	r1, r0, r4, ror #3
    3d64:	00209c27 	eoreq	r9, r0, r7, lsr #24
    3d68:	0020ac00 	eoreq	sl, r0, r0, lsl #24
    3d6c:	01bb1e00 			; <UNDEFINED> instruction: 0x01bb1e00
    3d70:	12020000 	andne	r0, r2, #0
    3d74:	00000000 	andeq	r0, r0, r0
    3d78:	00016f26 	andeq	r6, r1, r6, lsr #30
    3d7c:	0020f800 	eoreq	pc, r0, r0, lsl #16
    3d80:	00211800 	eoreq	r1, r1, r0, lsl #16
    3d84:	01270100 	teqeq	r7, r0, lsl #2
    3d88:	000005b9 			; <UNDEFINED> instruction: 0x000005b9
    3d8c:	00018029 	andeq	r8, r1, r9, lsr #32
    3d90:	27560100 	ldrbcs	r0, [r6, -r0, lsl #2]
    3d94:	000020f8 	strdeq	r2, [r0], -r8
    3d98:	00002118 	andeq	r2, r0, r8, lsl r1
    3d9c:	0001891e 	andeq	r8, r1, lr, lsl r9
    3da0:	00121500 	andseq	r1, r2, r0, lsl #10
    3da4:	2a000000 	bcs	3dac <__bss_end+0x7f8>
    3da8:	00000194 	muleq	r0, r4, r1
    3dac:	00002134 	andeq	r2, r0, r4, lsr r1
    3db0:	00002144 	andeq	r2, r0, r4, asr #2
    3db4:	1c012901 	stcne	9, cr2, [r1], {1}
    3db8:	000001b0 			; <UNDEFINED> instruction: 0x000001b0
    3dbc:	00001240 	andeq	r1, r0, r0, asr #4
    3dc0:	0001a51c 	andeq	sl, r1, ip, lsl r5
    3dc4:	00125300 	andseq	r5, r2, r0, lsl #6
    3dc8:	21342700 	teqcs	r4, r0, lsl #14
    3dcc:	21440000 	mrscs	r0, (UNDEF: 68)
    3dd0:	bb1e0000 	bllt	783dd8 <__bss_end+0x780824>
    3dd4:	71000001 	tstvc	r0, r1
    3dd8:	00000012 	andeq	r0, r0, r2, lsl r0
    3ddc:	01220000 	teqeq	r2, r0
    3de0:	0000167b 	andeq	r1, r0, fp, ror r6
    3de4:	01017901 	tsteq	r1, r1, lsl #18
    3de8:	00000041 	andeq	r0, r0, r1, asr #32
    3dec:	00002150 	andeq	r2, r0, r0, asr r1
    3df0:	00002420 	andeq	r2, r0, r0, lsr #8
    3df4:	00001284 	andeq	r1, r0, r4, lsl #5
    3df8:	00000821 	andeq	r0, r0, r1, lsr #16
    3dfc:	0015cb18 	andseq	ip, r5, r8, lsl fp
    3e00:	01790100 	cmneq	r9, r0, lsl #2
    3e04:	00000164 	andeq	r0, r0, r4, ror #2
    3e08:	000012bd 			; <UNDEFINED> instruction: 0x000012bd
    3e0c:	163e1a23 	ldrtne	r1, [lr], -r3, lsr #20
    3e10:	7b010000 	blvc	43e18 <__bss_end+0x40864>
    3e14:	00011501 	andeq	r1, r1, r1, lsl #10
    3e18:	4c910200 	lfmmi	f0, 4, [r1], {0}
    3e1c:	00165b1a 	andseq	r5, r6, sl, lsl fp
    3e20:	017c0100 	cmneq	ip, r0, lsl #2
    3e24:	0000022d 	andeq	r0, r0, sp, lsr #4
    3e28:	7fbc9103 	svcvc	0x00bc9103
    3e2c:	00166924 	andseq	r6, r6, r4, lsr #18
    3e30:	017d0100 	cmneq	sp, r0, lsl #2
    3e34:	0000015e 	andeq	r0, r0, lr, asr r1
    3e38:	00001300 	andeq	r1, r0, r0, lsl #6
    3e3c:	0015c624 	andseq	ip, r5, r4, lsr #12
    3e40:	017e0100 	cmneq	lr, r0, lsl #2
    3e44:	0000015e 	andeq	r0, r0, lr, asr r1
    3e48:	00001372 	andeq	r1, r0, r2, ror r3
    3e4c:	00167524 	andseq	r7, r6, r4, lsr #10
    3e50:	017f0100 	cmneq	pc, r0, lsl #2
    3e54:	00000041 	andeq	r0, r0, r1, asr #32
    3e58:	00001388 	andeq	r1, r0, r8, lsl #7
    3e5c:	6e656c25 	cdpvs	12, 6, cr6, cr5, cr5, {1}
    3e60:	01800100 	orreq	r0, r0, r0, lsl #2
    3e64:	00000041 	andeq	r0, r0, r1, asr #32
    3e68:	000013a6 	andeq	r1, r0, r6, lsr #7
    3e6c:	00016f26 	andeq	r6, r1, r6, lsr #30
    3e70:	00227000 	eoreq	r7, r2, r0
    3e74:	00229000 	eoreq	r9, r2, r0
    3e78:	01b10100 			; <UNDEFINED> instruction: 0x01b10100
    3e7c:	000006af 	andeq	r0, r0, pc, lsr #13
    3e80:	0001801c 	andeq	r8, r1, ip, lsl r0
    3e84:	0013fc00 	andseq	pc, r3, r0, lsl #24
    3e88:	22702700 	rsbscs	r2, r0, #0
    3e8c:	22900000 	addscs	r0, r0, #0
    3e90:	891e0000 	ldmdbhi	lr, {}	; <UNPREDICTABLE>
    3e94:	0f000001 	svceq	0x00000001
    3e98:	00000014 	andeq	r0, r0, r4, lsl r0
    3e9c:	01942600 	orrseq	r2, r4, r0, lsl #12
    3ea0:	22ac0000 	adccs	r0, ip, #0
    3ea4:	22bc0000 	adcscs	r0, ip, #0
    3ea8:	b3010000 	movwlt	r0, #4096	; 0x1000
    3eac:	0006e901 	andeq	lr, r6, r1, lsl #18
    3eb0:	01b01c00 	lslseq	r1, r0, #24
    3eb4:	143a0000 	ldrtne	r0, [sl], #-0
    3eb8:	a51c0000 	ldrge	r0, [ip, #-0]
    3ebc:	4d000001 	stcmi	0, cr0, [r0, #-4]
    3ec0:	27000014 	smladcs	r0, r4, r0, r0
    3ec4:	000022ac 	andeq	r2, r0, ip, lsr #5
    3ec8:	000022bc 			; <UNDEFINED> instruction: 0x000022bc
    3ecc:	0001bb1e 	andeq	fp, r1, lr, lsl fp
    3ed0:	00146b00 	andseq	r6, r4, r0, lsl #22
    3ed4:	26000000 	strcs	r0, [r0], -r0
    3ed8:	00000194 	muleq	r0, r4, r1
    3edc:	000022dc 	ldrdeq	r2, [r0], -ip
    3ee0:	000022ec 	andeq	r2, r0, ip, ror #5
    3ee4:	2301c101 	movwcs	ip, #4353	; 0x1101
    3ee8:	1c000007 	stcne	0, cr0, [r0], {7}
    3eec:	000001b0 			; <UNDEFINED> instruction: 0x000001b0
    3ef0:	0000147e 	andeq	r1, r0, lr, ror r4
    3ef4:	0001a51c 	andeq	sl, r1, ip, lsl r5
    3ef8:	00149400 	andseq	r9, r4, r0, lsl #8
    3efc:	22dc2700 	sbcscs	r2, ip, #0
    3f00:	22ec0000 	rsccs	r0, ip, #0
    3f04:	bb1e0000 	bllt	783f0c <__bss_end+0x780958>
    3f08:	b2000001 	andlt	r0, r0, #1
    3f0c:	00000014 	andeq	r0, r0, r4, lsl r0
    3f10:	016f2600 	cmneq	pc, r0, lsl #12
    3f14:	22ec0000 	rsccs	r0, ip, #0
    3f18:	230c0000 	movwcs	r0, #49152	; 0xc000
    3f1c:	c2010000 	andgt	r0, r1, #0
    3f20:	00075001 	andeq	r5, r7, r1
    3f24:	01802800 	orreq	r2, r0, r0, lsl #16
    3f28:	ec270000 	stc	0, cr0, [r7], #-0
    3f2c:	0c000022 	stceq	0, cr0, [r0], {34}	; 0x22
    3f30:	1e000023 	cdpne	0, 0, cr0, cr0, cr3, {1}
    3f34:	00000189 	andeq	r0, r0, r9, lsl #3
    3f38:	000014c5 	andeq	r1, r0, r5, asr #9
    3f3c:	6f260000 	svcvs	0x00260000
    3f40:	30000001 	andcc	r0, r0, r1
    3f44:	50000023 	andpl	r0, r0, r3, lsr #32
    3f48:	01000023 	tsteq	r0, r3, lsr #32
    3f4c:	078101a7 	streq	r0, [r1, r7, lsr #3]
    3f50:	801c0000 	andshi	r0, ip, r0
    3f54:	f3000001 	vhadd.u8	d0, d0, d1
    3f58:	27000014 	smladcs	r0, r4, r0, r0
    3f5c:	00002330 	andeq	r2, r0, r0, lsr r3
    3f60:	00002350 	andeq	r2, r0, r0, asr r3
    3f64:	0001891e 	andeq	r8, r1, lr, lsl r9
    3f68:	00150600 	andseq	r0, r5, r0, lsl #12
    3f6c:	26000000 	strcs	r0, [r0], -r0
    3f70:	00000194 	muleq	r0, r4, r1
    3f74:	0000236c 	andeq	r2, r0, ip, ror #6
    3f78:	0000237c 	andeq	r2, r0, ip, ror r3
    3f7c:	bb01a901 	bllt	6e388 <__bss_end+0x6add4>
    3f80:	1c000007 	stcne	0, cr0, [r0], {7}
    3f84:	000001b0 			; <UNDEFINED> instruction: 0x000001b0
    3f88:	00001531 	andeq	r1, r0, r1, lsr r5
    3f8c:	0001a51c 	andeq	sl, r1, ip, lsl r5
    3f90:	00154400 	andseq	r4, r5, r0, lsl #8
    3f94:	236c2700 	cmncs	ip, #0
    3f98:	237c0000 	cmncs	ip, #0
    3f9c:	bb1e0000 	bllt	783fa4 <__bss_end+0x7809f0>
    3fa0:	62000001 	andvs	r0, r0, #1
    3fa4:	00000015 	andeq	r0, r0, r5, lsl r0
    3fa8:	016f2600 	cmneq	pc, r0, lsl #12
    3fac:	23c80000 	biccs	r0, r8, #0
    3fb0:	23e80000 	mvncs	r0, #0
    3fb4:	9c010000 	stcls	0, cr0, [r1], {-0}
    3fb8:	0007ea01 	andeq	lr, r7, r1, lsl #20
    3fbc:	01802900 	orreq	r2, r0, r0, lsl #18
    3fc0:	56010000 	strpl	r0, [r1], -r0
    3fc4:	0023c827 	eoreq	ip, r3, r7, lsr #16
    3fc8:	0023e800 	eoreq	lr, r3, r0, lsl #16
    3fcc:	01891e00 	orreq	r1, r9, r0, lsl #28
    3fd0:	15750000 	ldrbne	r0, [r5, #-0]!
    3fd4:	00000000 	andeq	r0, r0, r0
    3fd8:	0001942a 	andeq	r9, r1, sl, lsr #8
    3fdc:	00240400 	eoreq	r0, r4, r0, lsl #8
    3fe0:	00241400 	eoreq	r1, r4, r0, lsl #8
    3fe4:	019e0100 	orrseq	r0, lr, r0, lsl #2
    3fe8:	0001b01c 	andeq	fp, r1, ip, lsl r0
    3fec:	0015a000 	andseq	sl, r5, r0
    3ff0:	01a51c00 			; <UNDEFINED> instruction: 0x01a51c00
    3ff4:	15b30000 	ldrne	r0, [r3, #0]!
    3ff8:	04270000 	strteq	r0, [r7], #-0
    3ffc:	14000024 	strne	r0, [r0], #-36	; 0x24
    4000:	1e000024 	cdpne	0, 0, cr0, cr0, cr4, {1}
    4004:	000001bb 			; <UNDEFINED> instruction: 0x000001bb
    4008:	000015d1 	ldrdeq	r1, [r0], -r1	; <UNPREDICTABLE>
    400c:	11000000 	mrsne	r0, (UNDEF: 0)
    4010:	000000e0 	andeq	r0, r0, r0, ror #1
    4014:	00000831 	andeq	r0, r0, r1, lsr r8
    4018:	00005312 	andeq	r5, r0, r2, lsl r3
    401c:	1a00ff00 	bne	43c24 <__bss_end+0x40670>
    4020:	000015e4 	andeq	r1, r0, r4, ror #11
    4024:	21010301 	tstcs	r1, r1, lsl #6
    4028:	05000008 	streq	r0, [r0, #-8]
    402c:	00328003 	eorseq	r8, r2, r3
    4030:	00650000 	rsbeq	r0, r5, r0
    4034:	00020000 	andeq	r0, r2, r0
    4038:	00000e45 	andeq	r0, r0, r5, asr #28
    403c:	0f6b0104 	svceq	0x006b0104
    4040:	24200000 	strtcs	r0, [r0], #-0
    4044:	25fc0000 	ldrbcs	r0, [ip, #0]!
    4048:	72610000 	rsbvc	r0, r1, #0
    404c:	612f6863 	teqvs	pc, r3, ror #16
    4050:	6d2f6d72 	stcvs	13, cr6, [pc, #-456]!	; 3e90 <__bss_end+0x8dc>
    4054:	2d686361 	stclcs	3, cr6, [r8, #-388]!	; 0xfffffe7c
    4058:	786e7573 	stmdavc	lr!, {r0, r1, r4, r5, r6, r8, sl, ip, sp, lr}^
    405c:	6d702f69 	ldclvs	15, cr2, [r0, #-420]!	; 0xfffffe5c
    4060:	6174732f 	cmnvs	r4, pc, lsr #6
    4064:	7962646e 	stmdbvc	r2!, {r1, r2, r3, r5, r6, sl, sp, lr}^
    4068:	2f2e2e2f 	svccs	0x002e2e2f
    406c:	5f6d656d 	svcpl	0x006d656d
    4070:	6c766964 	ldclvs	9, cr6, [r6], #-400	; 0xfffffe70
    4074:	532e6269 	teqpl	lr, #-1879048186	; 0x90000006
    4078:	6f772f00 	svcvs	0x00772f00
    407c:	612f6b72 	teqvs	pc, r2, ror fp	; <UNPREDICTABLE>
    4080:	6c2f3338 	stcvs	3, cr3, [pc], #-224	; 3fa8 <__bss_end+0x9f4>
    4084:	78756e69 	ldmdavc	r5!, {r0, r3, r5, r6, r9, sl, fp, sp, lr}^
    4088:	342e332d 	strtcc	r3, [lr], #-813	; 0x32d
    408c:	554e4700 	strbpl	r4, [lr, #-1792]	; 0x700
    4090:	20534120 	subscs	r4, r3, r0, lsr #2
    4094:	32322e32 	eorscc	r2, r2, #800	; 0x320
    4098:	f6800100 			; <UNDEFINED> instruction: 0xf6800100
    409c:	02000000 	andeq	r0, r0, #0
    40a0:	000e5900 	andeq	r5, lr, r0, lsl #18
    40a4:	46010400 	strmi	r0, [r1], -r0, lsl #8
    40a8:	01000000 	mrseq	r0, (UNDEF: 0)
    40ac:	000016d8 	ldrdeq	r1, [r0], -r8
    40b0:	0000015d 	andeq	r0, r0, sp, asr r1
    40b4:	000025fc 	strdeq	r2, [r0], -ip
    40b8:	00002654 	andeq	r2, r0, r4, asr r6
    40bc:	00001018 	andeq	r1, r0, r8, lsl r0
    40c0:	81060102 	tsthi	r6, r2, lsl #2
    40c4:	02000000 	andeq	r0, r0, #0
    40c8:	007f0801 	rsbseq	r0, pc, r1, lsl #16
    40cc:	02020000 	andeq	r0, r2, #0
    40d0:	0001a405 	andeq	sl, r1, r5, lsl #8
    40d4:	07020200 	streq	r0, [r2, -r0, lsl #4]
    40d8:	000000a3 	andeq	r0, r0, r3, lsr #1
    40dc:	00101703 	andseq	r1, r0, r3, lsl #14
    40e0:	4c120200 	lfmmi	f0, 4, [r2], {-0}
    40e4:	04000000 	streq	r0, [r0], #-0
    40e8:	6e690504 	cdpvs	5, 6, cr0, cr9, cr4, {0}
    40ec:	30030074 	andcc	r0, r3, r4, ror r0
    40f0:	02000008 	andeq	r0, r0, #8
    40f4:	00005e13 	andeq	r5, r0, r3, lsl lr
    40f8:	07040200 	streq	r0, [r4, -r0, lsl #4]
    40fc:	00000124 	andeq	r0, r0, r4, lsr #2
    4100:	7f050802 	svcvc	0x00050802
    4104:	02000001 	andeq	r0, r0, #1
    4108:	011a0708 	tsteq	sl, r8, lsl #14
    410c:	01020000 	mrseq	r0, (UNDEF: 2)
    4110:	00008808 	andeq	r8, r0, r8, lsl #16
    4114:	07040200 	streq	r0, [r4, -r0, lsl #4]
    4118:	0000011f 	andeq	r0, r0, pc, lsl r1
    411c:	169f0105 	ldrne	r0, [pc], r5, lsl #2
    4120:	03010000 	movweq	r0, #4096	; 0x1000
    4124:	0025fc01 	eoreq	pc, r5, r1, lsl #24
    4128:	00260800 	eoreq	r0, r6, r0, lsl #16
    412c:	007d0200 	rsbseq	r0, sp, r0, lsl #4
    4130:	16c40106 	strbne	r0, [r4], r6, lsl #2
    4134:	08010000 	stmdaeq	r1, {}	; <UNPREDICTABLE>
    4138:	00005301 	andeq	r5, r0, r1, lsl #6
    413c:	00260800 	eoreq	r0, r6, r0, lsl #16
    4140:	00265400 	eoreq	r5, r6, r0, lsl #8
    4144:	007d0200 	rsbseq	r0, sp, r0, lsl #4
    4148:	0016bb07 	andseq	fp, r6, r7, lsl #22
    414c:	53080100 	movwpl	r0, #33024	; 0x8100
    4150:	e4000000 	str	r0, [r0], #-0
    4154:	07000015 	smladeq	r0, r5, r0, r0
    4158:	000016b2 			; <UNDEFINED> instruction: 0x000016b2
    415c:	00530801 	subseq	r0, r3, r1, lsl #16
    4160:	15f70000 	ldrbne	r0, [r7, #0]!
    4164:	d1080000 	mrsle	r0, (UNDEF: 8)
    4168:	01000016 	tsteq	r0, r6, lsl r0
    416c:	0000530a 	andeq	r5, r0, sl, lsl #6
    4170:	00160a00 	andseq	r0, r6, r0, lsl #20
    4174:	16aa0800 	strtne	r0, [sl], r0, lsl #16
    4178:	0b010000 	bleq	44180 <__bss_end+0x40bcc>
    417c:	00000053 	andeq	r0, r0, r3, asr r0
    4180:	00001642 	andeq	r1, r0, r2, asr #12
    4184:	00170808 	andseq	r0, r7, r8, lsl #16
    4188:	410c0100 	mrsmi	r0, (UNDEF: 28)
    418c:	6c000000 	stcvs	0, cr0, [r0], {-0}
    4190:	00000016 	andeq	r0, r0, r6, lsl r0
    4194:	0002cd00 	andeq	ip, r2, r0, lsl #26
    4198:	da000200 	ble	49a0 <__bss_end+0x13ec>
    419c:	0400000e 	streq	r0, [r0], #-14
    41a0:	00004601 	andeq	r4, r0, r1, lsl #12
    41a4:	17220100 	strne	r0, [r2, -r0, lsl #2]!
    41a8:	015d0000 	cmpeq	sp, r0
    41ac:	26540000 	ldrbcs	r0, [r4], -r0
    41b0:	27f00000 	ldrbcs	r0, [r0, r0]!
    41b4:	109e0000 	addsne	r0, lr, r0
    41b8:	01020000 	mrseq	r0, (UNDEF: 2)
    41bc:	00008106 	andeq	r8, r0, r6, lsl #2
    41c0:	08010200 	stmdaeq	r1, {r9}
    41c4:	0000007f 	andeq	r0, r0, pc, ror r0
    41c8:	a4050202 	strge	r0, [r5], #-514	; 0x202
    41cc:	02000001 	andeq	r0, r0, #1
    41d0:	00a30702 	adceq	r0, r3, r2, lsl #14
    41d4:	17030000 	strne	r0, [r3, -r0]
    41d8:	02000010 	andeq	r0, r0, #16
    41dc:	00004c12 	andeq	r4, r0, r2, lsl ip
    41e0:	05040400 	streq	r0, [r4, #-1024]	; 0x400
    41e4:	00746e69 	rsbseq	r6, r4, r9, ror #28
    41e8:	00083003 	andeq	r3, r8, r3
    41ec:	5e130200 	cdppl	2, 1, cr0, cr3, cr0, {0}
    41f0:	02000000 	andeq	r0, r0, #0
    41f4:	01240704 	teqeq	r4, r4, lsl #14
    41f8:	08020000 	stmdaeq	r2, {}	; <UNPREDICTABLE>
    41fc:	00017f05 	andeq	r7, r1, r5, lsl #30
    4200:	07080200 	streq	r0, [r8, -r0, lsl #4]
    4204:	0000011a 	andeq	r0, r0, sl, lsl r1
    4208:	00005305 	andeq	r5, r0, r5, lsl #6
    420c:	17ba0600 	ldrne	r0, [sl, r0, lsl #12]!
    4210:	03040000 	movweq	r0, #16384	; 0x4000
    4214:	00012918 	andeq	r2, r1, r8, lsl r9
    4218:	19030700 	stmdbne	r3, {r8, r9, sl}
    421c:	07320000 	ldreq	r0, [r2, -r0]!
    4220:	00001915 	andeq	r1, r0, r5, lsl r9
    4224:	178a0733 			; <UNDEFINED> instruction: 0x178a0733
    4228:	07000000 	streq	r0, [r0, -r0]
    422c:	00001892 	muleq	r0, r2, r8
    4230:	df0700ca 	svcle	0x000700ca
    4234:	c0000018 	andgt	r0, r0, r8, lsl r0
    4238:	195c0700 	ldmdbne	ip, {r8, r9, sl}^
    423c:	00d10000 	sbcseq	r0, r1, r0
    4240:	00197607 	andseq	r7, r9, r7, lsl #12
    4244:	3e070000 	cdpcc	0, 0, cr0, cr7, cr0, {0}
    4248:	00000019 	andeq	r0, r0, r9, lsl r0
    424c:	00194d07 	andseq	r4, r9, r7, lsl #26
    4250:	77070000 	strvc	r0, [r7, -r0]
    4254:	e7000018 	smlad	r0, r8, r0, r0
    4258:	174e0700 	strbne	r0, [lr, -r0, lsl #14]
    425c:	00e80000 	rsceq	r0, r8, r0
    4260:	00176207 	andseq	r6, r7, r7, lsl #4
    4264:	0700ea00 	streq	lr, [r0, -r0, lsl #20]
    4268:	00001776 	andeq	r1, r0, r6, ror r7
    426c:	18a30700 	stmiane	r3!, {r8, r9, sl}
    4270:	00e90000 	rsceq	r0, r9, r0
    4274:	0018b707 	andseq	fp, r8, r7, lsl #14
    4278:	cb070000 	blgt	1c4280 <__bss_end+0x1c0ccc>
    427c:	00000018 	andeq	r0, r0, r8, lsl r0
    4280:	0017cd07 	andseq	ip, r7, r7, lsl #26
    4284:	de070000 	cdple	0, 0, cr0, cr7, cr0, {0}
    4288:	2f000017 	svccs	0x00000017
    428c:	0017ef07 	andseq	lr, r7, r7, lsl #30
    4290:	00070000 	andeq	r0, r7, r0
    4294:	00000018 	andeq	r0, r0, r8, lsl r0
    4298:	00181107 	andseq	r1, r8, r7, lsl #2
    429c:	22070000 	andcs	r0, r7, #0
    42a0:	00000018 	andeq	r0, r0, r8, lsl r0
    42a4:	00183307 	andseq	r3, r8, r7, lsl #6
    42a8:	44073100 	strmi	r3, [r7], #-256	; 0x100
    42ac:	84000018 	strhi	r0, [r0], #-24
    42b0:	18550701 	ldmdane	r5, {r0, r8, r9, sl}^
    42b4:	07000000 	streq	r0, [r0, -r0]
    42b8:	00001866 	andeq	r1, r0, r6, ror #16
    42bc:	47060000 	strmi	r0, [r6, -r0]
    42c0:	04000001 	streq	r0, [r0], #-1
    42c4:	01968904 	orrseq	r8, r6, r4, lsl #18
    42c8:	1e070000 	cdpne	0, 0, cr0, cr7, cr0, {0}
    42cc:	00000000 	andeq	r0, r0, r0
    42d0:	00009607 	andeq	r9, r0, r7, lsl #12
    42d4:	39070100 	stmdbcc	r7, {r8}
    42d8:	02000000 	andeq	r0, r0, #0
    42dc:	00007307 	andeq	r7, r0, r7, lsl #6
    42e0:	8d070300 	stchi	3, cr0, [r7, #-0]
    42e4:	04000001 	streq	r0, [r0], #-1
    42e8:	00010e07 	andeq	r0, r1, r7, lsl #28
    42ec:	f6070500 			; <UNDEFINED> instruction: 0xf6070500
    42f0:	06000000 	streq	r0, [r0], -r0
    42f4:	00013107 	andeq	r3, r1, r7, lsl #2
    42f8:	12070700 	andne	r0, r7, #0
    42fc:	08000000 	stmdaeq	r0, {}	; <UNPREDICTABLE>
    4300:	00006807 	andeq	r6, r0, r7, lsl #16
    4304:	03070900 	movweq	r0, #30976	; 0x7900
    4308:	0a000001 	beq	4314 <__bss_end+0xd60>
    430c:	00019907 	andeq	r9, r1, r7, lsl #18
    4310:	41070b00 	tstmi	r7, r0, lsl #22
    4314:	0c000001 	stceq	0, cr0, [r0], {1}
    4318:	00017107 	andeq	r7, r1, r7, lsl #2
    431c:	1e070d00 	cdpne	13, 0, cr0, cr7, cr0, {0}
    4320:	0e000002 	cdpeq	0, 0, cr0, cr0, cr2, {0}
    4324:	00002b07 	andeq	r2, r0, r7, lsl #22
    4328:	02000f00 	andeq	r0, r0, #0
    432c:	00880801 	addeq	r0, r8, r1, lsl #16
    4330:	04020000 	streq	r0, [r2], #-0
    4334:	00011f07 	andeq	r1, r1, r7, lsl #30
    4338:	09040800 	stmdbeq	r4, {fp}
    433c:	00179e01 	andseq	r9, r7, r1, lsl #28
    4340:	01220100 	teqeq	r2, r0, lsl #2
    4344:	00000041 	andeq	r0, r0, r1, asr #32
    4348:	00002654 	andeq	r2, r0, r4, asr r6
    434c:	000026e4 	andeq	r2, r0, r4, ror #13
    4350:	00001696 	muleq	r0, r6, r6
    4354:	000001d1 	ldrdeq	r0, [r0], -r1
    4358:	0100690a 	tsteq	r0, sl, lsl #18
    435c:	00005324 	andeq	r5, r0, r4, lsr #6
    4360:	0016b600 	andseq	fp, r6, r0, lsl #12
    4364:	01090000 	mrseq	r0, (UNDEF: 9)
    4368:	00001715 	andeq	r1, r0, r5, lsl r7
    436c:	41015701 	tstmi	r1, r1, lsl #14
    4370:	e4000000 	str	r0, [r0], #-0
    4374:	38000026 	stmdacc	r0, {r1, r2, r5}
    4378:	d5000027 	strle	r0, [r0, #-39]	; 0x27
    437c:	0b000016 	bleq	43dc <__bss_end+0xe28>
    4380:	0a000002 	beq	4390 <__bss_end+0xddc>
    4384:	59010069 	stmdbpl	r1, {r0, r3, r5, r6}
    4388:	0000004c 	andeq	r0, r0, ip, asr #32
    438c:	000016f5 	strdeq	r1, [r0], -r5
    4390:	0018f10b 	andseq	pc, r8, fp, lsl #2
    4394:	735a0100 	cmpvc	sl, #0
    4398:	14000000 	strne	r0, [r0], #-0
    439c:	00000017 	andeq	r0, r0, r7, lsl r0
    43a0:	17ab010c 	strne	r0, [fp, ip, lsl #2]!
    43a4:	71010000 	mrsvc	r0, (UNDEF: 1)
    43a8:	00004101 	andeq	r4, r0, r1, lsl #2
    43ac:	00273800 	eoreq	r3, r7, r0, lsl #16
    43b0:	00279400 	eoreq	r9, r7, r0, lsl #8
    43b4:	007d0200 	rsbseq	r0, sp, r0, lsl #4
    43b8:	00000255 	andeq	r0, r0, r5, asr r2
    43bc:	6372730d 	cmnvs	r2, #872415232	; 0x34000000
    43c0:	78710100 	ldmdavc	r1!, {r8}^
    43c4:	3f000000 	svccc	0x00000000
    43c8:	0b000017 	bleq	442c <__bss_end+0xe78>
    43cc:	0000196f 	andeq	r1, r0, pc, ror #18
    43d0:	00537301 	subseq	r7, r3, r1, lsl #6
    43d4:	175d0000 	ldrbne	r0, [sp, -r0]
    43d8:	fc0b0000 	stc2	0, cr0, [fp], {-0}
    43dc:	01000018 	tsteq	r0, r8, lsl r0
    43e0:	00005374 	andeq	r5, r0, r4, ror r3
    43e4:	00179000 	andseq	r9, r7, r0
    43e8:	010c0000 	mrseq	r0, (UNDEF: 12)
    43ec:	00001930 	andeq	r1, r0, r0, lsr r9
    43f0:	41019301 	tstmi	r1, r1, lsl #6
    43f4:	94000000 	strls	r0, [r0], #-0
    43f8:	f0000027 			; <UNDEFINED> instruction: 0xf0000027
    43fc:	02000027 	andeq	r0, r0, #39	; 0x27
    4400:	02ae007d 	adceq	r0, lr, #125	; 0x7d
    4404:	730d0000 	movwvc	r0, #53248	; 0xd000
    4408:	01006372 	tsteq	r0, r2, ror r3
    440c:	00007893 	muleq	r0, r3, r8
    4410:	0017c100 	andseq	ip, r7, r0, lsl #2
    4414:	170e0b00 	strne	r0, [lr, -r0, lsl #22]
    4418:	95010000 	strls	r0, [r1, #-0]
    441c:	00000041 	andeq	r0, r0, r1, asr #32
    4420:	000017df 	ldrdeq	r1, [r0], -pc	; <UNPREDICTABLE>
    4424:	00196f0b 	andseq	r6, r9, fp, lsl #30
    4428:	53960100 	orrspl	r0, r6, #0
    442c:	ff000000 			; <UNDEFINED> instruction: 0xff000000
    4430:	0b000017 	bleq	4494 <__bss_end+0xee0>
    4434:	000018fc 	strdeq	r1, [r0], -ip
    4438:	00539701 	subseq	r9, r3, r1, lsl #14
    443c:	183e0000 	ldmdane	lr!, {}	; <UNPREDICTABLE>
    4440:	0e000000 	cdpeq	0, 0, cr0, cr0, cr0, {0}
    4444:	00001927 	andeq	r1, r0, r7, lsr #18
    4448:	01a41401 			; <UNDEFINED> instruction: 0x01a41401
    444c:	03050000 	movweq	r0, #20480	; 0x5000
    4450:	00003380 	andeq	r3, r0, r0, lsl #7
    4454:	0018890e 	andseq	r8, r8, lr, lsl #18
    4458:	a4150100 	ldrge	r0, [r5], #-256	; 0x100
    445c:	05000001 	streq	r0, [r0, #-1]
    4460:	00338403 	eorseq	r8, r3, r3, lsl #8
    4464:	01660000 	cmneq	r6, r0
    4468:	00020000 	andeq	r0, r2, r0
    446c:	00000fa5 	andeq	r0, r0, r5, lsr #31
    4470:	00460104 	subeq	r0, r6, r4, lsl #2
    4474:	d2010000 	andle	r0, r1, #0
    4478:	5d000019 	stcpl	0, cr0, [r0, #-100]	; 0xffffff9c
    447c:	f0000001 			; <UNDEFINED> instruction: 0xf0000001
    4480:	90000027 	andls	r0, r0, r7, lsr #32
    4484:	c3000028 	movwgt	r0, #40	; 0x28
    4488:	02000011 	andeq	r0, r0, #17
    448c:	00810601 	addeq	r0, r1, r1, lsl #12
    4490:	01020000 	mrseq	r0, (UNDEF: 2)
    4494:	00007f08 	andeq	r7, r0, r8, lsl #30
    4498:	05020200 	streq	r0, [r2, #-512]	; 0x200
    449c:	000001a4 	andeq	r0, r0, r4, lsr #3
    44a0:	a3070202 	movwge	r0, #29186	; 0x7202
    44a4:	03000000 	movweq	r0, #0
    44a8:	00001017 	andeq	r1, r0, r7, lsl r0
    44ac:	004c1202 	subeq	r1, ip, r2, lsl #4
    44b0:	04040000 	streq	r0, [r4], #-0
    44b4:	746e6905 	strbtvc	r6, [lr], #-2309	; 0x905
    44b8:	08300300 	ldmdaeq	r0!, {r8, r9}
    44bc:	13020000 	movwne	r0, #8192	; 0x2000
    44c0:	0000005e 	andeq	r0, r0, lr, asr r0
    44c4:	24070402 	strcs	r0, [r7], #-1026	; 0x402
    44c8:	02000001 	andeq	r0, r0, #1
    44cc:	017f0508 	cmneq	pc, r8, lsl #10
    44d0:	08020000 	stmdaeq	r2, {}	; <UNPREDICTABLE>
    44d4:	00011a07 	andeq	r1, r1, r7, lsl #20
    44d8:	19990500 	ldmibne	r9, {r8, sl}
    44dc:	03200000 	teqeq	r0, #0
    44e0:	008f1603 	addeq	r1, pc, r3, lsl #12
    44e4:	c4060000 	strgt	r0, [r6], #-0
    44e8:	03000019 	movweq	r0, #25
    44ec:	00008f17 	andeq	r8, r0, r7, lsl pc
    44f0:	00230200 	eoreq	r0, r3, r0, lsl #4
    44f4:	00530700 	subseq	r0, r3, r0, lsl #14
    44f8:	009f0000 	addseq	r0, pc, r0
    44fc:	5e080000 	cdppl	0, 0, cr0, cr8, cr0, {0}
    4500:	c7000000 	strgt	r0, [r0, -r0]
    4504:	08010200 	stmdaeq	r1, {r9}
    4508:	00000088 	andeq	r0, r0, r8, lsl #1
    450c:	1f070402 	svcne	0x00070402
    4510:	09000001 	stmdbeq	r0, {r0}
    4514:	0019ff01 	andseq	pc, r9, r1, lsl #30
    4518:	010f0100 	mrseq	r0, (UNDEF: 31)
    451c:	00000041 	andeq	r0, r0, r1, asr #32
    4520:	000027f0 	strdeq	r2, [r0], -r0
    4524:	0000281c 	andeq	r2, r0, ip, lsl r8
    4528:	e6007d02 	str	r7, [r0], -r2, lsl #26
    452c:	0a000000 	beq	4534 <__bss_end+0xf80>
    4530:	00001998 	muleq	r0, r8, r9
    4534:	00e60f01 	rsceq	r0, r6, r1, lsl #30
    4538:	186f0000 	stmdane	pc!, {}^	; <UNPREDICTABLE>
    453c:	690b0000 	stmdbvs	fp, {}	; <UNPREDICTABLE>
    4540:	4c110100 	ldfmis	f0, [r1], {-0}
    4544:	8f000000 	svchi	0x00000000
    4548:	00000018 	andeq	r0, r0, r8, lsl r0
    454c:	0073040c 	rsbseq	r0, r3, ip, lsl #8
    4550:	01090000 	mrseq	r0, (UNDEF: 9)
    4554:	00001987 	andeq	r1, r0, r7, lsl #19
    4558:	41012501 	tstmi	r1, r1, lsl #10
    455c:	1c000000 	stcne	0, cr0, [r0], {-0}
    4560:	48000028 	stmdami	r0, {r3, r5}
    4564:	02000028 	andeq	r0, r0, #40	; 0x28
    4568:	0125007d 	teqeq	r5, sp, ror r0
    456c:	980a0000 	stmdals	sl, {}	; <UNPREDICTABLE>
    4570:	01000019 	tsteq	r0, r9, lsl r0
    4574:	0000e625 	andeq	lr, r0, r5, lsr #12
    4578:	0018a300 	andseq	sl, r8, r0, lsl #6
    457c:	00690b00 	rsbeq	r0, r9, r0, lsl #22
    4580:	004c2701 	subeq	r2, ip, r1, lsl #14
    4584:	18c30000 	stmiane	r3, {}^	; <UNPREDICTABLE>
    4588:	0d000000 	stceq	0, cr0, [r0, #-0]
    458c:	0019a401 	andseq	sl, r9, r1, lsl #8
    4590:	01390100 	teqeq	r9, r0, lsl #2
    4594:	00002848 	andeq	r2, r0, r8, asr #16
    4598:	00002890 	muleq	r0, r0, r8
    459c:	0a007d02 	beq	239ac <__bss_end+0x203f8>
    45a0:	000014fa 	strdeq	r1, [r0], -sl
    45a4:	00533901 	subseq	r3, r3, r1, lsl #18
    45a8:	18d70000 	ldmne	r7, {}^	; <UNPREDICTABLE>
    45ac:	b40e0000 	strlt	r0, [lr], #-0
    45b0:	01000019 	tsteq	r0, r9, lsl r0
    45b4:	0000533b 	andeq	r5, r0, fp, lsr r3
    45b8:	88030500 	stmdahi	r3, {r8, sl}
    45bc:	0f000033 	svceq	0x00000033
    45c0:	00001a0d 	andeq	r1, r0, sp, lsl #20
    45c4:	00533c01 	subseq	r3, r3, r1, lsl #24
    45c8:	18ea0000 	stmiane	sl!, {}^	; <UNPREDICTABLE>
    45cc:	00000000 	andeq	r0, r0, r0
    45d0:	00000488 	andeq	r0, r0, r8, lsl #9
    45d4:	107f0002 	rsbsne	r0, pc, r2
    45d8:	01040000 	mrseq	r0, (UNDEF: 4)
    45dc:	00000046 	andeq	r0, r0, r6, asr #32
    45e0:	001ac801 	andseq	ip, sl, r1, lsl #16
    45e4:	00015d00 	andeq	r5, r1, r0, lsl #26
    45e8:	00289000 	eoreq	r9, r8, r0
    45ec:	002a7800 	eoreq	r7, sl, r0, lsl #16
    45f0:	00126f00 	andseq	r6, r2, r0, lsl #30
    45f4:	06010200 	streq	r0, [r1], -r0, lsl #4
    45f8:	00000081 	andeq	r0, r0, r1, lsl #1
    45fc:	7f080102 	svcvc	0x00080102
    4600:	02000000 	andeq	r0, r0, #0
    4604:	01a40502 			; <UNDEFINED> instruction: 0x01a40502
    4608:	02020000 	andeq	r0, r2, #0
    460c:	0000a307 	andeq	sl, r0, r7, lsl #6
    4610:	10170300 	andsne	r0, r7, r0, lsl #6
    4614:	12020000 	andne	r0, r2, #0
    4618:	0000004c 	andeq	r0, r0, ip, asr #32
    461c:	69050404 	stmdbvs	r5, {r2, sl}
    4620:	0300746e 	movweq	r7, #1134	; 0x46e
    4624:	00000830 	andeq	r0, r0, r0, lsr r8
    4628:	005e1302 	subseq	r1, lr, r2, lsl #6
    462c:	04020000 	streq	r0, [r2], #-0
    4630:	00012407 	andeq	r2, r1, r7, lsl #8
    4634:	05080200 	streq	r0, [r8, #-512]	; 0x200
    4638:	0000017f 	andeq	r0, r0, pc, ror r1
    463c:	1a070802 	bne	1c664c <__bss_end+0x1c3098>
    4640:	05000001 	streq	r0, [r0, #-1]
    4644:	00000053 	andeq	r0, r0, r3, asr r0
    4648:	00005306 	andeq	r5, r0, r6, lsl #6
    464c:	00008800 	andeq	r8, r0, r0, lsl #16
    4650:	005e0700 	subseq	r0, lr, r0, lsl #14
    4654:	00010000 	andeq	r0, r1, r0
    4658:	00005306 	andeq	r5, r0, r6, lsl #6
    465c:	00009800 	andeq	r9, r0, r0, lsl #16
    4660:	005e0700 	subseq	r0, lr, r0, lsl #14
    4664:	00030000 	andeq	r0, r3, r0
    4668:	001ba308 	andseq	sl, fp, r8, lsl #6
    466c:	1503bc00 	strne	fp, [r3, #-3072]	; 0xc00
    4670:	000002b6 			; <UNDEFINED> instruction: 0x000002b6
    4674:	001a3809 	andseq	r3, sl, r9, lsl #16
    4678:	73180300 	tstvc	r8, #0
    467c:	02000000 	andeq	r0, r0, #0
    4680:	01090023 	tsteq	r9, r3, lsr #32
    4684:	0300001c 	movweq	r0, #28
    4688:	00007319 	andeq	r7, r0, r9, lsl r3
    468c:	04230200 	strteq	r0, [r3], #-512	; 0x200
    4690:	000a5709 	andeq	r5, sl, r9, lsl #14
    4694:	b61a0300 	ldrlt	r0, [sl], -r0, lsl #6
    4698:	02000002 	andeq	r0, r0, #2
    469c:	46090823 	strmi	r0, [r9], -r3, lsr #16
    46a0:	0300001c 	movweq	r0, #28
    46a4:	0000731c 	andeq	r7, r0, ip, lsl r3
    46a8:	10230200 	eorne	r0, r3, r0, lsl #4
    46ac:	001a3f09 	andseq	r3, sl, r9, lsl #30
    46b0:	731d0300 	tstvc	sp, #0
    46b4:	02000000 	andeq	r0, r0, #0
    46b8:	6d091423 	cfstrsvs	mvf1, [r9, #-140]	; 0xffffff74
    46bc:	0300001a 	movweq	r0, #26
    46c0:	0000731e 	andeq	r7, r0, lr, lsl r3
    46c4:	18230200 	stmdane	r3!, {r9}
    46c8:	000a6109 	andeq	r6, sl, r9, lsl #2
    46cc:	731f0300 	tstvc	pc, #0
    46d0:	02000000 	andeq	r0, r0, #0
    46d4:	65091c23 	strvs	r1, [r9, #-3107]	; 0xc23
    46d8:	0300001a 	movweq	r0, #26
    46dc:	00007321 	andeq	r7, r0, r1, lsr #6
    46e0:	20230200 	eorcs	r0, r3, r0, lsl #4
    46e4:	001bd509 	andseq	sp, fp, r9, lsl #10
    46e8:	73220300 	teqvc	r2, #0
    46ec:	02000000 	andeq	r0, r0, #0
    46f0:	08092423 	stmdaeq	r9, {r0, r1, r5, sl, sp}
    46f4:	0300001c 	movweq	r0, #28
    46f8:	00007323 	andeq	r7, r0, r3, lsr #6
    46fc:	28230200 	stmdacs	r3!, {r9}
    4700:	000a6b09 	andeq	r6, sl, r9, lsl #22
    4704:	73240300 	teqvc	r4, #0
    4708:	02000000 	andeq	r0, r0, #0
    470c:	2d092c23 	stccs	12, cr2, [r9, #-140]	; 0xffffff74
    4710:	0300001b 	movweq	r0, #27
    4714:	00007326 	andeq	r7, r0, r6, lsr #6
    4718:	30230200 	eorcc	r0, r3, r0, lsl #4
    471c:	001a8009 	andseq	r8, sl, r9
    4720:	73270300 	teqvc	r7, #0
    4724:	02000000 	andeq	r0, r0, #0
    4728:	9b093423 	blls	2517bc <__bss_end+0x24e208>
    472c:	0300001a 	movweq	r0, #26
    4730:	00007328 	andeq	r7, r0, r8, lsr #6
    4734:	38230200 	stmdacc	r3!, {r9}
    4738:	000a7509 	andeq	r7, sl, r9, lsl #10
    473c:	73290300 	teqvc	r9, #0
    4740:	02000000 	andeq	r0, r0, #0
    4744:	f2093c23 			; <UNDEFINED> instruction: 0xf2093c23
    4748:	0300001b 	movweq	r0, #27
    474c:	0000732b 	andeq	r7, r0, fp, lsr #6
    4750:	40230200 	eormi	r0, r3, r0, lsl #4
    4754:	001c1309 	andseq	r1, ip, r9, lsl #6
    4758:	732c0300 	teqvc	ip, #0
    475c:	02000000 	andeq	r0, r0, #0
    4760:	7f094423 	svcvc	0x00094423
    4764:	0300000a 	movweq	r0, #10
    4768:	0002bb2d 	andeq	fp, r2, sp, lsr #22
    476c:	48230200 	stmdami	r3!, {r9}
    4770:	001c4e09 	andseq	r4, ip, r9, lsl #28
    4774:	732f0300 	teqvc	pc, #0
    4778:	02000000 	andeq	r0, r0, #0
    477c:	f4095023 	vst4.8	{d5-d8}, [r9 :128], r3
    4780:	0300001a 	movweq	r0, #26
    4784:	00007330 	andeq	r7, r0, r0, lsr r3
    4788:	54230200 	strtpl	r0, [r3], #-512	; 0x200
    478c:	001aff09 	andseq	pc, sl, r9, lsl #30
    4790:	73310300 	teqvc	r1, #0
    4794:	02000000 	andeq	r0, r0, #0
    4798:	89095823 	stmdbhi	r9, {r0, r1, r5, fp, ip, lr}
    479c:	0300000a 	movweq	r0, #10
    47a0:	00007332 	andeq	r7, r0, r2, lsr r3
    47a4:	5c230200 	sfmpl	f0, 4, [r3], #-0
    47a8:	001a7809 	andseq	r7, sl, r9, lsl #16
    47ac:	73340300 	teqvc	r4, #0
    47b0:	02000000 	andeq	r0, r0, #0
    47b4:	ca096023 	bgt	25c848 <__bss_end+0x259294>
    47b8:	0300001b 	movweq	r0, #27
    47bc:	00007335 	andeq	r7, r0, r5, lsr r3
    47c0:	64230200 	strtvs	r0, [r3], #-512	; 0x200
    47c4:	001c3409 	andseq	r3, ip, r9, lsl #8
    47c8:	73360300 	teqvc	r6, #0
    47cc:	02000000 	andeq	r0, r0, #0
    47d0:	93096823 	movwls	r6, #38947	; 0x9823
    47d4:	0300000a 	movweq	r0, #10
    47d8:	0002d037 	andeq	sp, r2, r7, lsr r0
    47dc:	6c230200 	sfmvs	f0, 4, [r3], #-0
    47e0:	001bfa09 	andseq	pc, fp, r9, lsl #20
    47e4:	73390300 	teqvc	r9, #0
    47e8:	03000000 	movweq	r0, #0
    47ec:	09018023 	stmdbeq	r1, {r0, r1, r5, pc}
    47f0:	00001c2c 	andeq	r1, r0, ip, lsr #24
    47f4:	00733a03 	rsbseq	r3, r3, r3, lsl #20
    47f8:	23030000 	movwcs	r0, #12288	; 0x3000
    47fc:	30090184 	andcc	r0, r9, r4, lsl #3
    4800:	0300001a 	movweq	r0, #26
    4804:	0000733b 	andeq	r7, r0, fp, lsr r3
    4808:	88230300 	stmdahi	r3!, {r8, r9}
    480c:	1beb0901 	blne	ffac6c18 <__bss_end+0xffac3664>
    4810:	3c030000 	stccc	0, cr0, [r3], {-0}
    4814:	00000073 	andeq	r0, r0, r3, ror r0
    4818:	018c2303 	orreq	r2, ip, r3, lsl #6
    481c:	000a9d09 	andeq	r9, sl, r9, lsl #26
    4820:	d53f0300 	ldrle	r0, [pc, #-768]!	; 4528 <__bss_end+0xf74>
    4824:	03000002 	movweq	r0, #2
    4828:	09019023 	stmdbeq	r1, {r0, r1, r5, ip, pc}
    482c:	00001b7f 	andeq	r1, r0, pc, ror fp
    4830:	00734203 	rsbseq	r4, r3, r3, lsl #4
    4834:	23030000 	movwcs	r0, #12288	; 0x3000
    4838:	220901a0 	andcs	r0, r9, #40	; 0x28
    483c:	0300001a 	movweq	r0, #26
    4840:	00007343 	andeq	r7, r0, r3, asr #6
    4844:	a4230300 	strtge	r0, [r3], #-768	; 0x300
    4848:	1b230901 	blne	8c6c54 <__bss_end+0x8c36a0>
    484c:	44030000 	strmi	r0, [r3], #-0
    4850:	000002da 	ldrdeq	r0, [r0], -sl
    4854:	01a82303 			; <UNDEFINED> instruction: 0x01a82303
    4858:	001a4a09 	andseq	r4, sl, r9, lsl #20
    485c:	73470300 	movtvc	r0, #29440	; 0x7300
    4860:	03000000 	movweq	r0, #0
    4864:	0901b023 	stmdbeq	r1, {r0, r1, r5, ip, sp, pc}
    4868:	00001c1e 	andeq	r1, r0, lr, lsl ip
    486c:	00734803 	rsbseq	r4, r3, r3, lsl #16
    4870:	23030000 	movwcs	r0, #12288	; 0x3000
    4874:	350901b4 	strcc	r0, [r9, #-436]	; 0x1b4
    4878:	0300001b 	movweq	r0, #27
    487c:	00007349 	andeq	r7, r0, r9, asr #6
    4880:	b8230300 	stmdalt	r3!, {r8, r9}
    4884:	78050001 	stmdavc	r5, {r0}
    4888:	05000000 	streq	r0, [r0, #-0]
    488c:	00000078 	andeq	r0, r0, r8, ror r0
    4890:	00005306 	andeq	r5, r0, r6, lsl #6
    4894:	0002d000 	andeq	sp, r2, r0
    4898:	005e0700 	subseq	r0, lr, r0, lsl #14
    489c:	00040000 	andeq	r0, r4, r0
    48a0:	0002c005 	andeq	ip, r2, r5
    48a4:	00880500 	addeq	r0, r8, r0, lsl #10
    48a8:	78050000 	stmdavc	r5, {}	; <UNPREDICTABLE>
    48ac:	03000000 	movweq	r0, #0
    48b0:	00001a8b 	andeq	r1, r0, fp, lsl #21
    48b4:	00984b03 	addseq	r4, r8, r3, lsl #22
    48b8:	470a0000 	strmi	r0, [sl, -r0]
    48bc:	04000001 	streq	r0, [r0], #-1
    48c0:	03578904 	cmpeq	r7, #65536	; 0x10000
    48c4:	1e0b0000 	cdpne	0, 0, cr0, cr11, cr0, {0}
    48c8:	00000000 	andeq	r0, r0, r0
    48cc:	0000960b 	andeq	r9, r0, fp, lsl #12
    48d0:	390b0100 	stmdbcc	fp, {r8}
    48d4:	02000000 	andeq	r0, r0, #0
    48d8:	0000730b 	andeq	r7, r0, fp, lsl #6
    48dc:	8d0b0300 	stchi	3, cr0, [fp, #-0]
    48e0:	04000001 	streq	r0, [r0], #-1
    48e4:	00010e0b 	andeq	r0, r1, fp, lsl #28
    48e8:	f60b0500 			; <UNDEFINED> instruction: 0xf60b0500
    48ec:	06000000 	streq	r0, [r0], -r0
    48f0:	0001310b 	andeq	r3, r1, fp, lsl #2
    48f4:	120b0700 	andne	r0, fp, #0
    48f8:	08000000 	stmdaeq	r0, {}	; <UNPREDICTABLE>
    48fc:	0000680b 	andeq	r6, r0, fp, lsl #16
    4900:	030b0900 	movweq	r0, #47360	; 0xb900
    4904:	0a000001 	beq	4910 <__bss_end+0x135c>
    4908:	0001990b 	andeq	r9, r1, fp, lsl #18
    490c:	410b0b00 	tstmi	fp, r0, lsl #22
    4910:	0c000001 	stceq	0, cr0, [r0], {1}
    4914:	0001710b 	andeq	r7, r1, fp, lsl #2
    4918:	1e0b0d00 	cdpne	13, 0, cr0, cr11, cr0, {0}
    491c:	0e000002 	cdpeq	0, 0, cr0, cr0, cr2, {0}
    4920:	00002b0b 	andeq	r2, r0, fp, lsl #22
    4924:	02000f00 	andeq	r0, r0, #0
    4928:	00880801 	addeq	r0, r8, r1, lsl #16
    492c:	04020000 	streq	r0, [r2], #-0
    4930:	00011f07 	andeq	r1, r1, r7, lsl #30
    4934:	56010c00 	strpl	r0, [r1], -r0, lsl #24
    4938:	0100001c 	tsteq	r0, ip, lsl r0
    493c:	00410111 	subeq	r0, r1, r1, lsl r1
    4940:	28900000 	ldmcs	r0, {}	; <UNPREDICTABLE>
    4944:	28f00000 	ldmcs	r0!, {}^	; <UNPREDICTABLE>
    4948:	7d020000 	stcvc	0, cr0, [r2, #-0]
    494c:	00039100 	andeq	r9, r3, r0, lsl #2
    4950:	1be00d00 	blne	ff807d58 <__bss_end+0xff8047a4>
    4954:	11010000 	mrsne	r0, (UNDEF: 1)
    4958:	00000391 	muleq	r0, r1, r3
    495c:	000018fe 	strdeq	r1, [r0], -lr
    4960:	df040e00 	svcle	0x00040e00
    4964:	0c000002 	stceq	0, cr0, [r0], {2}
    4968:	001b9301 	andseq	r9, fp, r1, lsl #6
    496c:	012f0100 	teqeq	pc, r0, lsl #2
    4970:	00000041 	andeq	r0, r0, r1, asr #32
    4974:	000028f0 	strdeq	r2, [r0], -r0
    4978:	00002940 	andeq	r2, r0, r0, asr #18
    497c:	c3007d02 	movwgt	r7, #3330	; 0xd02
    4980:	0d000003 	stceq	0, cr0, [r0, #-12]
    4984:	00001be0 	andeq	r1, r0, r0, ror #23
    4988:	03912f01 	orrseq	r2, r1, #4
    498c:	191c0000 	ldmdbne	ip, {}	; <UNPREDICTABLE>
    4990:	0f000000 	svceq	0x00000000
    4994:	001b7201 	andseq	r7, fp, r1, lsl #4
    4998:	01490100 	mrseq	r0, (UNDEF: 89)
    499c:	00000041 	andeq	r0, r0, r1, asr #32
    49a0:	00002940 	andeq	r2, r0, r0, asr #18
    49a4:	00002978 	andeq	r2, r0, r8, ror r9
    49a8:	0f007d02 	svceq	0x00007d02
    49ac:	001abb01 	andseq	fp, sl, r1, lsl #22
    49b0:	01610100 	cmneq	r1, r0, lsl #2
    49b4:	00000041 	andeq	r0, r0, r1, asr #32
    49b8:	00002978 	andeq	r2, r0, r8, ror r9
    49bc:	000029a0 	andeq	r2, r0, r0, lsr #19
    49c0:	10007d02 	andne	r7, r0, r2, lsl #26
    49c4:	001b5a01 	andseq	r5, fp, r1, lsl #20
    49c8:	01790100 	cmneq	r9, r0, lsl #2
    49cc:	000029a0 	andeq	r2, r0, r0, lsr #19
    49d0:	000029e8 	andeq	r2, r0, r8, ror #19
    49d4:	10007d02 	andne	r7, r0, r2, lsl #26
    49d8:	001bb101 	andseq	fp, fp, r1, lsl #2
    49dc:	019a0100 	orrseq	r0, sl, r0, lsl #2
    49e0:	000029e8 	andeq	r2, r0, r8, ror #19
    49e4:	00002a28 	andeq	r2, r0, r8, lsr #20
    49e8:	0c007d02 	stceq	13, cr7, [r0], {2}
    49ec:	001a5901 	andseq	r5, sl, r1, lsl #18
    49f0:	01b50100 			; <UNDEFINED> instruction: 0x01b50100
    49f4:	00000041 	andeq	r0, r0, r1, asr #32
    49f8:	00002a28 	andeq	r2, r0, r8, lsr #20
    49fc:	00002a78 	andeq	r2, r0, r8, ror sl
    4a00:	47007d02 	strmi	r7, [r0, -r2, lsl #26]
    4a04:	0d000004 	stceq	0, cr0, [r0, #-16]
    4a08:	00001b8c 	andeq	r1, r0, ip, lsl #23
    4a0c:	0053b501 	subseq	fp, r3, r1, lsl #10
    4a10:	193a0000 	ldmdbne	sl!, {}	; <UNPREDICTABLE>
    4a14:	11000000 	mrsne	r0, (UNDEF: 0)
    4a18:	00001c3f 	andeq	r1, r0, pc, lsr ip
    4a1c:	03910301 	orrseq	r0, r1, #67108864	; 0x4000000
    4a20:	03050000 	movweq	r0, #20480	; 0x5000
    4a24:	0000338c 	andeq	r3, r0, ip, lsl #7
    4a28:	001b0a11 	andseq	r0, fp, r1, lsl sl
    4a2c:	53040100 	movwpl	r0, #16640	; 0x4100
    4a30:	05000000 	streq	r0, [r0, #-0]
    4a34:	00339003 	eorseq	r9, r3, r3
    4a38:	1b441100 	blne	1108e40 <__bss_end+0x110588c>
    4a3c:	04010000 	streq	r0, [r1], #-0
    4a40:	00000053 	andeq	r0, r0, r3, asr r0
    4a44:	33940305 	orrscc	r0, r4, #335544320	; 0x14000000
    4a48:	a6110000 	ldrge	r0, [r1], -r0
    4a4c:	0100001a 	tsteq	r0, sl, lsl r0
    4a50:	00005304 	andeq	r5, r0, r4, lsl #6
    4a54:	98030500 	stmdals	r3, {r8, sl}
    4a58:	00000033 	andeq	r0, r0, r3, lsr r0
    4a5c:	000001b6 			; <UNDEFINED> instruction: 0x000001b6
    4a60:	11710002 	cmnne	r1, r2
    4a64:	01040000 	mrseq	r0, (UNDEF: 4)
    4a68:	00000046 	andeq	r0, r0, r6, asr #32
    4a6c:	001cb401 	andseq	fp, ip, r1, lsl #8
    4a70:	00015d00 	andeq	r5, r1, r0, lsl #26
    4a74:	002a7800 	eoreq	r7, sl, r0, lsl #16
    4a78:	002ad000 	eoreq	sp, sl, r0
    4a7c:	00136f00 	andseq	r6, r3, r0, lsl #30
    4a80:	06010200 	streq	r0, [r1], -r0, lsl #4
    4a84:	00000081 	andeq	r0, r0, r1, lsl #1
    4a88:	7f080102 	svcvc	0x00080102
    4a8c:	02000000 	andeq	r0, r0, #0
    4a90:	01a40502 			; <UNDEFINED> instruction: 0x01a40502
    4a94:	02020000 	andeq	r0, r2, #0
    4a98:	0000a307 	andeq	sl, r0, r7, lsl #6
    4a9c:	10170300 	andsne	r0, r7, r0, lsl #6
    4aa0:	12020000 	andne	r0, r2, #0
    4aa4:	0000004c 	andeq	r0, r0, ip, asr #32
    4aa8:	69050404 	stmdbvs	r5, {r2, sl}
    4aac:	0300746e 	movweq	r7, #1134	; 0x46e
    4ab0:	00000830 	andeq	r0, r0, r0, lsr r8
    4ab4:	005e1302 	subseq	r1, lr, r2, lsl #6
    4ab8:	04020000 	streq	r0, [r2], #-0
    4abc:	00012407 	andeq	r2, r1, r7, lsl #8
    4ac0:	05080200 	streq	r0, [r8, #-512]	; 0x200
    4ac4:	0000017f 	andeq	r0, r0, pc, ror r1
    4ac8:	1a070802 	bne	1c6ad8 <__bss_end+0x1c3524>
    4acc:	05000001 	streq	r0, [r0, #-1]
    4ad0:	00000053 	andeq	r0, r0, r3, asr r0
    4ad4:	00005306 	andeq	r5, r0, r6, lsl #6
    4ad8:	00008800 	andeq	r8, r0, r0, lsl #16
    4adc:	005e0700 	subseq	r0, lr, r0, lsl #14
    4ae0:	00060000 	andeq	r0, r6, r0
    4ae4:	001cf108 	andseq	pc, ip, r8, lsl #2
    4ae8:	15032400 	strne	r2, [r3, #-1024]	; 0x400
    4aec:	000000bf 	strheq	r0, [r0], -pc	; <UNPREDICTABLE>
    4af0:	6c744309 	ldclvs	3, cr4, [r4], #-36	; 0xffffffdc
    4af4:	73180300 	tstvc	r8, #0
    4af8:	02000000 	andeq	r0, r0, #0
    4afc:	570a0023 	strpl	r0, [sl, -r3, lsr #32]
    4b00:	0300000a 	movweq	r0, #10
    4b04:	0000bf19 	andeq	fp, r0, r9, lsl pc
    4b08:	04230200 	strteq	r0, [r3], #-512	; 0x200
    4b0c:	001c630a 	andseq	r6, ip, sl, lsl #6
    4b10:	731b0300 	tstvc	fp, #0
    4b14:	02000000 	andeq	r0, r0, #0
    4b18:	05002023 	streq	r2, [r0, #-35]	; 0x23
    4b1c:	00000078 	andeq	r0, r0, r8, ror r0
    4b20:	001ca103 	andseq	sl, ip, r3, lsl #2
    4b24:	881d0300 	ldmdahi	sp, {r8, r9}
    4b28:	0b000000 	bleq	4b30 <__bss_end+0x157c>
    4b2c:	00000147 	andeq	r0, r0, r7, asr #2
    4b30:	3c890404 	cfstrscc	mvf0, [r9], {4}
    4b34:	0c000001 	stceq	0, cr0, [r0], {1}
    4b38:	0000001e 	andeq	r0, r0, lr, lsl r0
    4b3c:	00960c00 	addseq	r0, r6, r0, lsl #24
    4b40:	0c010000 	stceq	0, cr0, [r1], {-0}
    4b44:	00000039 	andeq	r0, r0, r9, lsr r0
    4b48:	00730c02 	rsbseq	r0, r3, r2, lsl #24
    4b4c:	0c030000 	stceq	0, cr0, [r3], {-0}
    4b50:	0000018d 	andeq	r0, r0, sp, lsl #3
    4b54:	010e0c04 	tsteq	lr, r4, lsl #24
    4b58:	0c050000 	stceq	0, cr0, [r5], {-0}
    4b5c:	000000f6 	strdeq	r0, [r0], -r6
    4b60:	01310c06 	teqeq	r1, r6, lsl #24
    4b64:	0c070000 	stceq	0, cr0, [r7], {-0}
    4b68:	00000012 	andeq	r0, r0, r2, lsl r0
    4b6c:	00680c08 	rsbeq	r0, r8, r8, lsl #24
    4b70:	0c090000 	stceq	0, cr0, [r9], {-0}
    4b74:	00000103 	andeq	r0, r0, r3, lsl #2
    4b78:	01990c0a 	orrseq	r0, r9, sl, lsl #24
    4b7c:	0c0b0000 	stceq	0, cr0, [fp], {-0}
    4b80:	00000141 	andeq	r0, r0, r1, asr #2
    4b84:	01710c0c 	cmneq	r1, ip, lsl #24
    4b88:	0c0d0000 	stceq	0, cr0, [sp], {-0}
    4b8c:	0000021e 	andeq	r0, r0, lr, lsl r2
    4b90:	002b0c0e 	eoreq	r0, fp, lr, lsl #24
    4b94:	000f0000 	andeq	r0, pc, r0
    4b98:	88080102 	stmdahi	r8, {r1, r8}
    4b9c:	02000000 	andeq	r0, r0, #0
    4ba0:	011f0704 	tsteq	pc, r4, lsl #14
    4ba4:	010d0000 	mrseq	r0, (UNDEF: 13)
    4ba8:	00001c74 	andeq	r1, r0, r4, ror ip
    4bac:	41011101 	tstmi	r1, r1, lsl #2
    4bb0:	78000000 	stmdavc	r0, {}	; <UNPREDICTABLE>
    4bb4:	a800002a 	stmdage	r0, {r1, r3, r5}
    4bb8:	0200002a 	andeq	r0, r0, #42	; 0x2a
    4bbc:	0176007d 	cmneq	r6, sp, ror r0
    4bc0:	e30e0000 	movw	r0, #57344	; 0xe000
    4bc4:	0100001c 	tsteq	r0, ip, lsl r0
    4bc8:	00017611 	andeq	r7, r1, r1, lsl r6
    4bcc:	00194d00 	andseq	r4, r9, r0, lsl #26
    4bd0:	040f0000 	streq	r0, [pc], #-0	; 4bd8 <__bss_end+0x1624>
    4bd4:	000000c4 	andeq	r0, r0, r4, asr #1
    4bd8:	1c84010d 	stfnes	f0, [r4], {13}
    4bdc:	2a010000 	bcs	44be4 <__bss_end+0x41630>
    4be0:	00004101 	andeq	r4, r0, r1, lsl #2
    4be4:	002aa800 	eoreq	sl, sl, r0, lsl #16
    4be8:	002ad000 	eoreq	sp, sl, r0
    4bec:	007d0200 	rsbseq	r0, sp, r0, lsl #4
    4bf0:	000001a8 	andeq	r0, r0, r8, lsr #3
    4bf4:	001ce30e 	andseq	lr, ip, lr, lsl #6
    4bf8:	762a0100 	strtvc	r0, [sl], -r0, lsl #2
    4bfc:	6b000001 	blvs	4c08 <__bss_end+0x1654>
    4c00:	00000019 	andeq	r0, r0, r9, lsl r0
    4c04:	001c9710 	andseq	r9, ip, r0, lsl r7
    4c08:	76040100 	strvc	r0, [r4], -r0, lsl #2
    4c0c:	05000001 	streq	r0, [r0, #-1]
    4c10:	00339c03 	eorseq	r9, r3, r3, lsl #24
    4c14:	02ff0000 	rscseq	r0, pc, #0
    4c18:	00020000 	andeq	r0, r2, r0
    4c1c:	00001246 	andeq	r1, r0, r6, asr #4
    4c20:	00460104 	subeq	r0, r6, r4, lsl #2
    4c24:	1e010000 	cdpne	0, 0, cr0, cr1, cr0, {0}
    4c28:	5d00001d 	stcpl	0, cr0, [r0, #-116]	; 0xffffff8c
    4c2c:	d0000001 	andle	r0, r0, r1
    4c30:	4800002a 	stmdami	r0, {r1, r3, r5}
    4c34:	2200002c 	andcs	r0, r0, #44	; 0x2c
    4c38:	02000014 	andeq	r0, r0, #20
    4c3c:	00810601 	addeq	r0, r1, r1, lsl #12
    4c40:	01020000 	mrseq	r0, (UNDEF: 2)
    4c44:	00007f08 	andeq	r7, r0, r8, lsl #30
    4c48:	05020200 	streq	r0, [r2, #-512]	; 0x200
    4c4c:	000001a4 	andeq	r0, r0, r4, lsr #3
    4c50:	a3070202 	movwge	r0, #29186	; 0x7202
    4c54:	03000000 	movweq	r0, #0
    4c58:	00001017 	andeq	r1, r0, r7, lsl r0
    4c5c:	004c1202 	subeq	r1, ip, r2, lsl #4
    4c60:	04040000 	streq	r0, [r4], #-0
    4c64:	746e6905 	strbtvc	r6, [lr], #-2309	; 0x905
    4c68:	08300300 	ldmdaeq	r0!, {r8, r9}
    4c6c:	13020000 	movwne	r0, #8192	; 0x2000
    4c70:	0000005e 	andeq	r0, r0, lr, asr r0
    4c74:	24070402 	strcs	r0, [r7], #-1026	; 0x402
    4c78:	02000001 	andeq	r0, r0, #1
    4c7c:	017f0508 	cmneq	pc, r8, lsl #10
    4c80:	08020000 	stmdaeq	r2, {}	; <UNPREDICTABLE>
    4c84:	00011a07 	andeq	r1, r1, r7, lsl #20
    4c88:	01470500 	cmpeq	r7, r0, lsl #10
    4c8c:	03040000 	movweq	r0, #16384	; 0x4000
    4c90:	0000e089 	andeq	lr, r0, r9, lsl #1
    4c94:	001e0600 	andseq	r0, lr, r0, lsl #12
    4c98:	06000000 	streq	r0, [r0], -r0
    4c9c:	00000096 	muleq	r0, r6, r0
    4ca0:	00390601 	eorseq	r0, r9, r1, lsl #12
    4ca4:	06020000 	streq	r0, [r2], -r0
    4ca8:	00000073 	andeq	r0, r0, r3, ror r0
    4cac:	018d0603 	orreq	r0, sp, r3, lsl #12
    4cb0:	06040000 	streq	r0, [r4], -r0
    4cb4:	0000010e 	andeq	r0, r0, lr, lsl #2
    4cb8:	00f60605 	rscseq	r0, r6, r5, lsl #12
    4cbc:	06060000 	streq	r0, [r6], -r0
    4cc0:	00000131 	andeq	r0, r0, r1, lsr r1
    4cc4:	00120607 	andseq	r0, r2, r7, lsl #12
    4cc8:	06080000 	streq	r0, [r8], -r0
    4ccc:	00000068 	andeq	r0, r0, r8, rrx
    4cd0:	01030609 	tsteq	r3, r9, lsl #12
    4cd4:	060a0000 	streq	r0, [sl], -r0
    4cd8:	00000199 	muleq	r0, r9, r1
    4cdc:	0141060b 	cmpeq	r1, fp, lsl #12
    4ce0:	060c0000 	streq	r0, [ip], -r0
    4ce4:	00000171 	andeq	r0, r0, r1, ror r1
    4ce8:	021e060d 	andseq	r0, lr, #13631488	; 0xd00000
    4cec:	060e0000 	streq	r0, [lr], -r0
    4cf0:	0000002b 	andeq	r0, r0, fp, lsr #32
    4cf4:	0102000f 	tsteq	r2, pc
    4cf8:	00008808 	andeq	r8, r0, r8, lsl #16
    4cfc:	07040200 	streq	r0, [r4, -r0, lsl #4]
    4d00:	0000011f 	andeq	r0, r0, pc, lsl r1
    4d04:	001db007 	andseq	fp, sp, r7
    4d08:	01130100 	tsteq	r3, r0, lsl #2
    4d0c:	000000e7 	andeq	r0, r0, r7, ror #1
    4d10:	00010b03 	andeq	r0, r1, r3, lsl #22
    4d14:	1d960800 	ldcne	8, cr0, [r6]
    4d18:	15010000 	strne	r0, [r1, #-0]
    4d1c:	000000e7 	andeq	r0, r0, r7, ror #1
    4d20:	1d790900 	ldclne	9, cr0, [r9, #-0]
    4d24:	33010000 	movwcc	r0, #4096	; 0x1000
    4d28:	01240301 	teqeq	r4, r1, lsl #6
    4d2c:	960a0000 	strls	r0, [sl], -r0
    4d30:	0100001d 	tsteq	r0, sp, lsl r0
    4d34:	0000e733 	andeq	lr, r0, r3, lsr r7
    4d38:	010b0000 	mrseq	r0, (UNDEF: 11)
    4d3c:	00001d0e 	andeq	r1, r0, lr, lsl #26
    4d40:	41014701 	tstmi	r1, r1, lsl #14
    4d44:	d0000000 	andle	r0, r0, r0
    4d48:	0000002a 	andeq	r0, r0, sl, lsr #32
    4d4c:	0200002b 	andeq	r0, r0, #43	; 0x2b
    4d50:	0150007d 	cmpeq	r0, sp, ror r0
    4d54:	fa0c0000 	blx	304d5c <__bss_end+0x3017a8>
    4d58:	01000014 	tsteq	r0, r4, lsl r0
    4d5c:	00005347 	andeq	r5, r0, r7, asr #6
    4d60:	00198900 	andseq	r8, r9, r0, lsl #18
    4d64:	010d0000 	mrseq	r0, (UNDEF: 13)
    4d68:	00001d9c 	muleq	r0, ip, sp
    4d6c:	41016101 	tstmi	r1, r1, lsl #2
    4d70:	00000000 	andeq	r0, r0, r0
    4d74:	7c00002b 	stcvc	0, cr0, [r0], {43}	; 0x2b
    4d78:	9c00002b 	stcls	0, cr0, [r0], {43}	; 0x2b
    4d7c:	db000019 	blle	4de8 <__bss_end+0x1834>
    4d80:	0c000001 	stceq	0, cr0, [r0], {1}
    4d84:	00001dd7 	ldrdeq	r1, [r0], -r7
    4d88:	00536101 	subseq	r6, r3, r1, lsl #2
    4d8c:	19bc0000 	ldmibne	ip!, {}	; <UNPREDICTABLE>
    4d90:	a80c0000 	stmdage	ip, {}	; <UNPREDICTABLE>
    4d94:	0100001d 	tsteq	r0, sp, lsl r0
    4d98:	00005361 	andeq	r5, r0, r1, ror #6
    4d9c:	0019e500 	andseq	lr, r9, r0, lsl #10
    4da0:	1d8f0e00 	stcne	14, cr0, [pc]	; 4da8 <__bss_end+0x17f4>
    4da4:	64010000 	strvs	r0, [r1], #-0
    4da8:	00000053 	andeq	r0, r0, r3, asr r0
    4dac:	00001a03 	andeq	r1, r0, r3, lsl #20
    4db0:	0000ee0f 	andeq	lr, r0, pc, lsl #28
    4db4:	002b0400 	eoreq	r0, fp, r0, lsl #8
    4db8:	002b0c00 	eoreq	r0, fp, r0, lsl #24
    4dbc:	c1670100 	cmngt	r7, r0, lsl #2
    4dc0:	10000001 	andne	r0, r0, r1
    4dc4:	00002b04 	andeq	r2, r0, r4, lsl #22
    4dc8:	00002b0c 	andeq	r2, r0, ip, lsl #22
    4dcc:	0000ff11 	andeq	pc, r0, r1, lsl pc	; <UNPREDICTABLE>
    4dd0:	001a5900 	andseq	r5, sl, r0, lsl #18
    4dd4:	12000000 	andne	r0, r0, #0
    4dd8:	0000010b 	andeq	r0, r0, fp, lsl #2
    4ddc:	00002b58 	andeq	r2, r0, r8, asr fp
    4de0:	00002b5c 	andeq	r2, r0, ip, asr fp
    4de4:	18136f01 	ldmdane	r3, {r0, r8, r9, sl, fp, sp, lr}
    4de8:	77000001 	strvc	r0, [r0, -r1]
    4dec:	0000001a 	andeq	r0, r0, sl, lsl r0
    4df0:	6b010b00 	blvs	479f8 <__bss_end+0x44444>
    4df4:	0100001d 	tsteq	r0, sp, lsl r0
    4df8:	00410184 	subeq	r0, r1, r4, lsl #3
    4dfc:	2b7c0000 	blcs	1f04e04 <__bss_end+0x1f01850>
    4e00:	2bac0000 	blcs	feb04e08 <__bss_end+0xfeb01854>
    4e04:	7d020000 	stcvc	0, cr0, [r2, #-0]
    4e08:	00022200 	andeq	r2, r2, r0, lsl #4
    4e0c:	1dd70c00 	ldclne	12, cr0, [r7]
    4e10:	84010000 	strhi	r0, [r1], #-0
    4e14:	00000053 	andeq	r0, r0, r3, asr r0
    4e18:	00001a8a 	andeq	r1, r0, sl, lsl #21
    4e1c:	00010b14 	andeq	r0, r1, r4, lsl fp
    4e20:	002b8000 	eoreq	r8, fp, r0
    4e24:	00015800 	andeq	r5, r1, r0, lsl #16
    4e28:	158a0100 	strne	r0, [sl, #256]	; 0x100
    4e2c:	00000118 	andeq	r0, r0, r8, lsl r1
    4e30:	33a00305 	movcc	r0, #335544320	; 0x14000000
    4e34:	00000000 	andeq	r0, r0, r0
    4e38:	1d51010b 	ldfnee	f0, [r1, #-44]	; 0xffffffd4
    4e3c:	9a010000 	bls	44e44 <__bss_end+0x41890>
    4e40:	00004101 	andeq	r4, r0, r1, lsl #2
    4e44:	002bac00 	eoreq	sl, fp, r0, lsl #24
    4e48:	002c1800 	eoreq	r1, ip, r0, lsl #16
    4e4c:	007d0200 	rsbseq	r0, sp, r0, lsl #4
    4e50:	000002aa 	andeq	r0, r0, sl, lsr #5
    4e54:	001dd70c 	andseq	sp, sp, ip, lsl #14
    4e58:	539a0100 	orrspl	r0, sl, #0
    4e5c:	9d000000 	stcls	0, cr0, [r0, #-0]
    4e60:	0c00001a 	stceq	0, cr0, [r0], {26}
    4e64:	00001da8 	andeq	r1, r0, r8, lsr #27
    4e68:	00539a01 	subseq	r9, r3, r1, lsl #20
    4e6c:	1ac60000 	bne	ff184e74 <__bss_end+0xff1818c0>
    4e70:	8f0e0000 	svchi	0x000e0000
    4e74:	0100001d 	tsteq	r0, sp, lsl r0
    4e78:	0000539d 	muleq	r0, sp, r3
    4e7c:	001ae400 	andseq	lr, sl, r0, lsl #8
    4e80:	00ee0f00 	rsceq	r0, lr, r0, lsl #30
    4e84:	2bac0000 	blcs	feb04e8c <__bss_end+0xfeb018d8>
    4e88:	2bb40000 	blcs	fed04e90 <__bss_end+0xfed018dc>
    4e8c:	a0010000 	andge	r0, r1, r0
    4e90:	00000290 	muleq	r0, r0, r2
    4e94:	002bac10 	eoreq	sl, fp, r0, lsl ip
    4e98:	002bb400 	eoreq	fp, fp, r0, lsl #8
    4e9c:	00ff1600 	rscseq	r1, pc, r0, lsl #12
    4ea0:	5c010000 	stcpl	0, cr0, [r1], {-0}
    4ea4:	0b120000 	bleq	484eac <__bss_end+0x4818f8>
    4ea8:	00000001 	andeq	r0, r0, r1
    4eac:	0400002c 	streq	r0, [r0], #-44	; 0x2c
    4eb0:	0100002c 	tsteq	r0, ip, lsr #32
    4eb4:	011813a8 	tsteq	r8, r8, lsr #7
    4eb8:	1b3a0000 	blne	e84ec0 <__bss_end+0xe8190c>
    4ebc:	00000000 	andeq	r0, r0, r0
    4ec0:	1dc3010b 	stfnee	f0, [r3, #44]	; 0x2c
    4ec4:	bd010000 	stclt	0, cr0, [r1, #-0]
    4ec8:	00004101 	andeq	r4, r0, r1, lsl #2
    4ecc:	002c1800 	eoreq	r1, ip, r0, lsl #16
    4ed0:	002c4800 	eoreq	r4, ip, r0, lsl #16
    4ed4:	007d0200 	rsbseq	r0, sp, r0, lsl #4
    4ed8:	000002f1 	strdeq	r0, [r0], -r1
    4edc:	001dd70c 	andseq	sp, sp, ip, lsl #14
    4ee0:	53bd0100 			; <UNDEFINED> instruction: 0x53bd0100
    4ee4:	4d000000 	stcmi	0, cr0, [r0, #-0]
    4ee8:	1400001b 	strne	r0, [r0], #-27
    4eec:	0000010b 	andeq	r0, r0, fp, lsl #2
    4ef0:	00002c1c 	andeq	r2, r0, ip, lsl ip
    4ef4:	00000180 	andeq	r0, r0, r0, lsl #3
    4ef8:	1815c301 	ldmdane	r5, {r0, r8, r9, lr, pc}
    4efc:	05000001 	streq	r0, [r0, #-1]
    4f00:	0033a003 	eorseq	sl, r3, r3
    4f04:	17000000 	strne	r0, [r0, -r0]
    4f08:	00001d02 	andeq	r1, r0, r2, lsl #26
    4f0c:	00530d01 	subseq	r0, r3, r1, lsl #26
    4f10:	03050000 	movweq	r0, #20480	; 0x5000
    4f14:	000033a0 	andeq	r3, r0, r0, lsr #7
    4f18:	00107f00 	andseq	r7, r0, r0, lsl #30
    4f1c:	8e000200 	cdphi	2, 0, cr0, cr0, cr0, {0}
    4f20:	04000013 	streq	r0, [r0], #-19
    4f24:	00004601 	andeq	r4, r0, r1, lsl #12
    4f28:	1ded0100 	stfnee	f0, [sp]
    4f2c:	015d0000 	cmpeq	sp, r0
    4f30:	2c480000 	marcs	acc0, r0, r8
    4f34:	2fec0000 	svccs	0x00ec0000
    4f38:	15430000 	strbne	r0, [r3, #-0]
    4f3c:	01020000 	mrseq	r0, (UNDEF: 2)
    4f40:	00008106 	andeq	r8, r0, r6, lsl #2
    4f44:	0b000300 	bleq	5b4c <__bss_end+0x2598>
    4f48:	0f020000 	svceq	0x00020000
    4f4c:	00000037 	andeq	r0, r0, r7, lsr r0
    4f50:	7f080102 	svcvc	0x00080102
    4f54:	02000000 	andeq	r0, r0, #0
    4f58:	01a40502 			; <UNDEFINED> instruction: 0x01a40502
    4f5c:	02020000 	andeq	r0, r2, #0
    4f60:	0000a307 	andeq	sl, r0, r7, lsl #6
    4f64:	10170300 	andsne	r0, r7, r0, lsl #6
    4f68:	12020000 	andne	r0, r2, #0
    4f6c:	00000057 	andeq	r0, r0, r7, asr r0
    4f70:	69050404 	stmdbvs	r5, {r2, sl}
    4f74:	0300746e 	movweq	r7, #1134	; 0x46e
    4f78:	00000830 	andeq	r0, r0, r0, lsr r8
    4f7c:	00691302 	rsbeq	r1, r9, r2, lsl #6
    4f80:	04020000 	streq	r0, [r2], #-0
    4f84:	00012407 	andeq	r2, r1, r7, lsl #8
    4f88:	05080200 	streq	r0, [r8, #-512]	; 0x200
    4f8c:	0000017f 	andeq	r0, r0, pc, ror r1
    4f90:	1a070802 	bne	1c6fa0 <__bss_end+0x1c39ec>
    4f94:	05000001 	streq	r0, [r0, #-1]
    4f98:	0f1a0304 	svceq	0x001a0304
    4f9c:	06000001 	streq	r0, [r0], -r1
    4fa0:	00000573 	andeq	r0, r0, r3, ror r5
    4fa4:	005e1c03 	subseq	r1, lr, r3, lsl #24
    4fa8:	02040000 	andeq	r0, r4, #0
    4fac:	0023021e 	eoreq	r0, r3, lr, lsl r2
    4fb0:	000a5706 	andeq	r5, sl, r6, lsl #14
    4fb4:	5e1d0300 	cdppl	3, 1, cr0, cr13, cr0, {0}
    4fb8:	04000000 	streq	r0, [r0], #-0
    4fbc:	23021806 	movwcs	r1, #10246	; 0x2806
    4fc0:	057b0600 	ldrbeq	r0, [fp, #-1536]!	; 0x600
    4fc4:	1e030000 	cdpne	0, 0, cr0, cr3, cr0, {0}
    4fc8:	0000005e 	andeq	r0, r0, lr, asr r0
    4fcc:	02100804 	andseq	r0, r0, #262144	; 0x40000
    4fd0:	8b060023 	blhi	185064 <__bss_end+0x181ab0>
    4fd4:	03000005 	movweq	r0, #5
    4fd8:	00005e1f 	andeq	r5, r0, pc, lsl lr
    4fdc:	0f010400 	svceq	0x00010400
    4fe0:	06002302 	streq	r2, [r0], -r2, lsl #6
    4fe4:	00000a75 	andeq	r0, r0, r5, ror sl
    4fe8:	005e2003 	subseq	r2, lr, r3
    4fec:	07040000 	streq	r0, [r4, -r0]
    4ff0:	00230208 	eoreq	r0, r3, r8, lsl #4
    4ff4:	00077706 	andeq	r7, r7, r6, lsl #14
    4ff8:	5e210300 	cdppl	3, 2, cr0, cr1, cr0, {0}
    4ffc:	04000000 	streq	r0, [r0], #-0
    5000:	23020503 	movwcs	r0, #9475	; 0x2503
    5004:	0a7f0600 	beq	1fc680c <__bss_end+0x1fc3258>
    5008:	22030000 	andcs	r0, r3, #0
    500c:	0000005e 	andeq	r0, r0, lr, asr r0
    5010:	02010404 	andeq	r0, r1, #67108864	; 0x4000000
    5014:	19060023 	stmdbne	r6, {r0, r1, r5}
    5018:	0300000a 	movweq	r0, #10
    501c:	00005e23 	andeq	r5, r0, r3, lsr #28
    5020:	00010400 	andeq	r0, r1, r0, lsl #8
    5024:	00002302 	andeq	r2, r0, r2, lsl #6
    5028:	18030407 	stmdane	r3, {r0, r1, r2, sl}
    502c:	0000012e 	andeq	r0, r0, lr, lsr #2
    5030:	0003aa08 	andeq	sl, r3, r8, lsl #20
    5034:	5e190300 	cdppl	3, 1, cr0, cr9, cr0, {0}
    5038:	08000000 	stmdaeq	r0, {}	; <UNPREDICTABLE>
    503c:	00000859 	andeq	r0, r0, r9, asr r8
    5040:	007e2503 	rsbseq	r2, lr, r3, lsl #10
    5044:	03000000 	movweq	r0, #0
    5048:	00000a1f 	andeq	r0, r0, pc, lsl sl
    504c:	010f2603 	tsteq	pc, r3, lsl #12
    5050:	04050000 	streq	r0, [r5], #-0
    5054:	01ca3e03 	biceq	r3, sl, r3, lsl #28
    5058:	92060000 	andls	r0, r6, #0
    505c:	0300000c 	movweq	r0, #12
    5060:	00005e40 	andeq	r5, r0, r0, asr #28
    5064:	1e020400 	cfcpysne	mvf0, mvf2
    5068:	06002302 	streq	r2, [r0], -r2, lsl #6
    506c:	00000a57 	andeq	r0, r0, r7, asr sl
    5070:	005e4103 	subseq	r4, lr, r3, lsl #2
    5074:	0a040000 	beq	10507c <__bss_end+0x101ac8>
    5078:	00230214 	eoreq	r0, r3, r4, lsl r2
    507c:	00069806 	andeq	r9, r6, r6, lsl #16
    5080:	5e420300 	cdppl	3, 4, cr0, cr2, cr0, {0}
    5084:	04000000 	streq	r0, [r0], #-0
    5088:	23021301 	movwcs	r1, #8961	; 0x2301
    508c:	0a610600 	beq	1846894 <__bss_end+0x18432e0>
    5090:	43030000 	movwmi	r0, #12288	; 0x3000
    5094:	0000005e 	andeq	r0, r0, lr, asr r0
    5098:	02100304 	andseq	r0, r0, #268435456	; 0x10000000
    509c:	36060023 	strcc	r0, [r6], -r3, lsr #32
    50a0:	03000008 	movweq	r0, #8
    50a4:	00005e44 	andeq	r5, r0, r4, asr #28
    50a8:	0e020400 	cfcpyseq	mvf0, mvf2
    50ac:	06002302 	streq	r2, [r0], -r2, lsl #6
    50b0:	00000a6b 	andeq	r0, r0, fp, ror #20
    50b4:	005e4503 	subseq	r4, lr, r3, lsl #10
    50b8:	0a040000 	beq	1050c0 <__bss_end+0x101b0c>
    50bc:	00230204 	eoreq	r0, r3, r4, lsl #4
    50c0:	0005f106 	andeq	pc, r5, r6, lsl #2
    50c4:	5e460300 	cdppl	3, 4, cr0, cr6, cr0, {0}
    50c8:	04000000 	streq	r0, [r0], #-0
    50cc:	23020301 	movwcs	r0, #8961	; 0x2301
    50d0:	0a750600 	beq	1d468d8 <__bss_end+0x1d43324>
    50d4:	47030000 	strmi	r0, [r3, -r0]
    50d8:	0000005e 	andeq	r0, r0, lr, asr r0
    50dc:	02000304 	andeq	r0, r0, #268435456	; 0x10000000
    50e0:	07000023 	streq	r0, [r0, -r3, lsr #32]
    50e4:	e93c0304 	ldmdb	ip!, {r2, r8, r9}
    50e8:	08000001 	stmdaeq	r0, {r0}
    50ec:	000003aa 	andeq	r0, r0, sl, lsr #7
    50f0:	005e3d03 	subseq	r3, lr, r3, lsl #26
    50f4:	59080000 	stmdbpl	r8, {}	; <UNPREDICTABLE>
    50f8:	03000008 	movweq	r0, #8
    50fc:	00013948 	andeq	r3, r1, r8, asr #18
    5100:	78030000 	stmdavc	r3, {}	; <UNPREDICTABLE>
    5104:	03000004 	movweq	r0, #4
    5108:	0001ca49 	andeq	ip, r1, r9, asr #20
    510c:	033c0900 	teqeq	ip, #0
    5110:	03040000 	movweq	r0, #16384	; 0x4000
    5114:	0002784f 	andeq	r7, r2, pc, asr #16
    5118:	0a570600 	beq	15c6920 <__bss_end+0x15c336c>
    511c:	51030000 	mrspl	r0, (UNDEF: 3)
    5120:	0000005e 	andeq	r0, r0, lr, asr r0
    5124:	021c0404 	andseq	r0, ip, #67108864	; 0x4000000
    5128:	ad060023 	stcge	0, cr0, [r6, #-140]	; 0xffffff74
    512c:	03000008 	movweq	r0, #8
    5130:	00005e52 	andeq	r5, r0, r2, asr lr
    5134:	1a020400 	bne	8613c <__bss_end+0x82b88>
    5138:	06002302 	streq	r2, [r0], -r2, lsl #6
    513c:	00000819 	andeq	r0, r0, r9, lsl r8
    5140:	005e5303 	subseq	r5, lr, r3, lsl #6
    5144:	02040000 	andeq	r0, r4, #0
    5148:	00230218 	eoreq	r0, r3, r8, lsl r2
    514c:	0009b806 	andeq	fp, r9, r6, lsl #16
    5150:	5e540300 	cdppl	3, 5, cr0, cr4, cr0, {0}
    5154:	04000000 	streq	r0, [r0], #-0
    5158:	23021602 	movwcs	r1, #9730	; 0x2602
    515c:	0a610600 	beq	1846964 <__bss_end+0x18433b0>
    5160:	55030000 	strpl	r0, [r3, #-0]
    5164:	0000005e 	andeq	r0, r0, lr, asr r0
    5168:	02140204 	andseq	r0, r4, #1073741824	; 0x40000000
    516c:	9a060023 	bls	185200 <__bss_end+0x181c4c>
    5170:	03000009 	movweq	r0, #9
    5174:	00005e56 	andeq	r5, r0, r6, asr lr
    5178:	12020400 	andne	r0, r2, #0
    517c:	06002302 	streq	r2, [r0], -r2, lsl #6
    5180:	00000a6b 	andeq	r0, r0, fp, ror #20
    5184:	005e5703 	subseq	r5, lr, r3, lsl #14
    5188:	12040000 	andne	r0, r4, #0
    518c:	00230200 	eoreq	r0, r3, r0, lsl #4
    5190:	0bec0300 	bleq	ffb05d98 <__bss_end+0xffb027e4>
    5194:	58030000 	stmdapl	r3, {}	; <UNPREDICTABLE>
    5198:	000001f4 	strdeq	r0, [r0], -r4
    519c:	5f030405 	svcpl	0x00030405
    51a0:	000002f2 	strdeq	r0, [r0], -r2
    51a4:	00060906 	andeq	r0, r6, r6, lsl #18
    51a8:	5e610300 	cdppl	3, 6, cr0, cr1, cr0, {0}
    51ac:	04000000 	streq	r0, [r0], #-0
    51b0:	23021b05 	movwcs	r1, #11013	; 0x2b05
    51b4:	0c890600 	stceq	6, cr0, [r9], {0}
    51b8:	62030000 	andvs	r0, r3, #0
    51bc:	0000005e 	andeq	r0, r0, lr, asr r0
    51c0:	02100b04 	andseq	r0, r0, #4096	; 0x1000
    51c4:	0e060023 	cdpeq	0, 0, cr0, cr6, cr3, {1}
    51c8:	03000006 	movweq	r0, #6
    51cc:	00005e63 	andeq	r5, r0, r3, ror #28
    51d0:	0e020400 	cfcpyseq	mvf0, mvf2
    51d4:	06002302 	streq	r2, [r0], -r2, lsl #6
    51d8:	00000a61 	andeq	r0, r0, r1, ror #20
    51dc:	005e6403 	subseq	r6, lr, r3, lsl #8
    51e0:	06040000 	streq	r0, [r4], -r0
    51e4:	00230208 	eoreq	r0, r3, r8, lsl #4
    51e8:	0005f306 	andeq	pc, r5, r6, lsl #6
    51ec:	5e650300 	cdppl	3, 6, cr0, cr5, cr0, {0}
    51f0:	04000000 	streq	r0, [r0], #-0
    51f4:	23020602 	movwcs	r0, #9730	; 0x2602
    51f8:	0a6b0600 	beq	1ac6a00 <__bss_end+0x1ac344c>
    51fc:	66030000 	strvs	r0, [r3], -r0
    5200:	0000005e 	andeq	r0, r0, lr, asr r0
    5204:	02000604 	andeq	r0, r0, #4194304	; 0x400000
    5208:	07000023 	streq	r0, [r0, -r3, lsr #32]
    520c:	115d0304 	cmpne	sp, r4, lsl #6
    5210:	08000003 	stmdaeq	r0, {r0, r1}
    5214:	000003aa 	andeq	r0, r0, sl, lsr #7
    5218:	005e5e03 	subseq	r5, lr, r3, lsl #28
    521c:	59080000 	stmdbpl	r8, {}	; <UNPREDICTABLE>
    5220:	03000008 	movweq	r0, #8
    5224:	00028367 	andeq	r8, r2, r7, ror #6
    5228:	d2030000 	andle	r0, r3, #0
    522c:	03000008 	movweq	r0, #8
    5230:	0002f268 	andeq	pc, r2, r8, ror #4
    5234:	07b10900 	ldreq	r0, [r1, r0, lsl #18]!
    5238:	03040000 	movweq	r0, #16384	; 0x4000
    523c:	00034b6a 	andeq	r4, r3, sl, ror #22
    5240:	0c6a0600 	stcleq	6, cr0, [sl], #-0
    5244:	6c030000 	stcvs	0, cr0, [r3], {-0}
    5248:	0000005e 	andeq	r0, r0, lr, asr r0
    524c:	02101004 	andseq	r1, r0, #4
    5250:	89060023 	stmdbhi	r6, {r0, r1, r5}
    5254:	0300000c 	movweq	r0, #12
    5258:	00005e6d 	andeq	r5, r0, sp, ror #28
    525c:	00100400 	andseq	r0, r0, r0, lsl #8
    5260:	00002302 	andeq	r2, r0, r2, lsl #6
    5264:	000b3103 	andeq	r3, fp, r3, lsl #2
    5268:	1c6e0300 	stclne	3, cr0, [lr], #-0
    526c:	0a000003 	beq	5280 <__bss_end+0x1ccc>
    5270:	00000d0c 	andeq	r0, r0, ip, lsl #26
    5274:	700302dc 	ldrdvc	r0, [r3], -ip
    5278:	00000b2c 	andeq	r0, r0, ip, lsr #22
    527c:	0007800b 	andeq	r8, r7, fp
    5280:	2c720300 	ldclcs	3, cr0, [r2], #-0
    5284:	0200000b 	andeq	r0, r0, #11
    5288:	940b0023 	strls	r0, [fp], #-35	; 0x23
    528c:	03000007 	movweq	r0, #7
    5290:	000b3173 	andeq	r3, fp, r3, ror r1
    5294:	04230200 	strteq	r0, [r3], #-512	; 0x200
    5298:	000d040b 	andeq	r0, sp, fp, lsl #8
    529c:	31740300 	cmncc	r4, r0, lsl #6
    52a0:	0200000b 	andeq	r0, r0, #11
    52a4:	610b0823 	tstvs	fp, r3, lsr #16
    52a8:	0300000a 	movweq	r0, #10
    52ac:	000b3175 	andeq	r3, fp, r5, ror r1
    52b0:	0c230200 	sfmeq	f0, 4, [r3], #-0
    52b4:	0008c00b 	andeq	ip, r8, fp
    52b8:	31760300 	cmncc	r6, r0, lsl #6
    52bc:	0200000b 	andeq	r0, r0, #11
    52c0:	6b0b1023 	blvs	2c9354 <__bss_end+0x2c5da0>
    52c4:	0300000a 	movweq	r0, #10
    52c8:	000b3177 	andeq	r3, fp, r7, ror r1
    52cc:	14230200 	strtne	r0, [r3], #-512	; 0x200
    52d0:	00044a0b 	andeq	r4, r4, fp, lsl #20
    52d4:	31780300 	cmncc	r8, r0, lsl #6
    52d8:	0200000b 	andeq	r0, r0, #11
    52dc:	750b1823 	strvc	r1, [fp, #-2083]	; 0x823
    52e0:	0300000a 	movweq	r0, #10
    52e4:	000b3179 	andeq	r3, fp, r9, ror r1
    52e8:	1c230200 	sfmne	f0, 4, [r3], #-0
    52ec:	000a070b 	andeq	r0, sl, fp, lsl #14
    52f0:	317a0300 	cmncc	sl, r0, lsl #6
    52f4:	0200000b 	andeq	r0, r0, #11
    52f8:	7f0b2023 	svcvc	0x000b2023
    52fc:	0300000a 	movweq	r0, #10
    5300:	000b317b 	andeq	r3, fp, fp, ror r1
    5304:	24230200 	strtcs	r0, [r3], #-512	; 0x200
    5308:	0004020b 	andeq	r0, r4, fp, lsl #4
    530c:	317c0300 	cmncc	ip, r0, lsl #6
    5310:	0200000b 	andeq	r0, r0, #11
    5314:	890b2823 	stmdbhi	fp, {r0, r1, r5, fp, sp}
    5318:	0300000a 	movweq	r0, #10
    531c:	000b317d 	andeq	r3, fp, sp, ror r1
    5320:	2c230200 	sfmcs	f0, 4, [r3], #-0
    5324:	0009ef0b 	andeq	lr, r9, fp, lsl #30
    5328:	317e0300 	cmncc	lr, r0, lsl #6
    532c:	0200000b 	andeq	r0, r0, #11
    5330:	930b3023 	movwls	r3, #45091	; 0xb023
    5334:	0300000a 	movweq	r0, #10
    5338:	000b317f 	andeq	r3, fp, pc, ror r1
    533c:	34230200 	strtcc	r0, [r3], #-512	; 0x200
    5340:	0007a90b 	andeq	sl, r7, fp, lsl #18
    5344:	31800300 	orrcc	r0, r0, r0, lsl #6
    5348:	0200000b 	andeq	r0, r0, #11
    534c:	9d0b3823 	stcls	8, cr3, [fp, #-140]	; 0xffffff74
    5350:	0300000a 	movweq	r0, #10
    5354:	000b3181 	andeq	r3, fp, r1, lsl #3
    5358:	3c230200 	sfmcc	f0, 4, [r3], #-0
    535c:	000b1f0b 	andeq	r1, fp, fp, lsl #30
    5360:	31820300 	orrcc	r0, r2, r0, lsl #6
    5364:	0200000b 	andeq	r0, r0, #11
    5368:	7f0b4023 	svcvc	0x000b4023
    536c:	0300000d 	movweq	r0, #13
    5370:	000b3183 	andeq	r3, fp, r3, lsl #3
    5374:	44230200 	strtmi	r0, [r3], #-512	; 0x200
    5378:	0004410b 	andeq	r4, r4, fp, lsl #2
    537c:	31840300 	orrcc	r0, r4, r0, lsl #6
    5380:	0200000b 	andeq	r0, r0, #11
    5384:	c80b4823 	stmdagt	fp, {r0, r1, r5, fp, lr}
    5388:	0300000b 	movweq	r0, #11
    538c:	000b3185 	andeq	r3, fp, r5, lsl #3
    5390:	4c230200 	sfmmi	f0, 4, [r3], #-0
    5394:	0008c80b 	andeq	ip, r8, fp, lsl #16
    5398:	36860300 	strcc	r0, [r6], r0, lsl #6
    539c:	0200000b 	andeq	r0, r0, #11
    53a0:	ad0b5023 	stcge	0, cr5, [fp, #-140]	; 0xffffff74
    53a4:	03000008 	movweq	r0, #8
    53a8:	000b3b87 	andeq	r3, fp, r7, lsl #23
    53ac:	54230200 	strtpl	r0, [r3], #-512	; 0x200
    53b0:	0005830b 	andeq	r8, r5, fp, lsl #6
    53b4:	40880300 	addmi	r0, r8, r0, lsl #6
    53b8:	0200000b 	andeq	r0, r0, #11
    53bc:	350b5823 	strcc	r5, [fp, #-2083]	; 0x823
    53c0:	0300000a 	movweq	r0, #10
    53c4:	000b3189 	andeq	r3, fp, r9, lsl #3
    53c8:	5c230200 	sfmpl	f0, 4, [r3], #-0
    53cc:	000b160b 	andeq	r1, fp, fp, lsl #12
    53d0:	318a0300 	orrcc	r0, sl, r0, lsl #6
    53d4:	0200000b 	andeq	r0, r0, #11
    53d8:	3a0b6023 	bcc	2dd46c <__bss_end+0x2d9eb8>
    53dc:	03000007 	movweq	r0, #7
    53e0:	000b318b 	andeq	r3, fp, fp, lsl #3
    53e4:	64230200 	strtvs	r0, [r3], #-512	; 0x200
    53e8:	000c9c0b 	andeq	r9, ip, fp, lsl #24
    53ec:	318c0300 	orrcc	r0, ip, r0, lsl #6
    53f0:	0200000b 	andeq	r0, r0, #11
    53f4:	470b6823 	strmi	r6, [fp, -r3, lsr #16]
    53f8:	03000009 	movweq	r0, #9
    53fc:	000b318d 	andeq	r3, fp, sp, lsl #3
    5400:	6c230200 	sfmvs	f0, 4, [r3], #-0
    5404:	000aa70b 	andeq	sl, sl, fp, lsl #14
    5408:	558e0300 	strpl	r0, [lr, #768]	; 0x300
    540c:	0200000b 	andeq	r0, r0, #11
    5410:	750b7023 	strvc	r7, [fp, #-35]	; 0x23
    5414:	0300000d 	movweq	r0, #13
    5418:	000b318f 	andeq	r3, fp, pc, lsl #3
    541c:	78230200 	stmdavc	r3!, {r9}
    5420:	0003ee0b 	andeq	lr, r3, fp, lsl #28
    5424:	31900300 	orrscc	r0, r0, r0, lsl #6
    5428:	0200000b 	andeq	r0, r0, #11
    542c:	420b7c23 	andmi	r7, fp, #8960	; 0x2300
    5430:	0300000d 	movweq	r0, #13
    5434:	000b3191 	muleq	fp, r1, r1
    5438:	80230300 	eorhi	r0, r3, r0, lsl #6
    543c:	0ca50b01 	fstmiaxeq	r5!, {d0-d-1}	;@ Deprecated
    5440:	92030000 	andls	r0, r3, #0
    5444:	00000b31 	andeq	r0, r0, r1, lsr fp
    5448:	01842303 	orreq	r2, r4, r3, lsl #6
    544c:	3064530c 	rsbcc	r5, r4, ip, lsl #6
    5450:	31930300 	orrscc	r0, r3, r0, lsl #6
    5454:	0300000b 	movweq	r0, #11
    5458:	0c018823 	stceq	8, cr8, [r1], {35}	; 0x23
    545c:	00316453 	eorseq	r6, r1, r3, asr r4
    5460:	0b319403 	bleq	c6a474 <__bss_end+0xc66ec0>
    5464:	23030000 	movwcs	r0, #12288	; 0x3000
    5468:	530c018c 	movwpl	r0, #49548	; 0xc18c
    546c:	03003264 	movweq	r3, #612	; 0x264
    5470:	000b3195 	muleq	fp, r5, r1
    5474:	90230300 	eorls	r0, r3, r0, lsl #6
    5478:	0cb00b01 	fldmiaxeq	r0!, {d0-d-1}	;@ Deprecated
    547c:	96030000 	strls	r0, [r3], -r0
    5480:	00000b5a 	andeq	r0, r0, sl, asr fp
    5484:	01942303 	orrseq	r2, r4, r3, lsl #6
    5488:	0073530c 	rsbseq	r5, r3, ip, lsl #6
    548c:	0b319703 	bleq	c6b0a0 <__bss_end+0xc67aec>
    5490:	23030000 	movwcs	r0, #12288	; 0x3000
    5494:	0c0b019c 	stfeqs	f0, [fp], {156}	; 0x9c
    5498:	0300000b 	movweq	r0, #11
    549c:	000b3198 	muleq	fp, r8, r1
    54a0:	a0230300 	eorge	r0, r3, r0, lsl #6
    54a4:	0b110b01 	bleq	4480b0 <__bss_end+0x444afc>
    54a8:	99030000 	stmdbls	r3, {}	; <UNPREDICTABLE>
    54ac:	00000b31 	andeq	r0, r0, r1, lsr fp
    54b0:	01a42303 			; <UNDEFINED> instruction: 0x01a42303
    54b4:	000cbb0b 	andeq	fp, ip, fp, lsl #22
    54b8:	5f9a0300 	svcpl	0x009a0300
    54bc:	0300000b 	movweq	r0, #11
    54c0:	0b01a823 	bleq	6f554 <__bss_end+0x6bfa0>
    54c4:	00000432 	andeq	r0, r0, r2, lsr r4
    54c8:	0b319b03 	bleq	c6c0dc <__bss_end+0xc68b28>
    54cc:	23030000 	movwcs	r0, #12288	; 0x3000
    54d0:	370b01b0 			; <UNDEFINED> instruction: 0x370b01b0
    54d4:	03000004 	movweq	r0, #4
    54d8:	000b319c 	muleq	fp, ip, r1
    54dc:	b4230300 	strtlt	r0, [r3], #-768	; 0x300
    54e0:	043c0b01 	ldrteq	r0, [ip], #-2817	; 0xb01
    54e4:	9d030000 	stcls	0, cr0, [r3, #-0]
    54e8:	00000b31 	andeq	r0, r0, r1, lsr fp
    54ec:	01b82303 			; <UNDEFINED> instruction: 0x01b82303
    54f0:	0004f50b 	andeq	pc, r4, fp, lsl #10
    54f4:	319e0300 	orrscc	r0, lr, r0, lsl #6
    54f8:	0300000b 	movweq	r0, #11
    54fc:	0b01bc23 	bleq	74590 <__bss_end+0x70fdc>
    5500:	0000093e 	andeq	r0, r0, lr, lsr r9
    5504:	0b319f03 	bleq	c6d118 <__bss_end+0xc69b64>
    5508:	23030000 	movwcs	r0, #12288	; 0x3000
    550c:	8b0b01c0 	blhi	2c5c14 <__bss_end+0x2c2660>
    5510:	03000008 	movweq	r0, #8
    5514:	000b64a0 	andeq	r6, fp, r0, lsr #9
    5518:	c4230300 	strtgt	r0, [r3], #-768	; 0x300
    551c:	73550c01 	cmpvc	r5, #256	; 0x100
    5520:	a1030062 	tstge	r3, r2, rrx
    5524:	00000b31 	andeq	r0, r0, r1, lsr fp
    5528:	01cc2303 	biceq	r2, ip, r3, lsl #6
    552c:	000c390b 	andeq	r3, ip, fp, lsl #18
    5530:	31a20300 			; <UNDEFINED> instruction: 0x31a20300
    5534:	0300000b 	movweq	r0, #11
    5538:	0b01d023 	bleq	795cc <__bss_end+0x76018>
    553c:	000007c8 	andeq	r0, r0, r8, asr #15
    5540:	0b79a303 	bleq	1e6e154 <__bss_end+0x1e6aba0>
    5544:	23030000 	movwcs	r0, #12288	; 0x3000
    5548:	f80b01d4 			; <UNDEFINED> instruction: 0xf80b01d4
    554c:	0300000c 	movweq	r0, #12
    5550:	000b31a4 	andeq	r3, fp, r4, lsr #3
    5554:	f0230300 			; <UNDEFINED> instruction: 0xf0230300
    5558:	0be40b01 	bleq	ff908164 <__bss_end+0xff904bb0>
    555c:	a5030000 	strge	r0, [r3, #-0]
    5560:	00000b31 	andeq	r0, r0, r1, lsr fp
    5564:	01f42303 	mvnseq	r2, r3, lsl #6
    5568:	000c730b 	andeq	r7, ip, fp, lsl #6
    556c:	31a60300 			; <UNDEFINED> instruction: 0x31a60300
    5570:	0300000b 	movweq	r0, #11
    5574:	0b01f823 	bleq	83608 <__bss_end+0x80054>
    5578:	000009c0 	andeq	r0, r0, r0, asr #19
    557c:	0b31a703 	bleq	c6f190 <__bss_end+0xc6bbdc>
    5580:	23030000 	movwcs	r0, #12288	; 0x3000
    5584:	910b01fc 	strdls	r0, [fp, -ip]
    5588:	03000009 	movweq	r0, #9
    558c:	000b31a8 	andeq	r3, fp, r8, lsr #3
    5590:	80230300 	eorhi	r0, r3, r0, lsl #6
    5594:	07880b02 	streq	r0, [r8, r2, lsl #22]
    5598:	a9030000 	stmdbge	r3, {}	; <UNPREDICTABLE>
    559c:	00000b31 	andeq	r0, r0, r1, lsr fp
    55a0:	02842303 	addeq	r2, r4, #201326592	; 0xc000000
    55a4:	0003860b 	andeq	r8, r3, fp, lsl #12
    55a8:	31aa0300 			; <UNDEFINED> instruction: 0x31aa0300
    55ac:	0300000b 	movweq	r0, #11
    55b0:	0b028823 	bleq	a7644 <__bss_end+0xa4090>
    55b4:	000004dc 	ldrdeq	r0, [r0], -ip
    55b8:	0b31ab03 	bleq	c701cc <__bss_end+0xc6cc18>
    55bc:	23030000 	movwcs	r0, #12288	; 0x3000
    55c0:	920b028c 	andls	r0, fp, #-1073741816	; 0xc0000008
    55c4:	03000003 	movweq	r0, #3
    55c8:	000b31ac 	andeq	r3, fp, ip, lsr #3
    55cc:	90230300 	eorls	r0, r3, r0, lsl #6
    55d0:	039e0b02 	orrseq	r0, lr, #2048	; 0x800
    55d4:	ad030000 	stcge	0, cr0, [r3, #-0]
    55d8:	00000b31 	andeq	r0, r0, r1, lsr fp
    55dc:	02942303 	addseq	r2, r4, #201326592	; 0xc000000
    55e0:	0003de0b 	andeq	sp, r3, fp, lsl #28
    55e4:	31ae0300 			; <UNDEFINED> instruction: 0x31ae0300
    55e8:	0300000b 	movweq	r0, #11
    55ec:	0b029823 	bleq	ab680 <__bss_end+0xa80cc>
    55f0:	000003e6 	andeq	r0, r0, r6, ror #7
    55f4:	0b31af03 	bleq	c71208 <__bss_end+0xc6dc54>
    55f8:	23030000 	movwcs	r0, #12288	; 0x3000
    55fc:	d90b029c 	stmdble	fp, {r2, r3, r4, r7, r9}
    5600:	03000007 	movweq	r0, #7
    5604:	000b8eb0 			; <UNDEFINED> instruction: 0x000b8eb0
    5608:	a0230300 	eorge	r0, r3, r0, lsl #6
    560c:	0a3d0b02 	beq	f4821c <__bss_end+0xf44c68>
    5610:	b1030000 	mrslt	r0, (UNDEF: 3)
    5614:	00000b31 	andeq	r0, r0, r1, lsr fp
    5618:	02b02303 	adcseq	r2, r0, #201326592	; 0xc000000
    561c:	000ad60b 	andeq	sp, sl, fp, lsl #12
    5620:	31b20300 			; <UNDEFINED> instruction: 0x31b20300
    5624:	0300000b 	movweq	r0, #11
    5628:	0b02b423 	bleq	b26bc <__bss_end+0xaf108>
    562c:	0000040a 	andeq	r0, r0, sl, lsl #8
    5630:	0b31b303 	bleq	c72244 <__bss_end+0xc6ec90>
    5634:	23030000 	movwcs	r0, #12288	; 0x3000
    5638:	560c02b8 			; <UNDEFINED> instruction: 0x560c02b8
    563c:	b4030065 	strlt	r0, [r3], #-101	; 0x65
    5640:	00000b31 	andeq	r0, r0, r1, lsr fp
    5644:	02bc2303 	adcseq	r2, ip, #201326592	; 0xc000000
    5648:	0009840b 	andeq	r8, r9, fp, lsl #8
    564c:	31b50300 			; <UNDEFINED> instruction: 0x31b50300
    5650:	0300000b 	movweq	r0, #11
    5654:	0c02c023 	stceq	0, cr12, [r2], {35}	; 0x23
    5658:	00737641 	rsbseq	r7, r3, r1, asr #12
    565c:	0b31b603 	bleq	c72e70 <__bss_end+0xc6f8bc>
    5660:	23030000 	movwcs	r0, #12288	; 0x3000
    5664:	160b02c4 	strne	r0, [fp], -r4, asr #5
    5668:	03000004 	movweq	r0, #4
    566c:	000b31b7 			; <UNDEFINED> instruction: 0x000b31b7
    5670:	c8230300 	stmdagt	r3!, {r8, r9}
    5674:	07e40b02 	strbeq	r0, [r4, r2, lsl #22]!
    5678:	b8030000 	stmdalt	r3, {}	; <UNPREDICTABLE>
    567c:	00000b31 	andeq	r0, r0, r1, lsr fp
    5680:	02cc2303 	sbceq	r2, ip, #201326592	; 0xc000000
    5684:	0008960b 	andeq	r9, r8, fp, lsl #12
    5688:	31b90300 			; <UNDEFINED> instruction: 0x31b90300
    568c:	0300000b 	movweq	r0, #11
    5690:	0b02d023 	bleq	b9724 <__bss_end+0xb6170>
    5694:	00000b68 	andeq	r0, r0, r8, ror #22
    5698:	0b31ba03 	bleq	c73eac <__bss_end+0xc708f8>
    569c:	23030000 	movwcs	r0, #12288	; 0x3000
    56a0:	ba0b02d4 	blt	2c61f8 <__bss_end+0x2c2c44>
    56a4:	03000004 	movweq	r0, #4
    56a8:	000b31bb 			; <UNDEFINED> instruction: 0x000b31bb
    56ac:	d8230300 	stmdale	r3!, {r8, r9}
    56b0:	05040b02 	streq	r0, [r4, #-2818]	; 0xb02
    56b4:	bc030000 	stclt	0, cr0, [r3], {-0}
    56b8:	00000b31 	andeq	r0, r0, r1, lsr fp
    56bc:	02dc2303 	sbcseq	r2, ip, #201326592	; 0xc000000
    56c0:	0004c60b 	andeq	ip, r4, fp, lsl #12
    56c4:	31bd0300 			; <UNDEFINED> instruction: 0x31bd0300
    56c8:	0300000b 	movweq	r0, #11
    56cc:	0b02e023 	bleq	bd760 <__bss_end+0xba1ac>
    56d0:	000007ef 	andeq	r0, r0, pc, ror #15
    56d4:	0b31be03 	bleq	c74ee8 <__bss_end+0xc71934>
    56d8:	23030000 	movwcs	r0, #12288	; 0x3000
    56dc:	b60b02e4 	strlt	r0, [fp], -r4, ror #5
    56e0:	0300000a 	movweq	r0, #10
    56e4:	000b31bf 			; <UNDEFINED> instruction: 0x000b31bf
    56e8:	e8230300 	stmda	r3!, {r8, r9}
    56ec:	0ac20b02 	beq	ff0882fc <__bss_end+0xff084d48>
    56f0:	c0030000 	andgt	r0, r3, r0
    56f4:	00000b31 	andeq	r0, r0, r1, lsr fp
    56f8:	02ec2303 	rsceq	r2, ip, #201326592	; 0xc000000
    56fc:	0007fa0b 	andeq	pc, r7, fp, lsl #20
    5700:	93c10300 	bicls	r0, r1, #0
    5704:	0300000b 	movweq	r0, #11
    5708:	0b02f023 	bleq	c179c <__bss_end+0xbe1e8>
    570c:	00000cc6 	andeq	r0, r0, r6, asr #25
    5710:	0b31c203 	bleq	c75f24 <__bss_end+0xc72970>
    5714:	23030000 	movwcs	r0, #12288	; 0x3000
    5718:	5b0b0380 	blpl	2c6520 <__bss_end+0x2c2f6c>
    571c:	03000006 	movweq	r0, #6
    5720:	000b31c3 	andeq	r3, fp, r3, asr #3
    5724:	84230300 	strthi	r0, [r3], #-768	; 0x300
    5728:	06670b03 	strbteq	r0, [r7], -r3, lsl #22
    572c:	c4030000 	strgt	r0, [r3], #-0
    5730:	00000b31 	andeq	r0, r0, r1, lsr fp
    5734:	03882303 	orreq	r2, r8, #201326592	; 0xc000000
    5738:	0006730b 	andeq	r7, r6, fp, lsl #6
    573c:	31c50300 	biccc	r0, r5, r0, lsl #6
    5740:	0300000b 	movweq	r0, #11
    5744:	0b038c23 	bleq	e87d8 <__bss_end+0xe5224>
    5748:	00000805 	andeq	r0, r0, r5, lsl #16
    574c:	0b98c603 	bleq	fe636f60 <__bss_end+0xfe6339ac>
    5750:	23030000 	movwcs	r0, #12288	; 0x3000
    5754:	900b0390 	mulls	fp, r0, r3
    5758:	03000006 	movweq	r0, #6
    575c:	000b31c7 	andeq	r3, fp, r7, asr #3
    5760:	a0230300 	eorge	r0, r3, r0, lsl #6
    5764:	05fa0b03 	ldrbeq	r0, [sl, #2819]!	; 0xb03
    5768:	c8030000 	stmdagt	r3, {}	; <UNPREDICTABLE>
    576c:	00000b31 	andeq	r0, r0, r1, lsr fp
    5770:	03a42303 			; <UNDEFINED> instruction: 0x03a42303
    5774:	0008ee0b 	andeq	lr, r8, fp, lsl #28
    5778:	31c90300 	biccc	r0, r9, r0, lsl #6
    577c:	0300000b 	movweq	r0, #11
    5780:	0b03a823 	bleq	ef814 <__bss_end+0xec260>
    5784:	000006e5 	andeq	r0, r0, r5, ror #13
    5788:	0b31ca03 	bleq	c77f9c <__bss_end+0xc749e8>
    578c:	23030000 	movwcs	r0, #12288	; 0x3000
    5790:	f10b03ac 			; <UNDEFINED> instruction: 0xf10b03ac
    5794:	03000006 	movweq	r0, #6
    5798:	000b31cb 	andeq	r3, fp, fp, asr #3
    579c:	b0230300 	eorlt	r0, r3, r0, lsl #6
    57a0:	08b50b03 	ldmeq	r5!, {r0, r1, r8, r9, fp}
    57a4:	cc030000 	stcgt	0, cr0, [r3], {-0}
    57a8:	00000bad 	andeq	r0, r0, sp, lsr #23
    57ac:	03b42303 			; <UNDEFINED> instruction: 0x03b42303
    57b0:	0003be0b 	andeq	fp, r3, fp, lsl #28
    57b4:	31cd0300 	biccc	r0, sp, r0, lsl #6
    57b8:	0300000b 	movweq	r0, #11
    57bc:	0b03c023 	bleq	f5850 <__bss_end+0xf229c>
    57c0:	0000079d 	muleq	r0, sp, r7
    57c4:	0bc2ce03 	bleq	ff0b8fd8 <__bss_end+0xff0b5a24>
    57c8:	23030000 	movwcs	r0, #12288	; 0x3000
    57cc:	7f0b03c4 	svcvc	0x000b03c4
    57d0:	03000006 	movweq	r0, #6
    57d4:	000bc7cf 	andeq	ip, fp, pc, asr #15
    57d8:	80230300 	eorhi	r0, r3, r0, lsl #6
    57dc:	09640b04 	stmdbeq	r4!, {r2, r8, r9, fp}^
    57e0:	d0030000 	andle	r0, r3, r0
    57e4:	00000b31 	andeq	r0, r0, r1, lsr fp
    57e8:	04842303 	streq	r2, [r4], #771	; 0x303
    57ec:	000c7d0b 	andeq	r7, ip, fp, lsl #26
    57f0:	31d10300 	bicscc	r0, r1, r0, lsl #6
    57f4:	0300000b 	movweq	r0, #11
    57f8:	0b048823 	bleq	12788c <__bss_end+0x1242d8>
    57fc:	00000c45 	andeq	r0, r0, r5, asr #24
    5800:	0b31d203 	bleq	c7a014 <__bss_end+0xc76a60>
    5804:	23030000 	movwcs	r0, #12288	; 0x3000
    5808:	930b048c 	movwls	r0, #46220	; 0xb48c
    580c:	03000005 	movweq	r0, #5
    5810:	000bccd3 	ldrdeq	ip, [fp], -r3
    5814:	90230300 	eorls	r0, r3, r0, lsl #6
    5818:	08500b04 	ldmdaeq	r0, {r2, r8, r9, fp}^
    581c:	d5030000 	strle	r0, [r3, #-0]
    5820:	00000be1 	andeq	r0, r0, r1, ror #23
    5824:	04a02303 	strteq	r2, [r0], #771	; 0x303
    5828:	0004960b 	andeq	r9, r4, fp, lsl #12
    582c:	31d60300 	bicscc	r0, r6, r0, lsl #6
    5830:	0300000b 	movweq	r0, #11
    5834:	0b04a423 	bleq	12e8c8 <__bss_end+0x12b314>
    5838:	000003b0 			; <UNDEFINED> instruction: 0x000003b0
    583c:	0b31d703 	bleq	c7b450 <__bss_end+0xc77e9c>
    5840:	23030000 	movwcs	r0, #12288	; 0x3000
    5844:	740b04a8 	strvc	r0, [fp], #-1192	; 0x4a8
    5848:	03000008 	movweq	r0, #8
    584c:	000b31d8 	ldrdeq	r3, [fp], -r8
    5850:	ac230300 	stcge	3, cr0, [r3], #-0
    5854:	06cd0b04 	strbeq	r0, [sp], r4, lsl #22
    5858:	d9030000 	stmdble	r3, {}	; <UNPREDICTABLE>
    585c:	00000b31 	andeq	r0, r0, r1, lsr fp
    5860:	04b02303 	ldrteq	r2, [r0], #771	; 0x303
    5864:	000b4a0b 	andeq	r4, fp, fp, lsl #20
    5868:	31da0300 	bicscc	r0, sl, r0, lsl #6
    586c:	0300000b 	movweq	r0, #11
    5870:	0b04b423 	bleq	132904 <__bss_end+0x12f350>
    5874:	00000d34 	andeq	r0, r0, r4, lsr sp
    5878:	0b31db03 	bleq	c7c48c <__bss_end+0xc78ed8>
    587c:	23030000 	movwcs	r0, #12288	; 0x3000
    5880:	d50b04b8 	strle	r0, [fp, #-1208]	; 0x4b8
    5884:	03000005 	movweq	r0, #5
    5888:	000b31dc 	ldrdeq	r3, [fp], -ip
    588c:	bc230300 	stclt	3, cr0, [r3], #-0
    5890:	06d80b04 	ldrbeq	r0, [r8], r4, lsl #22
    5894:	dd030000 	stcle	0, cr0, [r3, #-0]
    5898:	00000b31 	andeq	r0, r0, r1, lsr fp
    589c:	04c02303 	strbeq	r2, [r0], #771	; 0x303
    58a0:	0004e90b 	andeq	lr, r4, fp, lsl #18
    58a4:	31de0300 	bicscc	r0, lr, r0, lsl #6
    58a8:	0300000b 	movweq	r0, #11
    58ac:	0b04c423 	bleq	136940 <__bss_end+0x13338c>
    58b0:	000009ae 	andeq	r0, r0, lr, lsr #19
    58b4:	0b31df03 	bleq	c7d4c8 <__bss_end+0xc79f14>
    58b8:	23030000 	movwcs	r0, #12288	; 0x3000
    58bc:	e10b04c8 	smlabt	fp, r8, r4, r0
    58c0:	03000009 	movweq	r0, #9
    58c4:	000b31e0 	andeq	r3, fp, r0, ror #3
    58c8:	cc230300 	stcgt	3, cr0, [r3], #-0
    58cc:	04fc0b04 	ldrbteq	r0, [ip], #2820	; 0xb04
    58d0:	e2030000 	and	r0, r3, #0
    58d4:	00000b31 	andeq	r0, r0, r1, lsr fp
    58d8:	04d02303 	ldrbeq	r2, [r0], #771	; 0x303
    58dc:	0009a50b 	andeq	sl, r9, fp, lsl #10
    58e0:	31e30300 	mvncc	r0, r0, lsl #6
    58e4:	0300000b 	movweq	r0, #11
    58e8:	0b04d423 	bleq	13a97c <__bss_end+0x1373c8>
    58ec:	0000059f 	muleq	r0, pc, r5	; <UNPREDICTABLE>
    58f0:	0be6e503 	bleq	ff9bed04 <__bss_end+0xff9bb750>
    58f4:	23030000 	movwcs	r0, #12288	; 0x3000
    58f8:	fa0b04d8 	blx	2c6c60 <__bss_end+0x2c36ac>
    58fc:	03000009 	movweq	r0, #9
    5900:	000b31e6 	andeq	r3, fp, r6, ror #3
    5904:	e0230300 	eor	r0, r3, r0, lsl #6
    5908:	05ab0b04 	streq	r0, [fp, #2820]!	; 0xb04
    590c:	e7030000 	str	r0, [r3, -r0]
    5910:	00000beb 	andeq	r0, r0, fp, ror #23
    5914:	04e42303 	strbteq	r2, [r4], #771	; 0x303
    5918:	00055e0b 	andeq	r5, r5, fp, lsl #28
    591c:	31e80300 	mvncc	r0, r0, lsl #6
    5920:	0300000b 	movweq	r0, #11
    5924:	0b04f023 	bleq	1419b8 <__bss_end+0x13e404>
    5928:	000005b7 			; <UNDEFINED> instruction: 0x000005b7
    592c:	0bf0e903 	bleq	ffc3fd40 <__bss_end+0xffc3c78c>
    5930:	23030000 	movwcs	r0, #12288	; 0x3000
    5934:	1a0b04f4 	bne	2c6d0c <__bss_end+0x2c3758>
    5938:	03000009 	movweq	r0, #9
    593c:	000b31ea 	andeq	r3, fp, sl, ror #3
    5940:	80230300 	eorhi	r0, r3, r0, lsl #6
    5944:	09cd0b05 	stmibeq	sp, {r0, r2, r8, r9, fp}^
    5948:	ec030000 	stc	0, cr0, [r3], {-0}
    594c:	00000b31 	andeq	r0, r0, r1, lsr fp
    5950:	05842303 	streq	r2, [r4, #771]	; 0x303
    5954:	0006a20b 	andeq	sl, r6, fp, lsl #4
    5958:	31ed0300 	mvncc	r0, r0, lsl #6
    595c:	0300000b 	movweq	r0, #11
    5960:	0b058823 	bleq	1679f4 <__bss_end+0x164440>
    5964:	0000096d 	andeq	r0, r0, sp, ror #18
    5968:	0b31ee03 	bleq	c8117c <__bss_end+0xc7dbc8>
    596c:	23030000 	movwcs	r0, #12288	; 0x3000
    5970:	740b058c 	strvc	r0, [fp], #-1420	; 0x58c
    5974:	0300000b 	movweq	r0, #11
    5978:	000b31ef 	andeq	r3, fp, pc, ror #3
    597c:	90230300 	eorls	r0, r3, r0, lsl #6
    5980:	05c90b05 	strbeq	r0, [r9, #2821]	; 0xb05
    5984:	f0030000 			; <UNDEFINED> instruction: 0xf0030000
    5988:	00000bf5 	strdeq	r0, [r0], -r5
    598c:	05942303 	ldreq	r2, [r4, #771]	; 0x303
    5990:	0009500b 	andeq	r5, r9, fp
    5994:	31f10300 	mvnscc	r0, r0, lsl #6
    5998:	0300000b 	movweq	r0, #11
    599c:	0b05a423 	bleq	16ea30 <__bss_end+0x16b47c>
    59a0:	00000c55 	andeq	r0, r0, r5, asr ip
    59a4:	0b31f203 	bleq	c821b8 <__bss_end+0xc7ec04>
    59a8:	23030000 	movwcs	r0, #12288	; 0x3000
    59ac:	560b05a8 	strpl	r0, [fp], -r8, lsr #11
    59b0:	03000003 	movweq	r0, #3
    59b4:	000b31f3 	strdeq	r3, [fp], -r3	; <UNPREDICTABLE>
    59b8:	ac230300 	stcge	3, cr0, [r3], #-0
    59bc:	0bd20b05 	bleq	ff4885d8 <__bss_end+0xff485024>
    59c0:	f4030000 	vst4.8	{d0-d3}, [r3], r0
    59c4:	00000b31 	andeq	r0, r0, r1, lsr fp
    59c8:	05b02303 	ldreq	r2, [r0, #771]!	; 0x303
    59cc:	0003630b 	andeq	r6, r3, fp, lsl #6
    59d0:	faf50300 	blx	ffd465d8 <__bss_end+0xffd43024>
    59d4:	0300000b 	movweq	r0, #11
    59d8:	0b05b423 	bleq	172a6c <__bss_end+0x16f4b8>
    59dc:	000008fc 	strdeq	r0, [r0], -ip
    59e0:	0b31f703 	bleq	c835f4 <__bss_end+0xc80040>
    59e4:	23030000 	movwcs	r0, #12288	; 0x3000
    59e8:	060b05c0 	streq	r0, [fp], -r0, asr #11
    59ec:	03000009 	movweq	r0, #9
    59f0:	000b31f8 	strdeq	r3, [fp], -r8
    59f4:	c4230300 	strtgt	r0, [r3], #-768	; 0x300
    59f8:	09100b05 	ldmdbeq	r0, {r0, r2, r8, r9, fp}
    59fc:	f9030000 			; <UNDEFINED> instruction: 0xf9030000
    5a00:	00000b31 	andeq	r0, r0, r1, lsr fp
    5a04:	05c82303 	strbeq	r2, [r8, #771]	; 0x303
    5a08:	00085e0b 	andeq	r5, r8, fp, lsl #28
    5a0c:	31fa0300 	mvnscc	r0, r0, lsl #6
    5a10:	0300000b 	movweq	r0, #11
    5a14:	0b05cc23 	bleq	178aa8 <__bss_end+0x1754f4>
    5a18:	00000a4d 	andeq	r0, r0, sp, asr #20
    5a1c:	0b31fb03 	bleq	c84630 <__bss_end+0xc8107c>
    5a20:	23030000 	movwcs	r0, #12288	; 0x3000
    5a24:	690b05d0 	stmdbvs	fp, {r4, r6, r7, r8, sl}
    5a28:	03000008 	movweq	r0, #8
    5a2c:	000b31fc 	strdeq	r3, [fp], -ip
    5a30:	d4230300 	strtle	r0, [r3], #-768	; 0x300
    5a34:	062a0b05 	strteq	r0, [sl], -r5, lsl #22
    5a38:	fd030000 	stc2	0, cr0, [r3, #-0]
    5a3c:	00000b31 	andeq	r0, r0, r1, lsr fp
    5a40:	05d82303 	ldrbeq	r2, [r8, #771]	; 0x303
    5a44:	012e0d00 	teqeq	lr, r0, lsl #26
    5a48:	5e0d0000 	cdppl	0, 0, cr0, cr13, cr0, {0}
    5a4c:	0d000000 	stceq	0, cr0, [r0, #-0]
    5a50:	000001e9 	andeq	r0, r0, r9, ror #3
    5a54:	0002780d 	andeq	r7, r2, sp, lsl #16
    5a58:	03110d00 	tsteq	r1, #0
    5a5c:	5e0e0000 	cdppl	0, 0, cr0, cr14, cr0, {0}
    5a60:	55000000 	strpl	r0, [r0, #-0]
    5a64:	0f00000b 	svceq	0x0000000b
    5a68:	00000069 	andeq	r0, r0, r9, rrx
    5a6c:	450d0001 	strmi	r0, [sp, #-1]
    5a70:	0d00000b 	stceq	0, cr0, [r0, #-44]	; 0xffffffd4
    5a74:	00000b45 	andeq	r0, r0, r5, asr #22
    5a78:	000b450d 	andeq	r4, fp, sp, lsl #10
    5a7c:	0b450d00 	bleq	1148e84 <__bss_end+0x11458d0>
    5a80:	5e0e0000 	cdppl	0, 0, cr0, cr14, cr0, {0}
    5a84:	79000000 	stmdbvc	r0, {}	; <UNPREDICTABLE>
    5a88:	0f00000b 	svceq	0x0000000b
    5a8c:	00000069 	andeq	r0, r0, r9, rrx
    5a90:	690d0006 	stmdbvs	sp, {r1, r2}
    5a94:	0e00000b 	cdpeq	0, 0, cr0, cr0, cr11, {0}
    5a98:	0000005e 	andeq	r0, r0, lr, asr r0
    5a9c:	00000b8e 	andeq	r0, r0, lr, lsl #23
    5aa0:	0000690f 	andeq	r6, r0, pc, lsl #18
    5aa4:	0d000300 	stceq	3, cr0, [r0, #-0]
    5aa8:	00000b7e 	andeq	r0, r0, lr, ror fp
    5aac:	000b7e0d 	andeq	r7, fp, sp, lsl #28
    5ab0:	0b7e0d00 	bleq	1f88eb8 <__bss_end+0x1f85904>
    5ab4:	5e0e0000 	cdppl	0, 0, cr0, cr14, cr0, {0}
    5ab8:	ad000000 	stcge	0, cr0, [r0, #-0]
    5abc:	0f00000b 	svceq	0x0000000b
    5ac0:	00000069 	andeq	r0, r0, r9, rrx
    5ac4:	9d0d0002 	stcls	0, cr0, [sp, #-8]
    5ac8:	0e00000b 	cdpeq	0, 0, cr0, cr0, cr11, {0}
    5acc:	0000005e 	andeq	r0, r0, lr, asr r0
    5ad0:	00000bc2 	andeq	r0, r0, r2, asr #23
    5ad4:	0000690f 	andeq	r6, r0, pc, lsl #18
    5ad8:	0d000e00 	stceq	14, cr0, [r0, #-0]
    5adc:	00000bb2 			; <UNDEFINED> instruction: 0x00000bb2
    5ae0:	00034b0d 	andeq	r4, r3, sp, lsl #22
    5ae4:	0b7e0d00 	bleq	1f88eec <__bss_end+0x1f85938>
    5ae8:	5e0e0000 	cdppl	0, 0, cr0, cr14, cr0, {0}
    5aec:	e1000000 	mrs	r0, (UNDEF: 0)
    5af0:	0f00000b 	svceq	0x0000000b
    5af4:	00000069 	andeq	r0, r0, r9, rrx
    5af8:	d10d0000 	mrsle	r0, (UNDEF: 13)
    5afc:	0d00000b 	stceq	0, cr0, [r0, #-44]	; 0xffffffd4
    5b00:	00000b45 	andeq	r0, r0, r5, asr #22
    5b04:	000b9d0d 	andeq	r9, fp, sp, lsl #26
    5b08:	0b9d0d00 	bleq	fe748f10 <__bss_end+0xfe74595c>
    5b0c:	7e0d0000 	cdpvc	0, 0, cr0, cr13, cr0, {0}
    5b10:	0d00000b 	stceq	0, cr0, [r0, #-44]	; 0xffffffd4
    5b14:	00000b9d 	muleq	r0, sp, fp
    5b18:	000b9703 	andeq	r9, fp, r3, lsl #14
    5b1c:	56fe0300 	ldrbtpl	r0, [lr], r0, lsl #6
    5b20:	10000003 	andne	r0, r0, r3
    5b24:	000bff04 	andeq	pc, fp, r4, lsl #30
    5b28:	0a0f0900 	beq	3c7f30 <__bss_end+0x3c497c>
    5b2c:	04080000 	streq	r0, [r8], #-0
    5b30:	000c3918 	andeq	r3, ip, r8, lsl r9
    5b34:	03fa0b00 	mvnseq	r0, #0
    5b38:	19040000 	stmdbne	r4, {}	; <UNPREDICTABLE>
    5b3c:	0000005e 	andeq	r0, r0, lr, asr r0
    5b40:	0b002302 	bleq	e750 <__bss_end+0xb19c>
    5b44:	00000634 	andeq	r0, r0, r4, lsr r6
    5b48:	005e1a04 	subseq	r1, lr, r4, lsl #20
    5b4c:	23020000 	movwcs	r0, #8192	; 0x2000
    5b50:	a9090004 	stmdbge	r9, {r2}
    5b54:	3c00000b 	stccc	0, cr0, [r0], {11}
    5b58:	0d181d04 	ldceq	13, cr1, [r8, #-16]
    5b5c:	080b0000 	stmdaeq	fp, {}	; <UNPREDICTABLE>
    5b60:	0400000c 	streq	r0, [r0], #-12
    5b64:	00005e1e 	andeq	r5, r0, lr, lsl lr
    5b68:	00230200 	eoreq	r0, r3, r0, lsl #4
    5b6c:	000bbe0b 	andeq	fp, fp, fp, lsl #28
    5b70:	5e1f0400 	cfmulspl	mvf0, mvf15, mvf0
    5b74:	02000000 	andeq	r0, r0, #0
    5b78:	870b0423 	strhi	r0, [fp, -r3, lsr #8]
    5b7c:	04000006 	streq	r0, [r0], #-6
    5b80:	00005e20 	andeq	r5, r0, r0, lsr #28
    5b84:	08230200 	stmdaeq	r3!, {r9}
    5b88:	0004ae0b 	andeq	sl, r4, fp, lsl #28
    5b8c:	5e2b0400 	cdppl	4, 2, cr0, cr11, cr0, {0}
    5b90:	02000000 	andeq	r0, r0, #0
    5b94:	a50b0c23 	strge	r0, [fp, #-3107]	; 0xc23
    5b98:	04000009 	streq	r0, [r0], #-9
    5b9c:	00005e2c 	andeq	r5, r0, ip, lsr #28
    5ba0:	10230200 	eorne	r0, r3, r0, lsl #4
    5ba4:	0007940b 	andeq	r9, r7, fp, lsl #8
    5ba8:	5e2d0400 	cdppl	4, 2, cr0, cr13, cr0, {0}
    5bac:	02000000 	andeq	r0, r0, #0
    5bb0:	c00b1423 	andgt	r1, fp, r3, lsr #8
    5bb4:	04000008 	streq	r0, [r0], #-8
    5bb8:	00005e2e 	andeq	r5, r0, lr, lsr #28
    5bbc:	18230200 	stmdane	r3!, {r9}
    5bc0:	00044a0b 	andeq	r4, r4, fp, lsl #20
    5bc4:	5e2f0400 	cdppl	4, 2, cr0, cr15, cr0, {0}
    5bc8:	02000000 	andeq	r0, r0, #0
    5bcc:	020b1c23 	andeq	r1, fp, #8960	; 0x2300
    5bd0:	04000004 	streq	r0, [r0], #-4
    5bd4:	00005e30 	andeq	r5, r0, r0, lsr lr
    5bd8:	20230200 	eorcs	r0, r3, r0, lsl #4
    5bdc:	0003b00b 	andeq	fp, r3, fp
    5be0:	5e310400 	cfabsspl	mvf0, mvf1
    5be4:	02000000 	andeq	r0, r0, #0
    5be8:	740b2423 	strvc	r2, [fp], #-1059	; 0x423
    5bec:	04000008 	streq	r0, [r0], #-8
    5bf0:	00005e32 	andeq	r5, r0, r2, lsr lr
    5bf4:	28230200 	stmdacs	r3!, {r9}
    5bf8:	000b4a0b 	andeq	r4, fp, fp, lsl #20
    5bfc:	5e330400 	cfabsspl	mvf0, mvf3
    5c00:	02000000 	andeq	r0, r0, #0
    5c04:	a20b2c23 	andge	r2, fp, #8960	; 0x2300
    5c08:	04000006 	streq	r0, [r0], #-6
    5c0c:	00005e34 	andeq	r5, r0, r4, lsr lr
    5c10:	30230200 	eorcc	r0, r3, r0, lsl #4
    5c14:	000c550b 	andeq	r5, ip, fp, lsl #10
    5c18:	5e350400 	cfabsspl	mvf0, mvf5
    5c1c:	02000000 	andeq	r0, r0, #0
    5c20:	830b3423 	movwhi	r3, #46115	; 0xb423
    5c24:	04000005 	streq	r0, [r0], #-5
    5c28:	00005e36 	andeq	r5, r0, r6, lsr lr
    5c2c:	38230200 	stmdacc	r3!, {r9}
    5c30:	087e0900 	ldmdaeq	lr!, {r8, fp}^
    5c34:	04080000 	streq	r0, [r8], #-0
    5c38:	000d6b3b 	andeq	r6, sp, fp, lsr fp
    5c3c:	057b0b00 	ldrbeq	r0, [fp, #-2816]!	; 0xb00
    5c40:	3c040000 	stccc	0, cr0, [r4], {-0}
    5c44:	0000002c 	andeq	r0, r0, ip, lsr #32
    5c48:	0b002302 	bleq	e858 <__bss_end+0xb2a4>
    5c4c:	0000056b 	andeq	r0, r0, fp, ror #10
    5c50:	002c3d04 	eoreq	r3, ip, r4, lsl #26
    5c54:	23020000 	movwcs	r0, #8192	; 0x2000
    5c58:	05730b01 	ldrbeq	r0, [r3, #-2817]!	; 0xb01
    5c5c:	3e040000 	cdpcc	0, 0, cr0, cr4, cr0, {0}
    5c60:	0000002c 	andeq	r0, r0, ip, lsr #32
    5c64:	0b022302 	bleq	8e874 <__bss_end+0x8b2c0>
    5c68:	0000058b 	andeq	r0, r0, fp, lsl #11
    5c6c:	002c3f04 	eoreq	r3, ip, r4, lsl #30
    5c70:	23020000 	movwcs	r0, #8192	; 0x2000
    5c74:	6c500c03 	mrrcvs	12, 0, r0, r0, cr3	; <UNPREDICTABLE>
    5c78:	4004006c 	andmi	r0, r4, ip, rrx
    5c7c:	0000005e 	andeq	r0, r0, lr, asr r0
    5c80:	00042302 	andeq	r2, r4, r2, lsl #6
    5c84:	001ed909 	andseq	sp, lr, r9, lsl #18
    5c88:	43044000 	movwmi	r4, #16384	; 0x4000
    5c8c:	00000d94 	muleq	r0, r4, sp
    5c90:	000b2a0b 	andeq	r2, fp, fp, lsl #20
    5c94:	0a440400 	beq	1106c9c <__bss_end+0x11036e8>
    5c98:	0200000c 	andeq	r0, r0, #12
    5c9c:	850b0023 	strhi	r0, [fp, #-35]	; 0x23
    5ca0:	0400001e 	streq	r0, [r0], #-30
    5ca4:	000bb245 	andeq	fp, fp, r5, asr #4
    5ca8:	04230200 	strteq	r0, [r3], #-512	; 0x200
    5cac:	01471100 	mrseq	r1, (UNDEF: 87)
    5cb0:	05040000 	streq	r0, [r4, #-0]
    5cb4:	000e0189 	andeq	r0, lr, r9, lsl #3
    5cb8:	001e1200 	andseq	r1, lr, r0, lsl #4
    5cbc:	12000000 	andne	r0, r0, #0
    5cc0:	00000096 	muleq	r0, r6, r0
    5cc4:	00391201 	eorseq	r1, r9, r1, lsl #4
    5cc8:	12020000 	andne	r0, r2, #0
    5ccc:	00000073 	andeq	r0, r0, r3, ror r0
    5cd0:	018d1203 	orreq	r1, sp, r3, lsl #4
    5cd4:	12040000 	andne	r0, r4, #0
    5cd8:	0000010e 	andeq	r0, r0, lr, lsl #2
    5cdc:	00f61205 	rscseq	r1, r6, r5, lsl #4
    5ce0:	12060000 	andne	r0, r6, #0
    5ce4:	00000131 	andeq	r0, r0, r1, lsr r1
    5ce8:	00121207 	andseq	r1, r2, r7, lsl #4
    5cec:	12080000 	andne	r0, r8, #0
    5cf0:	00000068 	andeq	r0, r0, r8, rrx
    5cf4:	01031209 	tsteq	r3, r9, lsl #4
    5cf8:	120a0000 	andne	r0, sl, #0
    5cfc:	00000199 	muleq	r0, r9, r1
    5d00:	0141120b 	cmpeq	r1, fp, lsl #4
    5d04:	120c0000 	andne	r0, ip, #0
    5d08:	00000171 	andeq	r0, r0, r1, ror r1
    5d0c:	021e120d 	andseq	r1, lr, #-805306368	; 0xd0000000
    5d10:	120e0000 	andne	r0, lr, #0
    5d14:	0000002b 	andeq	r0, r0, fp, lsr #32
    5d18:	0102000f 	tsteq	r2, pc
    5d1c:	00008808 	andeq	r8, r0, r8, lsl #16
    5d20:	07040200 	streq	r0, [r4, -r0, lsl #4]
    5d24:	0000011f 	andeq	r0, r0, pc, lsl r1
    5d28:	1e190113 	mrcne	1, 0, r0, cr9, cr3, {0}
    5d2c:	15010000 	strne	r0, [r1, #-0]
    5d30:	000c0a01 	andeq	r0, ip, r1, lsl #20
    5d34:	002c4800 	eoreq	r4, ip, r0, lsl #16
    5d38:	002c7800 	eoreq	r7, ip, r0, lsl #16
    5d3c:	007d0200 	rsbseq	r0, sp, r0, lsl #4
    5d40:	00000e3b 	andeq	r0, r0, fp, lsr lr
    5d44:	0014fa14 	andseq	pc, r4, r4, lsl sl	; <UNPREDICTABLE>
    5d48:	5e150100 	mufpls	f0, f5, f0
    5d4c:	60000000 	andvs	r0, r0, r0
    5d50:	0000001b 	andeq	r0, r0, fp, lsl r0
    5d54:	1ecd0115 	mcrne	1, 6, r0, cr13, cr5, {0}
    5d58:	2e010000 	cdpcs	0, 0, cr0, cr1, cr0, {0}
    5d5c:	000c0a01 	andeq	r0, ip, r1, lsl #20
    5d60:	002c7800 	eoreq	r7, ip, r0, lsl #16
    5d64:	002c8800 	eoreq	r8, ip, r0, lsl #16
    5d68:	007d0200 	rsbseq	r0, sp, r0, lsl #4
    5d6c:	1eb10113 	mrcne	1, 5, r0, cr1, cr3, {0}
    5d70:	55010000 	strpl	r0, [r1, #-0]
    5d74:	00004c01 	andeq	r4, r0, r1, lsl #24
    5d78:	002c8800 	eoreq	r8, ip, r0, lsl #16
    5d7c:	002cc400 	eoreq	ip, ip, r0, lsl #8
    5d80:	007d0200 	rsbseq	r0, sp, r0, lsl #4
    5d84:	00000e7f 	andeq	r0, r0, pc, ror lr
    5d88:	001ed814 	andseq	sp, lr, r4, lsl r8
    5d8c:	7f550100 	svcvc	0x00550100
    5d90:	7300000e 	movwvc	r0, #14
    5d94:	0000001b 	andeq	r0, r0, fp, lsl r0
    5d98:	0d6b0410 	cfstrdeq	mvd0, [fp, #-64]!	; 0xffffffc0
    5d9c:	01130000 	tsteq	r3, r0
    5da0:	00001ee3 	andeq	r1, r0, r3, ror #29
    5da4:	4c017001 	stcmi	0, cr7, [r1], {1}
    5da8:	c4000000 	strgt	r0, [r0], #-0
    5dac:	f800002c 			; <UNDEFINED> instruction: 0xf800002c
    5db0:	0200002c 	andeq	r0, r0, #44	; 0x2c
    5db4:	0eb1007d 	mrceq	0, 5, r0, cr1, cr13, {3}
    5db8:	d8140000 	ldmdale	r4, {}	; <UNPREDICTABLE>
    5dbc:	0100001e 	tsteq	r0, lr, lsl r0
    5dc0:	000e7f70 	andeq	r7, lr, r0, ror pc
    5dc4:	001b9100 	andseq	r9, fp, r0, lsl #2
    5dc8:	01160000 	tsteq	r6, r0
    5dcc:	00001ebe 			; <UNDEFINED> instruction: 0x00001ebe
    5dd0:	4c018e01 	stcmi	14, cr8, [r1], {1}
    5dd4:	f8000000 			; <UNDEFINED> instruction: 0xf8000000
    5dd8:	6800002c 	stmdavs	r0, {r2, r3, r5}
    5ddc:	af00002d 	svcge	0x0000002d
    5de0:	de00001b 	mcrle	0, 0, r0, cr0, cr11, {0}
    5de4:	1400000e 	strne	r0, [r0], #-14
    5de8:	00000601 	andeq	r0, r0, r1, lsl #12
    5dec:	0ede8e01 	cdpeq	14, 13, cr8, cr14, cr1, {0}
    5df0:	1bcf0000 	blne	ff3c5df8 <__bss_end+0xff3c2844>
    5df4:	10000000 	andne	r0, r0, r0
    5df8:	000c1004 	andeq	r1, ip, r4
    5dfc:	76011600 	strvc	r1, [r1], -r0, lsl #12
    5e00:	0100001e 	tsteq	r0, lr, lsl r0
    5e04:	004c01b3 	strheq	r0, [ip], #-19	; 0xffffffed
    5e08:	2d680000 	stclcs	0, cr0, [r8, #-0]
    5e0c:	2db00000 	ldccs	0, cr0, [r0]
    5e10:	1bed0000 	blne	ffb45e18 <__bss_end+0xffb42864>
    5e14:	0f110000 	svceq	0x00110000
    5e18:	01140000 	tsteq	r4, r0
    5e1c:	01000006 	tsteq	r0, r6
    5e20:	000edeb3 			; <UNDEFINED> instruction: 0x000edeb3
    5e24:	001c0d00 	andseq	r0, ip, r0, lsl #26
    5e28:	01160000 	tsteq	r6, r0
    5e2c:	00001e4a 	andeq	r1, r0, sl, asr #28
    5e30:	4c01cd01 	stcmi	13, cr12, [r1], {1}
    5e34:	b0000000 	andlt	r0, r0, r0
    5e38:	0400002d 	streq	r0, [r0], #-45	; 0x2d
    5e3c:	2b00002e 	blcs	5efc <__bss_end+0x2948>
    5e40:	3e00001c 	mcrcc	0, 0, r0, cr0, cr12, {0}
    5e44:	1400000f 	strne	r0, [r0], #-15
    5e48:	00001e9e 	muleq	r0, lr, lr
    5e4c:	0f3ecd01 	svceq	0x003ecd01
    5e50:	1c4b0000 	marne	acc0, r0, fp
    5e54:	10000000 	andne	r0, r0, r0
    5e58:	000d1804 	andeq	r1, sp, r4, lsl #16
    5e5c:	92011600 	andls	r1, r1, #0
    5e60:	0100001e 	tsteq	r0, lr, lsl r0
    5e64:	004c01ed 	subeq	r0, ip, sp, ror #3
    5e68:	2e040000 	cdpcs	0, 0, cr0, cr4, cr0, {0}
    5e6c:	2e4c0000 	cdpcs	0, 4, cr0, cr12, cr0, {0}
    5e70:	1c690000 	stclne	0, cr0, [r9], #-0
    5e74:	0f710000 	svceq	0x00710000
    5e78:	9e140000 	cdpls	0, 1, cr0, cr4, cr0, {0}
    5e7c:	0100001e 	tsteq	r0, lr, lsl r0
    5e80:	000f3eed 	andeq	r3, pc, sp, ror #29
    5e84:	001c8900 	andseq	r8, ip, r0, lsl #18
    5e88:	01170000 	tsteq	r7, r0
    5e8c:	00001e26 	andeq	r1, r0, r6, lsr #28
    5e90:	01010a01 	tsteq	r1, r1, lsl #20
    5e94:	0000004c 	andeq	r0, r0, ip, asr #32
    5e98:	00002e4c 	andeq	r2, r0, ip, asr #28
    5e9c:	00002f00 	andeq	r2, r0, r0, lsl #30
    5ea0:	9f007d02 	svcls	0x00007d02
    5ea4:	1800000f 	stmdane	r0, {r0, r1, r2, r3}
    5ea8:	00000810 	andeq	r0, r0, r0, lsl r8
    5eac:	9f010a01 	svcls	0x00010a01
    5eb0:	a700000f 	strge	r0, [r0, -pc]
    5eb4:	0000001c 	andeq	r0, r0, ip, lsl r0
    5eb8:	0c390410 	cfldrseq	mvf0, [r9], #-64	; 0xffffffc0
    5ebc:	01170000 	tsteq	r7, r0
    5ec0:	00001ddc 	ldrdeq	r1, [r0], -ip
    5ec4:	01014201 	tsteq	r1, r1, lsl #4
    5ec8:	0000004c 	andeq	r0, r0, ip, asr #32
    5ecc:	00002f00 	andeq	r2, r0, r0, lsl #30
    5ed0:	00002f90 	muleq	r0, r0, pc	; <UNPREDICTABLE>
    5ed4:	d3007d02 	movwle	r7, #3330	; 0xd02
    5ed8:	1800000f 	stmdane	r0, {r0, r1, r2, r3}
    5edc:	00000810 	andeq	r0, r0, r0, lsl r8
    5ee0:	9f014201 	svcls	0x00014201
    5ee4:	c500000f 	strgt	r0, [r0, #-15]
    5ee8:	0000001c 	andeq	r0, r0, ip, lsl r0
    5eec:	1e610119 	mcrne	1, 3, r0, cr1, cr9, {0}
    5ef0:	70010000 	andvc	r0, r1, r0
    5ef4:	005e0101 	subseq	r0, lr, r1, lsl #2
    5ef8:	2f900000 	svccs	0x00900000
    5efc:	2fec0000 	svccs	0x00ec0000
    5f00:	1ce30000 	stclne	0, cr0, [r3]
    5f04:	104f0000 	subne	r0, pc, r0
    5f08:	7b1a0000 	blvc	685f10 <__bss_end+0x68295c>
    5f0c:	01000005 	tsteq	r0, r5
    5f10:	005e0172 	subseq	r0, lr, r2, ror r1
    5f14:	1d030000 	stcne	0, cr0, [r3, #-0]
    5f18:	6b1b0000 	blvs	6c5f20 <__bss_end+0x6c296c>
    5f1c:	01000005 	tsteq	r0, r5
    5f20:	005e0173 	subseq	r0, lr, r3, ror r1
    5f24:	1a010000 	bne	45f2c <__bss_end+0x42978>
    5f28:	00000573 	andeq	r0, r0, r3, ror r5
    5f2c:	5e017401 	cdppl	4, 0, cr7, cr1, cr1, {0}
    5f30:	22000000 	andcs	r0, r0, #0
    5f34:	1a00001d 	bne	5fb0 <__bss_end+0x29fc>
    5f38:	0000058b 	andeq	r0, r0, fp, lsl #11
    5f3c:	5e017501 	cfsh32pl	mvfx7, mvfx1, #1
    5f40:	43000000 	movwmi	r0, #0
    5f44:	1a00001d 	bne	5fc0 <__bss_end+0x2a0c>
    5f48:	00001ea9 	andeq	r1, r0, r9, lsr #29
    5f4c:	5e017601 	cfmadd32pl	mvax0, mvfx7, mvfx1, mvfx1
    5f50:	62000000 	andvs	r0, r0, #0
    5f54:	1a00001d 	bne	5fd0 <__bss_end+0x2a1c>
    5f58:	00001e6d 	andeq	r1, r0, sp, ror #28
    5f5c:	5e017701 	cdppl	7, 0, cr7, cr1, cr1, {0}
    5f60:	76000000 	strvc	r0, [r0], -r0
    5f64:	0000001d 	andeq	r0, r0, sp, lsl r0
    5f68:	000b2a1c 	andeq	r2, fp, ip, lsl sl
    5f6c:	0a040100 	beq	106374 <__bss_end+0x102dc0>
    5f70:	0500000c 	streq	r0, [r0, #-12]
    5f74:	0033a403 	eorseq	sl, r3, r3, lsl #8
    5f78:	1e371c00 	cdpne	12, 3, cr1, cr7, cr0, {0}
    5f7c:	35010000 	strcc	r0, [r1, #-0]
    5f80:	0000012e 	andeq	r0, r0, lr, lsr #2
    5f84:	33ac0305 			; <UNDEFINED> instruction: 0x33ac0305
    5f88:	f31c0000 	vhadd.u16	d0, d12, d0
    5f8c:	0100001e 	tsteq	r0, lr, lsl r0
    5f90:	0001e936 	andeq	lr, r1, r6, lsr r9
    5f94:	a8030500 	stmdage	r3, {r8, sl}
    5f98:	00000033 	andeq	r0, r0, r3, lsr r0

Disassembly of section .debug_abbrev:

00000000 <.debug_abbrev>:
       0:	25011101 	strcs	r1, [r1, #-257]	; 0x101
       4:	030b130e 	movweq	r1, #45838	; 0xb30e
       8:	110e1b0e 	tstne	lr, lr, lsl #22
       c:	10011201 	andne	r1, r1, r1, lsl #4
      10:	02000006 	andeq	r0, r0, #6
      14:	0b0b0024 	bleq	2c00ac <__bss_end+0x2bcaf8>
      18:	0e030b3e 	vmoveq.16	d3[0], r0
      1c:	24030000 	strcs	r0, [r3], #-0
      20:	3e0b0b00 	vmlacc.f64	d0, d11, d0
      24:	0008030b 	andeq	r0, r8, fp, lsl #6
      28:	01040400 	tsteq	r4, r0, lsl #8
      2c:	0b0b0e03 	bleq	2c3840 <__bss_end+0x2c028c>
      30:	0b3b0b3a 	bleq	ec2d20 <__bss_end+0xebf76c>
      34:	00001301 	andeq	r1, r0, r1, lsl #6
      38:	03002805 	movweq	r2, #2053	; 0x805
      3c:	000d1c0e 	andeq	r1, sp, lr, lsl #24
      40:	01130600 	tsteq	r3, r0, lsl #12
      44:	0b0b0e03 	bleq	2c3858 <__bss_end+0x2c02a4>
      48:	0b3b0b3a 	bleq	ec2d38 <__bss_end+0xebf784>
      4c:	00001301 	andeq	r1, r0, r1, lsl #6
      50:	03000d07 	movweq	r0, #3335	; 0xd07
      54:	3b0b3a0e 	blcc	2ce894 <__bss_end+0x2cb2e0>
      58:	3813490b 	ldmdacc	r3, {r0, r1, r3, r8, fp, lr}
      5c:	0800000a 	stmdaeq	r0, {r1, r3}
      60:	13490101 	movtne	r0, #37121	; 0x9101
      64:	00001301 	andeq	r1, r0, r1, lsl #6
      68:	49002109 	stmdbmi	r0, {r0, r3, r8, sp}
      6c:	000b2f13 	andeq	r2, fp, r3, lsl pc
      70:	00160a00 	andseq	r0, r6, r0, lsl #20
      74:	0b3a0e03 	bleq	e83888 <__bss_end+0xe802d4>
      78:	13490b3b 	movtne	r0, #39739	; 0x9b3b
      7c:	340b0000 	strcc	r0, [fp], #-0
      80:	3a0e0300 	bcc	380c88 <__bss_end+0x37d6d4>
      84:	490b3b0b 	stmdbmi	fp, {r0, r1, r3, r8, r9, fp, ip, sp}
      88:	020c3f13 	andeq	r3, ip, #76	; 0x4c
      8c:	0c00000a 	stceq	0, cr0, [r0], {10}
      90:	13490026 	movtne	r0, #36902	; 0x9026
      94:	01000000 	mrseq	r0, (UNDEF: 0)
      98:	06100011 			; <UNDEFINED> instruction: 0x06100011
      9c:	01120111 	tsteq	r2, r1, lsl r1
      a0:	081b0803 	ldmdaeq	fp, {r0, r1, fp}
      a4:	05130825 	ldreq	r0, [r3, #-2085]	; 0x825
      a8:	01000000 	mrseq	r0, (UNDEF: 0)
      ac:	0e250111 	mcreq	1, 1, r0, cr5, cr1, {0}
      b0:	0e030b13 	vmoveq.32	d3[0], r0
      b4:	01110e1b 	tsteq	r1, fp, lsl lr
      b8:	06100112 			; <UNDEFINED> instruction: 0x06100112
      bc:	24020000 	strcs	r0, [r2], #-0
      c0:	3e0b0b00 	vmlacc.f64	d0, d11, d0
      c4:	000e030b 	andeq	r0, lr, fp, lsl #6
      c8:	00240300 	eoreq	r0, r4, r0, lsl #6
      cc:	0b3e0b0b 	bleq	f82d00 <__bss_end+0xf7f74c>
      d0:	00000803 	andeq	r0, r0, r3, lsl #16
      d4:	0b000f04 	bleq	3cec <__bss_end+0x738>
      d8:	0013490b 	andseq	r4, r3, fp, lsl #18
      dc:	000f0500 	andeq	r0, pc, r0, lsl #10
      e0:	00000b0b 	andeq	r0, r0, fp, lsl #22
      e4:	3f012e06 	svccc	0x00012e06
      e8:	3a0e030c 	bcc	380d20 <__bss_end+0x37d76c>
      ec:	270b3b0b 	strcs	r3, [fp, -fp, lsl #22]
      f0:	1201110c 	andne	r1, r1, #3
      f4:	000a4001 	andeq	r4, sl, r1
      f8:	00050700 	andeq	r0, r5, r0, lsl #14
      fc:	0b3a0e03 	bleq	e83910 <__bss_end+0xe8035c>
     100:	13490b3b 	movtne	r0, #39739	; 0x9b3b
     104:	00000602 	andeq	r0, r0, r2, lsl #12
     108:	03000508 	movweq	r0, #1288	; 0x508
     10c:	3b0b3a08 	blcc	2ce934 <__bss_end+0x2cb380>
     110:	0213490b 	andseq	r4, r3, #180224	; 0x2c000
     114:	09000006 	stmdbeq	r0, {r1, r2}
     118:	0e030034 	mcreq	0, 0, r0, cr3, cr4, {1}
     11c:	0b3b0b3a 	bleq	ec2e0c <__bss_end+0xebf858>
     120:	06021349 	streq	r1, [r2], -r9, asr #6
     124:	340a0000 	strcc	r0, [sl], #-0
     128:	3a0e0300 	bcc	380d30 <__bss_end+0x37d77c>
     12c:	490b3b0b 	stmdbmi	fp, {r0, r1, r3, r8, r9, fp, ip, sp}
     130:	000a0213 	andeq	r0, sl, r3, lsl r2
     134:	11010000 	mrsne	r0, (UNDEF: 1)
     138:	130e2501 	movwne	r2, #58625	; 0xe501
     13c:	1b0e030b 	blne	380d70 <__bss_end+0x37d7bc>
     140:	1201110e 	andne	r1, r1, #-2147483645	; 0x80000003
     144:	00061001 	andeq	r1, r6, r1
     148:	00240200 	eoreq	r0, r4, r0, lsl #4
     14c:	0b3e0b0b 	bleq	f82d80 <__bss_end+0xf7f7cc>
     150:	00000e03 	andeq	r0, r0, r3, lsl #28
     154:	0b002403 	bleq	9168 <__bss_end+0x5bb4>
     158:	030b3e0b 	movweq	r3, #48651	; 0xbe0b
     15c:	00000008 	andeq	r0, r0, r8
     160:	10001101 	andne	r1, r0, r1, lsl #2
     164:	12011106 	andne	r1, r1, #-2147483647	; 0x80000001
     168:	1b080301 	blne	200d74 <__bss_end+0x1fd7c0>
     16c:	13082508 	movwne	r2, #34056	; 0x8508
     170:	00000005 	andeq	r0, r0, r5
     174:	25011101 	strcs	r1, [r1, #-257]	; 0x101
     178:	030b130e 	movweq	r1, #45838	; 0xb30e
     17c:	110e1b0e 	tstne	lr, lr, lsl #22
     180:	10011201 	andne	r1, r1, r1, lsl #4
     184:	02000006 	andeq	r0, r0, #6
     188:	0b0b0024 	bleq	2c0220 <__bss_end+0x2bcc6c>
     18c:	0e030b3e 	vmoveq.16	d3[0], r0
     190:	24030000 	strcs	r0, [r3], #-0
     194:	3e0b0b00 	vmlacc.f64	d0, d11, d0
     198:	0008030b 	andeq	r0, r8, fp, lsl #6
     19c:	11010000 	mrsne	r0, (UNDEF: 1)
     1a0:	130e2501 	movwne	r2, #58625	; 0xe501
     1a4:	1b0e030b 	blne	380dd8 <__bss_end+0x37d824>
     1a8:	1201110e 	andne	r1, r1, #-2147483645	; 0x80000003
     1ac:	00061001 	andeq	r1, r6, r1
     1b0:	00240200 	eoreq	r0, r4, r0, lsl #4
     1b4:	0b3e0b0b 	bleq	f82de8 <__bss_end+0xf7f834>
     1b8:	00000e03 	andeq	r0, r0, r3, lsl #28
     1bc:	0b002403 	bleq	91d0 <__bss_end+0x5c1c>
     1c0:	030b3e0b 	movweq	r3, #48651	; 0xbe0b
     1c4:	00000008 	andeq	r0, r0, r8
     1c8:	25011101 	strcs	r1, [r1, #-257]	; 0x101
     1cc:	030b130e 	movweq	r1, #45838	; 0xb30e
     1d0:	110e1b0e 	tstne	lr, lr, lsl #22
     1d4:	10011201 	andne	r1, r1, r1, lsl #4
     1d8:	02000006 	andeq	r0, r0, #6
     1dc:	0b0b0024 	bleq	2c0274 <__bss_end+0x2bccc0>
     1e0:	0e030b3e 	vmoveq.16	d3[0], r0
     1e4:	24030000 	strcs	r0, [r3], #-0
     1e8:	3e0b0b00 	vmlacc.f64	d0, d11, d0
     1ec:	0008030b 	andeq	r0, r8, fp, lsl #6
     1f0:	11010000 	mrsne	r0, (UNDEF: 1)
     1f4:	130e2501 	movwne	r2, #58625	; 0xe501
     1f8:	1b0e030b 	blne	380e2c <__bss_end+0x37d878>
     1fc:	1201110e 	andne	r1, r1, #-2147483645	; 0x80000003
     200:	00061001 	andeq	r1, r6, r1
     204:	00240200 	eoreq	r0, r4, r0, lsl #4
     208:	0b3e0b0b 	bleq	f82e3c <__bss_end+0xf7f888>
     20c:	00000e03 	andeq	r0, r0, r3, lsl #28
     210:	03001603 	movweq	r1, #1539	; 0x603
     214:	3b0b3a0e 	blcc	2cea54 <__bss_end+0x2cb4a0>
     218:	0013490b 	andseq	r4, r3, fp, lsl #18
     21c:	00240400 	eoreq	r0, r4, r0, lsl #8
     220:	0b3e0b0b 	bleq	f82e54 <__bss_end+0xf7f8a0>
     224:	00000803 	andeq	r0, r0, r3, lsl #16
     228:	0b011305 	bleq	44e44 <__bss_end+0x41890>
     22c:	3b0b3a0b 	blcc	2cea60 <__bss_end+0x2cb4ac>
     230:	0013010b 	andseq	r0, r3, fp, lsl #2
     234:	000d0600 	andeq	r0, sp, r0, lsl #12
     238:	0b3a0e03 	bleq	e83a4c <__bss_end+0xe80498>
     23c:	13490b3b 	movtne	r0, #39739	; 0x9b3b
     240:	0b0d0b0b 	bleq	342e74 <__bss_end+0x33f8c0>
     244:	0a380b0c 	beq	e02e7c <__bss_end+0xdff8c8>
     248:	17070000 	strne	r0, [r7, -r0]
     24c:	3a0b0b01 	bcc	2c2e58 <__bss_end+0x2bf8a4>
     250:	010b3b0b 	tsteq	fp, fp, lsl #22
     254:	08000013 	stmdaeq	r0, {r0, r1, r4}
     258:	0e03000d 	cdpeq	0, 0, cr0, cr3, cr13, {0}
     25c:	0b3b0b3a 	bleq	ec2f4c <__bss_end+0xebf998>
     260:	00001349 	andeq	r1, r0, r9, asr #6
     264:	03011309 	movweq	r1, #4873	; 0x1309
     268:	3a0b0b0e 	bcc	2c2ea8 <__bss_end+0x2bf8f4>
     26c:	010b3b0b 	tsteq	fp, fp, lsl #22
     270:	0a000013 	beq	2c4 <set_pll+0xb0>
     274:	0e030113 	mcreq	1, 0, r0, cr3, cr3, {0}
     278:	0b3a050b 	bleq	e816ac <__bss_end+0xe7e0f8>
     27c:	13010b3b 	movwne	r0, #6971	; 0x1b3b
     280:	0d0b0000 	stceq	0, cr0, [fp, #-0]
     284:	3a0e0300 	bcc	380e8c <__bss_end+0x37d8d8>
     288:	490b3b0b 	stmdbmi	fp, {r0, r1, r3, r8, r9, fp, ip, sp}
     28c:	000a3813 	andeq	r3, sl, r3, lsl r8
     290:	000d0c00 	andeq	r0, sp, r0, lsl #24
     294:	0b3a0803 	bleq	e822a8 <__bss_end+0xe7ecf4>
     298:	13490b3b 	movtne	r0, #39739	; 0x9b3b
     29c:	00000a38 	andeq	r0, r0, r8, lsr sl
     2a0:	4900350d 	stmdbmi	r0, {r0, r2, r3, r8, sl, ip, sp}
     2a4:	0e000013 	mcreq	0, 0, r0, cr0, cr3, {0}
     2a8:	13490101 	movtne	r0, #37121	; 0x9101
     2ac:	00001301 	andeq	r1, r0, r1, lsl #6
     2b0:	4900210f 	stmdbmi	r0, {r0, r1, r2, r3, r8, sp}
     2b4:	000b2f13 	andeq	r2, fp, r3, lsl pc
     2b8:	000f1000 	andeq	r1, pc, r0
     2bc:	13490b0b 	movtne	r0, #39691	; 0x9b0b
     2c0:	04110000 	ldreq	r0, [r1], #-0
     2c4:	0b0e0301 	bleq	380ed0 <__bss_end+0x37d91c>
     2c8:	3b0b3a0b 	blcc	2ceafc <__bss_end+0x2cb548>
     2cc:	0013010b 	andseq	r0, r3, fp, lsl #2
     2d0:	00281200 	eoreq	r1, r8, r0, lsl #4
     2d4:	0d1c0e03 	ldceq	14, cr0, [ip, #-12]
     2d8:	04130000 	ldreq	r0, [r3], #-0
     2dc:	3a0b0b01 	bcc	2c2ee8 <__bss_end+0x2bf934>
     2e0:	010b3b0b 	tsteq	fp, fp, lsl #22
     2e4:	14000013 	strne	r0, [r0], #-19
     2e8:	0b0b000f 	bleq	2c032c <__bss_end+0x2bcd78>
     2ec:	15150000 	ldrne	r0, [r5, #-0]
     2f0:	490c2700 	stmdbmi	ip, {r8, r9, sl, sp}
     2f4:	16000013 			; <UNDEFINED> instruction: 0x16000013
     2f8:	0c3f002e 	ldceq	0, cr0, [pc], #-184	; 248 <set_pll+0x34>
     2fc:	0b3a0e03 	bleq	e83b10 <__bss_end+0xe8055c>
     300:	0c270b3b 	stceq	11, cr0, [r7], #-236	; 0xffffff14
     304:	01111349 	tsteq	r1, r9, asr #6
     308:	06400112 			; <UNDEFINED> instruction: 0x06400112
     30c:	2e170000 	cdpcs	0, 1, cr0, cr7, cr0, {0}
     310:	030c3f01 	movweq	r3, #52993	; 0xcf01
     314:	3b0b3a0e 	blcc	2ceb54 <__bss_end+0x2cb5a0>
     318:	110c270b 	tstne	ip, fp, lsl #14
     31c:	40011201 	andmi	r1, r1, r1, lsl #4
     320:	00130106 	andseq	r0, r3, r6, lsl #2
     324:	00341800 	eorseq	r1, r4, r0, lsl #16
     328:	0b3a0e03 	bleq	e83b3c <__bss_end+0xe80588>
     32c:	13490b3b 	movtne	r0, #39739	; 0x9b3b
     330:	00000602 	andeq	r0, r0, r2, lsl #12
     334:	03003419 	movweq	r3, #1049	; 0x419
     338:	3b0b3a0e 	blcc	2ceb78 <__bss_end+0x2cb5c4>
     33c:	1c13490b 	ldcne	9, cr4, [r3], {11}
     340:	1a00000b 	bne	374 <set_pll+0x160>
     344:	0e030034 	mcreq	0, 0, r0, cr3, cr4, {1}
     348:	0b3b0b3a 	bleq	ec3038 <__bss_end+0xebfa84>
     34c:	00001349 	andeq	r1, r0, r9, asr #6
     350:	0300341b 	movweq	r3, #1051	; 0x41b
     354:	3b0b3a0e 	blcc	2ceb94 <__bss_end+0x2cb5e0>
     358:	0213490b 	andseq	r4, r3, #180224	; 0x2c000
     35c:	1c00000a 	stcne	0, cr0, [r0], {10}
     360:	0e030034 	mcreq	0, 0, r0, cr3, cr4, {1}
     364:	0b3b0b3a 	bleq	ec3054 <__bss_end+0xebfaa0>
     368:	0c3f1349 	ldceq	3, cr1, [pc], #-292	; 24c <set_pll+0x38>
     36c:	00000a02 	andeq	r0, r0, r2, lsl #20
     370:	0300341d 	movweq	r3, #1053	; 0x41d
     374:	3b0b3a0e 	blcc	2cebb4 <__bss_end+0x2cb600>
     378:	3f13490b 	svccc	0x0013490b
     37c:	000c3c0c 	andeq	r3, ip, ip, lsl #24
     380:	11010000 	mrsne	r0, (UNDEF: 1)
     384:	130e2501 	movwne	r2, #58625	; 0xe501
     388:	1b0e030b 	blne	380fbc <__bss_end+0x37da08>
     38c:	1201110e 	andne	r1, r1, #-2147483645	; 0x80000003
     390:	00061001 	andeq	r1, r6, r1
     394:	00240200 	eoreq	r0, r4, r0, lsl #4
     398:	0b3e0b0b 	bleq	f82fcc <__bss_end+0xf7fa18>
     39c:	00000e03 	andeq	r0, r0, r3, lsl #28
     3a0:	0b002403 	bleq	93b4 <__bss_end+0x5e00>
     3a4:	030b3e0b 	movweq	r3, #48651	; 0xbe0b
     3a8:	04000008 	streq	r0, [r0], #-8
     3ac:	0e030016 	mcreq	0, 0, r0, cr3, cr6, {0}
     3b0:	0b3b0b3a 	bleq	ec30a0 <__bss_end+0xebfaec>
     3b4:	00001349 	andeq	r1, r0, r9, asr #6
     3b8:	03011305 	movweq	r1, #4869	; 0x1305
     3bc:	3a0b0b0e 	bcc	2c2ffc <__bss_end+0x2bfa48>
     3c0:	010b3b0b 	tsteq	fp, fp, lsl #22
     3c4:	06000013 			; <UNDEFINED> instruction: 0x06000013
     3c8:	0e03000d 	cdpeq	0, 0, cr0, cr3, cr13, {0}
     3cc:	0b3b0b3a 	bleq	ec30bc <__bss_end+0xebfb08>
     3d0:	0b0b1349 	bleq	2c50fc <__bss_end+0x2c1b48>
     3d4:	0b0c0b0d 	bleq	303010 <__bss_end+0x2ffa5c>
     3d8:	00000a38 	andeq	r0, r0, r8, lsr sl
     3dc:	0b011707 	bleq	46000 <__bss_end+0x42a4c>
     3e0:	3b0b3a0b 	blcc	2cec14 <__bss_end+0x2cb660>
     3e4:	0013010b 	andseq	r0, r3, fp, lsl #2
     3e8:	000d0800 	andeq	r0, sp, r0, lsl #16
     3ec:	0b3a0e03 	bleq	e83c00 <__bss_end+0xe8064c>
     3f0:	13490b3b 	movtne	r0, #39739	; 0x9b3b
     3f4:	35090000 	strcc	r0, [r9, #-0]
     3f8:	00134900 	andseq	r4, r3, r0, lsl #18
     3fc:	01040a00 	tsteq	r4, r0, lsl #20
     400:	0b0b0e03 	bleq	2c3c14 <__bss_end+0x2c0660>
     404:	0b3b0b3a 	bleq	ec30f4 <__bss_end+0xebfb40>
     408:	00001301 	andeq	r1, r0, r1, lsl #6
     40c:	0300280b 	movweq	r2, #2059	; 0x80b
     410:	000d1c0e 	andeq	r1, sp, lr, lsl #24
     414:	012e0c00 	teqeq	lr, r0, lsl #24
     418:	0e030c3f 	mcreq	12, 0, r0, cr3, cr15, {1}
     41c:	0b3b0b3a 	bleq	ec310c <__bss_end+0xebfb58>
     420:	01110c27 	tsteq	r1, r7, lsr #24
     424:	06400112 			; <UNDEFINED> instruction: 0x06400112
     428:	00001301 	andeq	r1, r0, r1, lsl #6
     42c:	0300340d 	movweq	r3, #1037	; 0x40d
     430:	3b0b3a0e 	blcc	2cec70 <__bss_end+0x2cb6bc>
     434:	0213490b 	andseq	r4, r3, #180224	; 0x2c000
     438:	0e00000a 	cdpeq	0, 0, cr0, cr0, cr10, {0}
     43c:	0c3f002e 	ldceq	0, cr0, [pc], #-184	; 38c <busy_waiting+0xc>
     440:	0b3a0e03 	bleq	e83c54 <__bss_end+0xe806a0>
     444:	0c270b3b 	stceq	11, cr0, [r7], #-236	; 0xffffff14
     448:	01120111 	tsteq	r2, r1, lsl r1
     44c:	00000a40 	andeq	r0, r0, r0, asr #20
     450:	0300340f 	movweq	r3, #1039	; 0x40f
     454:	3b0b3a08 	blcc	2cec7c <__bss_end+0x2cb6c8>
     458:	0213490b 	andseq	r4, r3, #180224	; 0x2c000
     45c:	10000006 	andne	r0, r0, r6
     460:	08030005 	stmdaeq	r3, {r0, r2}
     464:	0b3b0b3a 	bleq	ec3154 <__bss_end+0xebfba0>
     468:	06021349 	streq	r1, [r2], -r9, asr #6
     46c:	2e110000 	cdpcs	0, 1, cr0, cr1, cr0, {0}
     470:	030c3f01 	movweq	r3, #52993	; 0xcf01
     474:	3b0b3a0e 	blcc	2cecb4 <__bss_end+0x2cb700>
     478:	490c270b 	stmdbmi	ip, {r0, r1, r3, r8, r9, sl, sp}
     47c:	12011113 	andne	r1, r1, #-1073741820	; 0xc0000004
     480:	01064001 	tsteq	r6, r1
     484:	12000013 	andne	r0, r0, #19
     488:	0c3f012e 	ldfeqs	f0, [pc], #-184	; 3d8 <mem_status_init_nommu+0xc>
     48c:	0b3a0e03 	bleq	e83ca0 <__bss_end+0xe806ec>
     490:	0c270b3b 	stceq	11, cr0, [r7], #-236	; 0xffffff14
     494:	01120111 	tsteq	r2, r1, lsl r1
     498:	13010a40 	movwne	r0, #6720	; 0x1a40
     49c:	34130000 	ldrcc	r0, [r3], #-0
     4a0:	3a0e0300 	bcc	3810a8 <__bss_end+0x37daf4>
     4a4:	49053b0b 	stmdbmi	r5, {r0, r1, r3, r8, r9, fp, ip, sp}
     4a8:	000a0213 	andeq	r0, sl, r3, lsl r2
     4ac:	012e1400 	teqeq	lr, r0, lsl #8
     4b0:	0e030c3f 	mcreq	12, 0, r0, cr3, cr15, {1}
     4b4:	053b0b3a 	ldreq	r0, [fp, #-2874]!	; 0xb3a
     4b8:	01110c27 	tsteq	r1, r7, lsr #24
     4bc:	0a400112 	beq	100090c <__bss_end+0xffd358>
     4c0:	00001301 	andeq	r1, r0, r1, lsl #6
     4c4:	3f012e15 	svccc	0x00012e15
     4c8:	3a0e030c 	bcc	381100 <__bss_end+0x37db4c>
     4cc:	27053b0b 	strcs	r3, [r5, -fp, lsl #22]
     4d0:	1201110c 	andne	r1, r1, #3
     4d4:	01064001 	tsteq	r6, r1
     4d8:	16000013 			; <UNDEFINED> instruction: 0x16000013
     4dc:	08030005 	stmdaeq	r3, {r0, r2}
     4e0:	053b0b3a 	ldreq	r0, [fp, #-2874]!	; 0xb3a
     4e4:	06021349 	streq	r1, [r2], -r9, asr #6
     4e8:	34170000 	ldrcc	r0, [r7], #-0
     4ec:	3a0e0300 	bcc	3810f4 <__bss_end+0x37db40>
     4f0:	49053b0b 	stmdbmi	r5, {r0, r1, r3, r8, r9, fp, ip, sp}
     4f4:	00060213 	andeq	r0, r6, r3, lsl r2
     4f8:	000f1800 	andeq	r1, pc, r0, lsl #16
     4fc:	13490b0b 	movtne	r0, #39691	; 0x9b0b
     500:	34190000 	ldrcc	r0, [r9], #-0
     504:	3a0e0300 	bcc	38110c <__bss_end+0x37db58>
     508:	490b3b0b 	stmdbmi	fp, {r0, r1, r3, r8, r9, fp, ip, sp}
     50c:	020c3f13 	andeq	r3, ip, #76	; 0x4c
     510:	0000000a 	andeq	r0, r0, sl
     514:	25011101 	strcs	r1, [r1, #-257]	; 0x101
     518:	030b130e 	movweq	r1, #45838	; 0xb30e
     51c:	110e1b0e 	tstne	lr, lr, lsl #22
     520:	10011201 	andne	r1, r1, r1, lsl #4
     524:	02000006 	andeq	r0, r0, #6
     528:	0b0b0024 	bleq	2c05c0 <__bss_end+0x2bd00c>
     52c:	0e030b3e 	vmoveq.16	d3[0], r0
     530:	16030000 	strne	r0, [r3], -r0
     534:	3a0e0300 	bcc	38113c <__bss_end+0x37db88>
     538:	490b3b0b 	stmdbmi	fp, {r0, r1, r3, r8, r9, fp, ip, sp}
     53c:	04000013 	streq	r0, [r0], #-19
     540:	0b0b0024 	bleq	2c05d8 <__bss_end+0x2bd024>
     544:	08030b3e 	stmdaeq	r3, {r1, r2, r3, r4, r5, r8, r9, fp}
     548:	04050000 	streq	r0, [r5], #-0
     54c:	0b0e0301 	bleq	381158 <__bss_end+0x37dba4>
     550:	3b0b3a0b 	blcc	2ced84 <__bss_end+0x2cb7d0>
     554:	0013010b 	andseq	r0, r3, fp, lsl #2
     558:	00280600 	eoreq	r0, r8, r0, lsl #12
     55c:	0d1c0e03 	ldceq	14, cr0, [ip, #-12]
     560:	2e070000 	cdpcs	0, 0, cr0, cr7, cr0, {0}
     564:	030c3f01 	movweq	r3, #52993	; 0xcf01
     568:	3b0b3a0e 	blcc	2ceda8 <__bss_end+0x2cb7f4>
     56c:	490c270b 	stmdbmi	ip, {r0, r1, r3, r8, r9, sl, sp}
     570:	010b2013 	tsteq	fp, r3, lsl r0
     574:	08000013 	stmdaeq	r0, {r0, r1, r4}
     578:	0e030034 	mcreq	0, 0, r0, cr3, cr4, {1}
     57c:	0b3b0b3a 	bleq	ec326c <__bss_end+0xebfcb8>
     580:	00001349 	andeq	r1, r0, r9, asr #6
     584:	3f012e09 	svccc	0x00012e09
     588:	3a0e030c 	bcc	3811c0 <__bss_end+0x37dc0c>
     58c:	270b3b0b 	strcs	r3, [fp, -fp, lsl #22]
     590:	010b200c 	tsteq	fp, ip
     594:	0a000013 	beq	5e8 <save_mem_status_nommu>
     598:	0e030005 	cdpeq	0, 0, cr0, cr3, cr5, {0}
     59c:	0b3b0b3a 	bleq	ec328c <__bss_end+0xebfcd8>
     5a0:	00001349 	andeq	r1, r0, r9, asr #6
     5a4:	03012e0b 	movweq	r2, #7691	; 0x1e0b
     5a8:	3b0b3a0e 	blcc	2cede8 <__bss_end+0x2cb834>
     5ac:	490c270b 	stmdbmi	ip, {r0, r1, r3, r8, r9, sl, sp}
     5b0:	010b2013 	tsteq	fp, r3, lsl r0
     5b4:	0c000013 	stceq	0, cr0, [r0], {19}
     5b8:	1331012e 	teqne	r1, #-2147483637	; 0x8000000b
     5bc:	01120111 	tsteq	r2, r1, lsl r1
     5c0:	13010a40 	movwne	r0, #6720	; 0x1a40
     5c4:	050d0000 	streq	r0, [sp, #-0]
     5c8:	02133100 	andseq	r3, r3, #0
     5cc:	0e000006 	cdpeq	0, 0, cr0, cr0, cr6, {0}
     5d0:	13310005 	teqne	r1, #5
     5d4:	00000a02 	andeq	r0, r0, r2, lsl #20
     5d8:	3100340f 	tstcc	r0, pc, lsl #8
     5dc:	00060213 	andeq	r0, r6, r3, lsl r2
     5e0:	002e1000 	eoreq	r1, lr, r0
     5e4:	0e030c3f 	mcreq	12, 0, r0, cr3, cr15, {1}
     5e8:	0b3b0b3a 	bleq	ec32d8 <__bss_end+0xebfd24>
     5ec:	01110c27 	tsteq	r1, r7, lsr #24
     5f0:	0a400112 	beq	1000a40 <__bss_end+0xffd48c>
     5f4:	34110000 	ldrcc	r0, [r1], #-0
     5f8:	02133100 	andseq	r3, r3, #0
     5fc:	1200000a 	andne	r0, r0, #10
     600:	0c3f012e 	ldfeqs	f0, [pc], #-184	; 550 <get_mem_status+0x34>
     604:	0b3a0e03 	bleq	e83e18 <__bss_end+0xe80864>
     608:	0c270b3b 	stceq	11, cr0, [r7], #-236	; 0xffffff14
     60c:	01120111 	tsteq	r2, r1, lsl r1
     610:	13010a40 	movwne	r0, #6720	; 0x1a40
     614:	34130000 	ldrcc	r0, [r3], #-0
     618:	3a0e0300 	bcc	381220 <__bss_end+0x37dc6c>
     61c:	490b3b0b 	stmdbmi	fp, {r0, r1, r3, r8, r9, fp, ip, sp}
     620:	00060213 	andeq	r0, r6, r3, lsl r2
     624:	012e1400 	teqeq	lr, r0, lsl #8
     628:	0e030c3f 	mcreq	12, 0, r0, cr3, cr15, {1}
     62c:	0b3b0b3a 	bleq	ec331c <__bss_end+0xebfd68>
     630:	01110c27 	tsteq	r1, r7, lsr #24
     634:	06400112 			; <UNDEFINED> instruction: 0x06400112
     638:	00001301 	andeq	r1, r0, r1, lsl #6
     63c:	03003415 	movweq	r3, #1045	; 0x415
     640:	3b0b3a08 	blcc	2cee68 <__bss_end+0x2cb8b4>
     644:	0213490b 	andseq	r4, r3, #180224	; 0x2c000
     648:	16000006 	strne	r0, [r0], -r6
     64c:	1331011d 	teqne	r1, #1073741831	; 0x40000007
     650:	01120111 	tsteq	r2, r1, lsl r1
     654:	0b590b58 	bleq	16433bc <__bss_end+0x163fe08>
     658:	00001301 	andeq	r1, r0, r1, lsl #6
     65c:	11010b17 	tstne	r1, r7, lsl fp
     660:	00011201 	andeq	r1, r1, r1, lsl #4
     664:	011d1800 	tsteq	sp, r0, lsl #16
     668:	01111331 	tsteq	r1, r1, lsr r3
     66c:	0b580112 	bleq	1600abc <__bss_end+0x15fd508>
     670:	00000b59 	andeq	r0, r0, r9, asr fp
     674:	03000519 	movweq	r0, #1305	; 0x519
     678:	3b0b3a08 	blcc	2ceea0 <__bss_end+0x2cb8ec>
     67c:	0213490b 	andseq	r4, r3, #180224	; 0x2c000
     680:	1a000006 	bne	6a0 <io_init_high+0xc>
     684:	0803000a 	stmdaeq	r3, {r1, r3}
     688:	0b3b0b3a 	bleq	ec3378 <__bss_end+0xebfdc4>
     68c:	00000111 	andeq	r0, r0, r1, lsl r1
     690:	0300051b 	movweq	r0, #1307	; 0x51b
     694:	3b0b3a0e 	blcc	2ceed4 <__bss_end+0x2cb920>
     698:	0213490b 	andseq	r4, r3, #180224	; 0x2c000
     69c:	1c000006 	stcne	0, cr0, [r0], {6}
     6a0:	0e030005 	cdpeq	0, 0, cr0, cr3, cr5, {0}
     6a4:	0b3b0b3a 	bleq	ec3394 <__bss_end+0xebfde0>
     6a8:	0a021349 	beq	853d4 <__bss_end+0x81e20>
     6ac:	2e1d0000 	cdpcs	0, 1, cr0, cr13, cr0, {0}
     6b0:	030c3f01 	movweq	r3, #52993	; 0xcf01
     6b4:	3b0b3a0e 	blcc	2ceef4 <__bss_end+0x2cb940>
     6b8:	490c2705 	stmdbmi	ip, {r0, r2, r8, r9, sl, sp}
     6bc:	12011113 	andne	r1, r1, #-1073741820	; 0xc0000004
     6c0:	010a4001 	tsteq	sl, r1
     6c4:	1e000013 	mcrne	0, 0, r0, cr0, cr3, {0}
     6c8:	0e030005 	cdpeq	0, 0, cr0, cr3, cr5, {0}
     6cc:	053b0b3a 	ldreq	r0, [fp, #-2874]!	; 0xb3a
     6d0:	06021349 	streq	r1, [r2], -r9, asr #6
     6d4:	341f0000 	ldrcc	r0, [pc], #-0	; 6dc <io_high+0x18>
     6d8:	3a0e0300 	bcc	3812e0 <__bss_end+0x37dd2c>
     6dc:	49053b0b 	stmdbmi	r5, {r0, r1, r3, r8, r9, fp, ip, sp}
     6e0:	00060213 	andeq	r0, r6, r3, lsl r2
     6e4:	011d2000 	tsteq	sp, r0
     6e8:	01111331 	tsteq	r1, r1, lsr r3
     6ec:	0b580112 	bleq	1600b3c <__bss_end+0x15fd588>
     6f0:	00000559 	andeq	r0, r0, r9, asr r5
     6f4:	03003421 	movweq	r3, #1057	; 0x421
     6f8:	3b0b3a0e 	blcc	2cef38 <__bss_end+0x2cb984>
     6fc:	0213490b 	andseq	r4, r3, #180224	; 0x2c000
     700:	0000000a 	andeq	r0, r0, sl
     704:	25011101 	strcs	r1, [r1, #-257]	; 0x101
     708:	030b130e 	movweq	r1, #45838	; 0xb30e
     70c:	110e1b0e 	tstne	lr, lr, lsl #22
     710:	10011201 	andne	r1, r1, r1, lsl #4
     714:	02000006 	andeq	r0, r0, #6
     718:	0b0b0024 	bleq	2c07b0 <__bss_end+0x2bd1fc>
     71c:	0e030b3e 	vmoveq.16	d3[0], r0
     720:	24030000 	strcs	r0, [r3], #-0
     724:	3e0b0b00 	vmlacc.f64	d0, d11, d0
     728:	0008030b 	andeq	r0, r8, fp, lsl #6
     72c:	00160400 	andseq	r0, r6, r0, lsl #8
     730:	0b3a0e03 	bleq	e83f44 <__bss_end+0xe80990>
     734:	13490b3b 	movtne	r0, #39739	; 0x9b3b
     738:	13050000 	movwne	r0, #20480	; 0x5000
     73c:	0b0e0301 	bleq	381348 <__bss_end+0x37dd94>
     740:	3b0b3a0b 	blcc	2cef74 <__bss_end+0x2cb9c0>
     744:	0013010b 	andseq	r0, r3, fp, lsl #2
     748:	000d0600 	andeq	r0, sp, r0, lsl #12
     74c:	0b3a0e03 	bleq	e83f60 <__bss_end+0xe809ac>
     750:	13490b3b 	movtne	r0, #39739	; 0x9b3b
     754:	00000a38 	andeq	r0, r0, r8, lsr sl
     758:	03000d07 	movweq	r0, #3335	; 0xd07
     75c:	3b0b3a08 	blcc	2cef84 <__bss_end+0x2cb9d0>
     760:	3813490b 	ldmdacc	r3, {r0, r1, r3, r8, fp, lr}
     764:	0800000a 	stmdaeq	r0, {r1, r3}
     768:	0c3f012e 	ldfeqs	f0, [pc], #-184	; 6b8 <io_init_low+0xc>
     76c:	0b3a0e03 	bleq	e83f80 <__bss_end+0xe809cc>
     770:	0c270b3b 	stceq	11, cr0, [r7], #-236	; 0xffffff14
     774:	01120111 	tsteq	r2, r1, lsl r1
     778:	13010a40 	movwne	r0, #6720	; 0x1a40
     77c:	05090000 	streq	r0, [r9, #-0]
     780:	3a0e0300 	bcc	381388 <__bss_end+0x37ddd4>
     784:	490b3b0b 	stmdbmi	fp, {r0, r1, r3, r8, r9, fp, ip, sp}
     788:	000a0213 	andeq	r0, sl, r3, lsl r2
     78c:	000f0a00 	andeq	r0, pc, r0, lsl #20
     790:	13490b0b 	movtne	r0, #39691	; 0x9b0b
     794:	2e0b0000 	cdpcs	0, 0, cr0, cr11, cr0, {0}
     798:	030c3f01 	movweq	r3, #52993	; 0xcf01
     79c:	3b0b3a0e 	blcc	2cefdc <__bss_end+0x2cba28>
     7a0:	110c270b 	tstne	ip, fp, lsl #14
     7a4:	40011201 	andmi	r1, r1, r1, lsl #4
     7a8:	0000000a 	andeq	r0, r0, sl
     7ac:	10001101 	andne	r1, r0, r1, lsl #2
     7b0:	12011106 	andne	r1, r1, #-2147483647	; 0x80000001
     7b4:	1b080301 	blne	2013c0 <__bss_end+0x1fde0c>
     7b8:	13082508 	movwne	r2, #34056	; 0x8508
     7bc:	00000005 	andeq	r0, r0, r5
     7c0:	25011101 	strcs	r1, [r1, #-257]	; 0x101
     7c4:	030b130e 	movweq	r1, #45838	; 0xb30e
     7c8:	110e1b0e 	tstne	lr, lr, lsl #22
     7cc:	10011201 	andne	r1, r1, r1, lsl #4
     7d0:	02000006 	andeq	r0, r0, #6
     7d4:	0b0b0024 	bleq	2c086c <__bss_end+0x2bd2b8>
     7d8:	0e030b3e 	vmoveq.16	d3[0], r0
     7dc:	24030000 	strcs	r0, [r3], #-0
     7e0:	3e0b0b00 	vmlacc.f64	d0, d11, d0
     7e4:	0008030b 	andeq	r0, r8, fp, lsl #6
     7e8:	00160400 	andseq	r0, r6, r0, lsl #8
     7ec:	0b3a0e03 	bleq	e84000 <__bss_end+0xe80a4c>
     7f0:	13490b3b 	movtne	r0, #39739	; 0x9b3b
     7f4:	13050000 	movwne	r0, #20480	; 0x5000
     7f8:	0b0e0301 	bleq	381404 <__bss_end+0x37de50>
     7fc:	3b0b3a0b 	blcc	2cf030 <__bss_end+0x2cba7c>
     800:	0013010b 	andseq	r0, r3, fp, lsl #2
     804:	000d0600 	andeq	r0, sp, r0, lsl #12
     808:	0b3a0e03 	bleq	e8401c <__bss_end+0xe80a68>
     80c:	13490b3b 	movtne	r0, #39739	; 0x9b3b
     810:	00000a38 	andeq	r0, r0, r8, lsr sl
     814:	03000d07 	movweq	r0, #3335	; 0xd07
     818:	3b0b3a08 	blcc	2cf040 <__bss_end+0x2cba8c>
     81c:	3813490b 	ldmdacc	r3, {r0, r1, r3, r8, fp, lr}
     820:	0800000a 	stmdaeq	r0, {r1, r3}
     824:	0e030104 	adfeqs	f0, f3, f4
     828:	0b3a0b0b 	bleq	e8345c <__bss_end+0xe7fea8>
     82c:	13010b3b 	movwne	r0, #6971	; 0x1b3b
     830:	28090000 	stmdacs	r9, {}	; <UNPREDICTABLE>
     834:	1c0e0300 	stcne	3, cr0, [lr], {-0}
     838:	0a00000d 	beq	874 <init_event_counter>
     83c:	0c3f012e 	ldfeqs	f0, [pc], #-184	; 78c <change_runtime_env+0x8>
     840:	0b3a0e03 	bleq	e84054 <__bss_end+0xe80aa0>
     844:	0c270b3b 	stceq	11, cr0, [r7], #-236	; 0xffffff14
     848:	01120111 	tsteq	r2, r1, lsl r1
     84c:	13010a40 	movwne	r0, #6720	; 0x1a40
     850:	050b0000 	streq	r0, [fp, #-0]
     854:	3a0e0300 	bcc	38145c <__bss_end+0x37dea8>
     858:	490b3b0b 	stmdbmi	fp, {r0, r1, r3, r8, r9, fp, ip, sp}
     85c:	000a0213 	andeq	r0, sl, r3, lsl r2
     860:	000f0c00 	andeq	r0, pc, r0, lsl #24
     864:	13490b0b 	movtne	r0, #39691	; 0x9b0b
     868:	2e0d0000 	cdpcs	0, 0, cr0, cr13, cr0, {0}
     86c:	030c3f01 	movweq	r3, #52993	; 0xcf01
     870:	3b0b3a0e 	blcc	2cf0b0 <__bss_end+0x2cbafc>
     874:	110c2705 	tstne	ip, r5, lsl #14
     878:	40011201 	andmi	r1, r1, r1, lsl #4
     87c:	0013010a 	andseq	r0, r3, sl, lsl #2
     880:	00050e00 	andeq	r0, r5, r0, lsl #28
     884:	0b3a0e03 	bleq	e84098 <__bss_end+0xe80ae4>
     888:	1349053b 	movtne	r0, #38203	; 0x953b
     88c:	00000a02 	andeq	r0, r0, r2, lsl #20
     890:	0300340f 	movweq	r3, #1039	; 0x40f
     894:	3b0b3a08 	blcc	2cf0bc <__bss_end+0x2cbb08>
     898:	02134905 	andseq	r4, r3, #81920	; 0x14000
     89c:	10000006 	andne	r0, r0, r6
     8a0:	0e030034 	mcreq	0, 0, r0, cr3, cr4, {1}
     8a4:	053b0b3a 	ldreq	r0, [fp, #-2874]!	; 0xb3a
     8a8:	00001349 	andeq	r1, r0, r9, asr #6
     8ac:	3f002e11 	svccc	0x00002e11
     8b0:	3a0e030c 	bcc	3814e8 <__bss_end+0x37df34>
     8b4:	27053b0b 	strcs	r3, [r5, -fp, lsl #22]
     8b8:	1201110c 	andne	r1, r1, #3
     8bc:	000a4001 	andeq	r4, sl, r1
     8c0:	00341200 	eorseq	r1, r4, r0, lsl #4
     8c4:	0b3a0e03 	bleq	e840d8 <__bss_end+0xe80b24>
     8c8:	13490b3b 	movtne	r0, #39739	; 0x9b3b
     8cc:	00000a02 	andeq	r0, r0, r2, lsl #20
     8d0:	03003413 	movweq	r3, #1043	; 0x413
     8d4:	3b0b3a0e 	blcc	2cf114 <__bss_end+0x2cbb60>
     8d8:	0013490b 	andseq	r4, r3, fp, lsl #18
     8dc:	00261400 	eoreq	r1, r6, r0, lsl #8
     8e0:	00001349 	andeq	r1, r0, r9, asr #6
     8e4:	49010115 	stmdbmi	r1, {r0, r2, r4, r8}
     8e8:	00130113 	andseq	r0, r3, r3, lsl r1
     8ec:	00211600 	eoreq	r1, r1, r0, lsl #12
     8f0:	0b2f1349 	bleq	bc561c <__bss_end+0xbc2068>
     8f4:	34170000 	ldrcc	r0, [r7], #-0
     8f8:	3a0e0300 	bcc	381500 <__bss_end+0x37df4c>
     8fc:	490b3b0b 	stmdbmi	fp, {r0, r1, r3, r8, r9, fp, ip, sp}
     900:	020c3f13 	andeq	r3, ip, #76	; 0x4c
     904:	0000000a 	andeq	r0, r0, sl
     908:	25011101 	strcs	r1, [r1, #-257]	; 0x101
     90c:	030b130e 	movweq	r1, #45838	; 0xb30e
     910:	110e1b0e 	tstne	lr, lr, lsl #22
     914:	10011201 	andne	r1, r1, r1, lsl #4
     918:	02000006 	andeq	r0, r0, #6
     91c:	0b0b0024 	bleq	2c09b4 <__bss_end+0x2bd400>
     920:	0e030b3e 	vmoveq.16	d3[0], r0
     924:	16030000 	strne	r0, [r3], -r0
     928:	3a0e0300 	bcc	381530 <__bss_end+0x37df7c>
     92c:	490b3b0b 	stmdbmi	fp, {r0, r1, r3, r8, r9, fp, ip, sp}
     930:	04000013 	streq	r0, [r0], #-19
     934:	0b0b0024 	bleq	2c09cc <__bss_end+0x2bd418>
     938:	08030b3e 	stmdaeq	r3, {r1, r2, r3, r4, r5, r8, r9, fp}
     93c:	13050000 	movwne	r0, #20480	; 0x5000
     940:	3a0b0b01 	bcc	2c354c <__bss_end+0x2bff98>
     944:	010b3b0b 	tsteq	fp, fp, lsl #22
     948:	06000013 			; <UNDEFINED> instruction: 0x06000013
     94c:	0e03000d 	cdpeq	0, 0, cr0, cr3, cr13, {0}
     950:	0b3b0b3a 	bleq	ec3640 <__bss_end+0xec008c>
     954:	0b0b1349 	bleq	2c5680 <__bss_end+0x2c20cc>
     958:	0b0c0b0d 	bleq	303594 <__bss_end+0x2fffe0>
     95c:	00000a38 	andeq	r0, r0, r8, lsr sl
     960:	0b011707 	bleq	46584 <__bss_end+0x42fd0>
     964:	3b0b3a0b 	blcc	2cf198 <__bss_end+0x2cbbe4>
     968:	0013010b 	andseq	r0, r3, fp, lsl #2
     96c:	000d0800 	andeq	r0, sp, r0, lsl #16
     970:	0b3a0e03 	bleq	e84184 <__bss_end+0xe80bd0>
     974:	13490b3b 	movtne	r0, #39739	; 0x9b3b
     978:	13090000 	movwne	r0, #36864	; 0x9000
     97c:	0b0e0301 	bleq	381588 <__bss_end+0x37dfd4>
     980:	3b0b3a0b 	blcc	2cf1b4 <__bss_end+0x2cbc00>
     984:	0013010b 	andseq	r0, r3, fp, lsl #2
     988:	01130a00 	tsteq	r3, r0, lsl #20
     98c:	050b0e03 	streq	r0, [fp, #-3587]	; 0xe03
     990:	0b3b0b3a 	bleq	ec3680 <__bss_end+0xec00cc>
     994:	00001301 	andeq	r1, r0, r1, lsl #6
     998:	03000d0b 	movweq	r0, #3339	; 0xd0b
     99c:	3b0b3a0e 	blcc	2cf1dc <__bss_end+0x2cbc28>
     9a0:	3813490b 	ldmdacc	r3, {r0, r1, r3, r8, fp, lr}
     9a4:	0c00000a 	stceq	0, cr0, [r0], {10}
     9a8:	0803000d 	stmdaeq	r3, {r0, r2, r3}
     9ac:	0b3b0b3a 	bleq	ec369c <__bss_end+0xec00e8>
     9b0:	0a381349 	beq	e056dc <__bss_end+0xe02128>
     9b4:	350d0000 	strcc	r0, [sp, #-0]
     9b8:	00134900 	andseq	r4, r3, r0, lsl #18
     9bc:	01010e00 	tsteq	r1, r0, lsl #28
     9c0:	13011349 	movwne	r1, #4937	; 0x1349
     9c4:	210f0000 	mrscs	r0, CPSR
     9c8:	2f134900 	svccs	0x00134900
     9cc:	1000000b 	andne	r0, r0, fp
     9d0:	0b0b000f 	bleq	2c0a14 <__bss_end+0x2bd460>
     9d4:	00001349 	andeq	r1, r0, r9, asr #6
     9d8:	03010411 	movweq	r0, #5137	; 0x1411
     9dc:	3a0b0b0e 	bcc	2c361c <__bss_end+0x2c0068>
     9e0:	010b3b0b 	tsteq	fp, fp, lsl #22
     9e4:	12000013 	andne	r0, r0, #19
     9e8:	0e030028 	cdpeq	0, 0, cr0, cr3, cr8, {1}
     9ec:	00000d1c 	andeq	r0, r0, ip, lsl sp
     9f0:	03012e13 	movweq	r2, #7699	; 0x1e13
     9f4:	3b0b3a0e 	blcc	2cf234 <__bss_end+0x2cbc80>
     9f8:	490c270b 	stmdbmi	ip, {r0, r1, r3, r8, r9, sl, sp}
     9fc:	010b2013 	tsteq	fp, r3, lsl r0
     a00:	14000013 	strne	r0, [r0], #-19
     a04:	0e030005 	cdpeq	0, 0, cr0, cr3, cr5, {0}
     a08:	0b3b0b3a 	bleq	ec36f8 <__bss_end+0xec0144>
     a0c:	00001349 	andeq	r1, r0, r9, asr #6
     a10:	03003415 	movweq	r3, #1045	; 0x415
     a14:	3b0b3a0e 	blcc	2cf254 <__bss_end+0x2cbca0>
     a18:	0013490b 	andseq	r4, r3, fp, lsl #18
     a1c:	00341600 	eorseq	r1, r4, r0, lsl #12
     a20:	0b3a0803 	bleq	e82a34 <__bss_end+0xe7f480>
     a24:	13490b3b 	movtne	r0, #39739	; 0x9b3b
     a28:	2e170000 	cdpcs	0, 1, cr0, cr7, cr0, {0}
     a2c:	3a0e0301 	bcc	381638 <__bss_end+0x37e084>
     a30:	27053b0b 	strcs	r3, [r5, -fp, lsl #22]
     a34:	010b200c 	tsteq	fp, ip
     a38:	18000013 	stmdane	r0, {r0, r1, r4}
     a3c:	08030005 	stmdaeq	r3, {r0, r2}
     a40:	053b0b3a 	ldreq	r0, [fp, #-2874]!	; 0xb3a
     a44:	00001349 	andeq	r1, r0, r9, asr #6
     a48:	03012e19 	movweq	r2, #7705	; 0x1e19
     a4c:	3b0b3a0e 	blcc	2cf28c <__bss_end+0x2cbcd8>
     a50:	490c2705 	stmdbmi	ip, {r0, r2, r8, r9, sl, sp}
     a54:	010b2013 	tsteq	fp, r3, lsl r0
     a58:	1a000013 	bne	aac <inv_finished+0xc>
     a5c:	0e030034 	mcreq	0, 0, r0, cr3, cr4, {1}
     a60:	053b0b3a 	ldreq	r0, [fp, #-2874]!	; 0xb3a
     a64:	00001349 	andeq	r1, r0, r9, asr #6
     a68:	3f002e1b 	svccc	0x00002e1b
     a6c:	3a0e030c 	bcc	3816a4 <__bss_end+0x37e0f0>
     a70:	27053b0b 	strcs	r3, [r5, -fp, lsl #22]
     a74:	000b200c 	andeq	r2, fp, ip
     a78:	012e1c00 	teqeq	lr, r0, lsl #24
     a7c:	0b3a0e03 	bleq	e84290 <__bss_end+0xe80cdc>
     a80:	0c270b3b 	stceq	11, cr0, [r7], #-236	; 0xffffff14
     a84:	01120111 	tsteq	r2, r1, lsl r1
     a88:	13010640 	movwne	r0, #5696	; 0x1640
     a8c:	051d0000 	ldreq	r0, [sp, #-0]
     a90:	3a0e0300 	bcc	381698 <__bss_end+0x37e0e4>
     a94:	490b3b0b 	stmdbmi	fp, {r0, r1, r3, r8, r9, fp, ip, sp}
     a98:	00060213 	andeq	r0, r6, r3, lsl r2
     a9c:	00341e00 	eorseq	r1, r4, r0, lsl #28
     aa0:	0b3a0803 	bleq	e82ab4 <__bss_end+0xe7f500>
     aa4:	13490b3b 	movtne	r0, #39739	; 0x9b3b
     aa8:	00000b1c 	andeq	r0, r0, ip, lsl fp
     aac:	0300341f 	movweq	r3, #1055	; 0x41f
     ab0:	3b0b3a08 	blcc	2cf2d8 <__bss_end+0x2cbd24>
     ab4:	0213490b 	andseq	r4, r3, #180224	; 0x2c000
     ab8:	20000006 	andcs	r0, r0, r6
     abc:	0e030034 	mcreq	0, 0, r0, cr3, cr4, {1}
     ac0:	0b3b0b3a 	bleq	ec37b0 <__bss_end+0xec01fc>
     ac4:	06021349 	streq	r1, [r2], -r9, asr #6
     ac8:	2e210000 	cdpcs	0, 2, cr0, cr1, cr0, {0}
     acc:	11133101 	tstne	r3, r1, lsl #2
     ad0:	40011201 	andmi	r1, r1, r1, lsl #4
     ad4:	00130106 	andseq	r0, r3, r6, lsl #2
     ad8:	00052200 	andeq	r2, r5, r0, lsl #4
     adc:	06021331 			; <UNDEFINED> instruction: 0x06021331
     ae0:	34230000 	strtcc	r0, [r3], #-0
     ae4:	02133100 	andseq	r3, r3, #0
     ae8:	24000006 	strcs	r0, [r0], #-6
     aec:	13310034 	teqne	r1, #52	; 0x34
     af0:	00000b1c 	andeq	r0, r0, ip, lsl fp
     af4:	31011d25 	tstcc	r1, r5, lsr #26
     af8:	55015213 	strpl	r5, [r1, #-531]	; 0x213
     afc:	590b5806 	stmdbpl	fp, {r1, r2, fp, ip, lr}
     b00:	2600000b 	strcs	r0, [r0], -fp
     b04:	0655010b 	ldrbeq	r0, [r5], -fp, lsl #2
     b08:	34270000 	strtcc	r0, [r7], #-0
     b0c:	00133100 	andseq	r3, r3, r0, lsl #2
     b10:	00342800 	eorseq	r2, r4, r0, lsl #16
     b14:	0d1c1331 	ldceq	3, cr1, [ip, #-196]	; 0xffffff3c
     b18:	05290000 	streq	r0, [r9, #-0]!
     b1c:	00133100 	andseq	r3, r3, r0, lsl #2
     b20:	012e2a00 	teqeq	lr, r0, lsl #20
     b24:	0e030c3f 	mcreq	12, 0, r0, cr3, cr15, {1}
     b28:	053b0b3a 	ldreq	r0, [fp, #-2874]!	; 0xb3a
     b2c:	01110c27 	tsteq	r1, r7, lsr #24
     b30:	0a400112 	beq	1000f80 <__bss_end+0xffd9cc>
     b34:	00001301 	andeq	r1, r0, r1, lsl #6
     b38:	31001d2b 	tstcc	r0, fp, lsr #26
     b3c:	12011113 	andne	r1, r1, #-1073741820	; 0xc0000004
     b40:	590b5801 	stmdbpl	fp, {r0, fp, ip, lr}
     b44:	2c000005 	stccs	0, cr0, [r0], {5}
     b48:	0c3f012e 	ldfeqs	f0, [pc], #-184	; a98 <inv_skip+0x4>
     b4c:	0b3a0e03 	bleq	e84360 <__bss_end+0xe80dac>
     b50:	0c27053b 	cfstr32eq	mvfx0, [r7], #-236	; 0xffffff14
     b54:	01120111 	tsteq	r2, r1, lsl r1
     b58:	13010640 	movwne	r0, #5696	; 0x1640
     b5c:	052d0000 	streq	r0, [sp, #-0]!
     b60:	3a0e0300 	bcc	381768 <__bss_end+0x37e1b4>
     b64:	49053b0b 	stmdbmi	r5, {r0, r1, r3, r8, r9, fp, ip, sp}
     b68:	00060213 	andeq	r0, r6, r3, lsl r2
     b6c:	00342e00 	eorseq	r2, r4, r0, lsl #28
     b70:	0b3a0803 	bleq	e82b84 <__bss_end+0xe7f5d0>
     b74:	1349053b 	movtne	r0, #38203	; 0x953b
     b78:	00000602 	andeq	r0, r0, r2, lsl #12
     b7c:	0300342f 	movweq	r3, #1071	; 0x42f
     b80:	3b0b3a0e 	blcc	2cf3c0 <__bss_end+0x2cbe0c>
     b84:	02134905 	andseq	r4, r3, #81920	; 0x14000
     b88:	30000006 	andcc	r0, r0, r6
     b8c:	1331001d 	teqne	r1, #29
     b90:	06550152 			; <UNDEFINED> instruction: 0x06550152
     b94:	05590b58 	ldrbeq	r0, [r9, #-2904]	; 0xb58
     b98:	2e310000 	cdpcs	0, 3, cr0, cr1, cr0, {0}
     b9c:	030c3f01 	movweq	r3, #52993	; 0xcf01
     ba0:	3b0b3a0e 	blcc	2cf3e0 <__bss_end+0x2cbe2c>
     ba4:	490c2705 	stmdbmi	ip, {r0, r2, r8, r9, sl, sp}
     ba8:	12011113 	andne	r1, r1, #-1073741820	; 0xc0000004
     bac:	01064001 	tsteq	r6, r1
     bb0:	32000013 	andcc	r0, r0, #19
     bb4:	1331011d 	teqne	r1, #1073741831	; 0x40000007
     bb8:	06550152 			; <UNDEFINED> instruction: 0x06550152
     bbc:	05590b58 	ldrbeq	r0, [r9, #-2904]	; 0xb58
     bc0:	00001301 	andeq	r1, r0, r1, lsl #6
     bc4:	31011d33 	tstcc	r1, r3, lsr sp
     bc8:	12011113 	andne	r1, r1, #-1073741820	; 0xc0000004
     bcc:	590b5801 	stmdbpl	fp, {r0, fp, ip, lr}
     bd0:	34000005 	strcc	r0, [r0], #-5
     bd4:	13490026 	movtne	r0, #36902	; 0x9026
     bd8:	05350000 	ldreq	r0, [r5, #-0]!
     bdc:	3a080300 	bcc	2017e4 <__bss_end+0x1fe230>
     be0:	49053b0b 	stmdbmi	r5, {r0, r1, r3, r8, r9, fp, ip, sp}
     be4:	00060213 	andeq	r0, r6, r3, lsl r2
     be8:	00053600 	andeq	r3, r5, r0, lsl #12
     bec:	0b3a0803 	bleq	e82c00 <__bss_end+0xe7f64c>
     bf0:	1349053b 	movtne	r0, #38203	; 0x953b
     bf4:	00000a02 	andeq	r0, r0, r2, lsl #20
     bf8:	31011d37 	tstcc	r1, r7, lsr sp
     bfc:	55015213 	strpl	r5, [r1, #-531]	; 0x213
     c00:	590b5806 	stmdbpl	fp, {r1, r2, fp, ip, lr}
     c04:	38000005 	stmdacc	r0, {r0, r2}
     c08:	1331002e 	teqne	r1, #46	; 0x2e
     c0c:	01120111 	tsteq	r2, r1, lsl r1
     c10:	00000a40 	andeq	r0, r0, r0, asr #20
     c14:	03003439 	movweq	r3, #1081	; 0x439
     c18:	3b0b3a0e 	blcc	2cf458 <__bss_end+0x2cbea4>
     c1c:	0213490b 	andseq	r4, r3, #180224	; 0x2c000
     c20:	0000000a 	andeq	r0, r0, sl
     c24:	25011101 	strcs	r1, [r1, #-257]	; 0x101
     c28:	030b130e 	movweq	r1, #45838	; 0xb30e
     c2c:	110e1b0e 	tstne	lr, lr, lsl #22
     c30:	10011201 	andne	r1, r1, r1, lsl #4
     c34:	02000006 	andeq	r0, r0, #6
     c38:	0b0b0024 	bleq	2c0cd0 <__bss_end+0x2bd71c>
     c3c:	0e030b3e 	vmoveq.16	d3[0], r0
     c40:	16030000 	strne	r0, [r3], -r0
     c44:	3a0e0300 	bcc	38184c <__bss_end+0x37e298>
     c48:	490b3b0b 	stmdbmi	fp, {r0, r1, r3, r8, r9, fp, ip, sp}
     c4c:	04000013 	streq	r0, [r0], #-19
     c50:	0b0b0024 	bleq	2c0ce8 <__bss_end+0x2bd734>
     c54:	08030b3e 	stmdaeq	r3, {r1, r2, r3, r4, r5, r8, r9, fp}
     c58:	04050000 	streq	r0, [r5], #-0
     c5c:	0b0e0301 	bleq	381868 <__bss_end+0x37e2b4>
     c60:	3b0b3a0b 	blcc	2cf494 <__bss_end+0x2cbee0>
     c64:	0013010b 	andseq	r0, r3, fp, lsl #2
     c68:	00280600 	eoreq	r0, r8, r0, lsl #12
     c6c:	0d1c0e03 	ldceq	14, cr0, [ip, #-12]
     c70:	0f070000 	svceq	0x00070000
     c74:	000b0b00 	andeq	r0, fp, r0, lsl #22
     c78:	01130800 	tsteq	r3, r0, lsl #16
     c7c:	0b0b0e03 	bleq	2c4490 <__bss_end+0x2c0edc>
     c80:	0b3b0b3a 	bleq	ec3970 <__bss_end+0xec03bc>
     c84:	00001301 	andeq	r1, r0, r1, lsl #6
     c88:	03000d09 	movweq	r0, #3337	; 0xd09
     c8c:	3813490e 	ldmdacc	r3, {r1, r2, r3, r8, fp, lr}
     c90:	000c340a 	andeq	r3, ip, sl, lsl #8
     c94:	012e0a00 	teqeq	lr, r0, lsl #20
     c98:	0b3a0e03 	bleq	e844ac <__bss_end+0xe80ef8>
     c9c:	0c270b3b 	stceq	11, cr0, [r7], #-236	; 0xffffff14
     ca0:	0b201349 	bleq	8059cc <__bss_end+0x802418>
     ca4:	00001301 	andeq	r1, r0, r1, lsl #6
     ca8:	0300050b 	movweq	r0, #1291	; 0x50b
     cac:	3b0b3a0e 	blcc	2cf4ec <__bss_end+0x2cbf38>
     cb0:	0013490b 	andseq	r4, r3, fp, lsl #18
     cb4:	00050c00 	andeq	r0, r5, r0, lsl #24
     cb8:	0b3a0803 	bleq	e82ccc <__bss_end+0xe7f718>
     cbc:	13490b3b 	movtne	r0, #39739	; 0x9b3b
     cc0:	340d0000 	strcc	r0, [sp], #-0
     cc4:	3a080300 	bcc	2018cc <__bss_end+0x1fe318>
     cc8:	490b3b0b 	stmdbmi	fp, {r0, r1, r3, r8, r9, fp, ip, sp}
     ccc:	0e000013 	mcreq	0, 0, r0, cr0, cr3, {0}
     cd0:	0b0b000f 	bleq	2c0d14 <__bss_end+0x2bd760>
     cd4:	00001349 	andeq	r1, r0, r9, asr #6
     cd8:	4900260f 	stmdbmi	r0, {r0, r1, r2, r3, r9, sl, sp}
     cdc:	10000013 	andne	r0, r0, r3, lsl r0
     ce0:	0e030034 	mcreq	0, 0, r0, cr3, cr4, {1}
     ce4:	0b3b0b3a 	bleq	ec39d4 <__bss_end+0xec0420>
     ce8:	00001349 	andeq	r1, r0, r9, asr #6
     cec:	49010111 	stmdbmi	r1, {r0, r4, r8}
     cf0:	00130113 	andseq	r0, r3, r3, lsl r1
     cf4:	00211200 	eoreq	r1, r1, r0, lsl #4
     cf8:	0b2f1349 	bleq	bc5a24 <__bss_end+0xbc2470>
     cfc:	2e130000 	cdpcs	0, 1, cr0, cr3, cr0, {0}
     d00:	3a0e0301 	bcc	38190c <__bss_end+0x37e358>
     d04:	270b3b0b 	strcs	r3, [fp, -fp, lsl #22]
     d08:	1113490c 	tstne	r3, ip, lsl #18
     d0c:	40011201 	andmi	r1, r1, r1, lsl #4
     d10:	00130106 	andseq	r0, r3, r6, lsl #2
     d14:	00051400 	andeq	r1, r5, r0, lsl #8
     d18:	0b3a0e03 	bleq	e8452c <__bss_end+0xe80f78>
     d1c:	13490b3b 	movtne	r0, #39739	; 0x9b3b
     d20:	00000602 	andeq	r0, r0, r2, lsl #12
     d24:	03003415 	movweq	r3, #1045	; 0x415
     d28:	3b0b3a0e 	blcc	2cf568 <__bss_end+0x2cbfb4>
     d2c:	0213490b 	andseq	r4, r3, #180224	; 0x2c000
     d30:	1600000a 	strne	r0, [r0], -sl
     d34:	08030034 	stmdaeq	r3, {r2, r4, r5}
     d38:	0b3b0b3a 	bleq	ec3a28 <__bss_end+0xec0474>
     d3c:	06021349 	streq	r1, [r2], -r9, asr #6
     d40:	2e170000 	cdpcs	0, 1, cr0, cr7, cr0, {0}
     d44:	3a0e0301 	bcc	381950 <__bss_end+0x37e39c>
     d48:	27053b0b 	strcs	r3, [r5, -fp, lsl #22]
     d4c:	1113490c 	tstne	r3, ip, lsl #18
     d50:	40011201 	andmi	r1, r1, r1, lsl #4
     d54:	00130106 	andseq	r0, r3, r6, lsl #2
     d58:	00051800 	andeq	r1, r5, r0, lsl #16
     d5c:	0b3a0e03 	bleq	e84570 <__bss_end+0xe80fbc>
     d60:	1349053b 	movtne	r0, #38203	; 0x953b
     d64:	00000602 	andeq	r0, r0, r2, lsl #12
     d68:	03000519 	movweq	r0, #1305	; 0x519
     d6c:	3b0b3a08 	blcc	2cf594 <__bss_end+0x2cbfe0>
     d70:	02134905 	andseq	r4, r3, #81920	; 0x14000
     d74:	1a000006 	bne	d94 <mem_preload_tlb+0xe4>
     d78:	0e030034 	mcreq	0, 0, r0, cr3, cr4, {1}
     d7c:	053b0b3a 	ldreq	r0, [fp, #-2874]!	; 0xb3a
     d80:	0a021349 	beq	85aac <__bss_end+0x824f8>
     d84:	1d1b0000 	ldcne	0, cr0, [fp, #-0]
     d88:	52133101 	andspl	r3, r3, #1073741824	; 0x40000000
     d8c:	58065501 	stmdapl	r6, {r0, r8, sl, ip, lr}
     d90:	0005590b 	andeq	r5, r5, fp, lsl #18
     d94:	00051c00 	andeq	r1, r5, r0, lsl #24
     d98:	06021331 			; <UNDEFINED> instruction: 0x06021331
     d9c:	0b1d0000 	bleq	740da4 <__bss_end+0x73d7f0>
     da0:	00065501 	andeq	r5, r6, r1, lsl #10
     da4:	00341e00 	eorseq	r1, r4, r0, lsl #28
     da8:	06021331 			; <UNDEFINED> instruction: 0x06021331
     dac:	2e1f0000 	cdpcs	0, 1, cr0, cr15, cr0, {0}
     db0:	11133101 	tstne	r3, r1, lsl #2
     db4:	40011201 	andmi	r1, r1, r1, lsl #4
     db8:	00130106 	andseq	r0, r3, r6, lsl #2
     dbc:	00342000 	eorseq	r2, r4, r0
     dc0:	0a021331 	beq	85a8c <__bss_end+0x824d8>
     dc4:	05210000 	streq	r0, [r1, #-0]!
     dc8:	1c133100 	ldfnes	f3, [r3], {-0}
     dcc:	2200000b 	andcs	r0, r0, #11
     dd0:	0c3f012e 	ldfeqs	f0, [pc], #-184	; d20 <mem_preload_tlb+0x70>
     dd4:	0b3a0e03 	bleq	e845e8 <__bss_end+0xe81034>
     dd8:	0c27053b 	cfstr32eq	mvfx0, [r7], #-236	; 0xffffff14
     ddc:	01111349 	tsteq	r1, r9, asr #6
     de0:	06400112 			; <UNDEFINED> instruction: 0x06400112
     de4:	00001301 	andeq	r1, r0, r1, lsl #6
     de8:	00001823 	andeq	r1, r0, r3, lsr #16
     dec:	00342400 	eorseq	r2, r4, r0, lsl #8
     df0:	0b3a0e03 	bleq	e84604 <__bss_end+0xe81050>
     df4:	1349053b 	movtne	r0, #38203	; 0x953b
     df8:	00000602 	andeq	r0, r0, r2, lsl #12
     dfc:	03003425 	movweq	r3, #1061	; 0x425
     e00:	3b0b3a08 	blcc	2cf628 <__bss_end+0x2cc074>
     e04:	02134905 	andseq	r4, r3, #81920	; 0x14000
     e08:	26000006 	strcs	r0, [r0], -r6
     e0c:	1331011d 	teqne	r1, #1073741831	; 0x40000007
     e10:	01120111 	tsteq	r2, r1, lsl r1
     e14:	05590b58 	ldrbeq	r0, [r9, #-2904]	; 0xb58
     e18:	00001301 	andeq	r1, r0, r1, lsl #6
     e1c:	11010b27 	tstne	r1, r7, lsr #22
     e20:	00011201 	andeq	r1, r1, r1, lsl #4
     e24:	00052800 	andeq	r2, r5, r0, lsl #16
     e28:	00001331 	andeq	r1, r0, r1, lsr r3
     e2c:	31000529 	tstcc	r0, r9, lsr #10
     e30:	000a0213 	andeq	r0, sl, r3, lsl r2
     e34:	011d2a00 	tsteq	sp, r0, lsl #20
     e38:	01111331 	tsteq	r1, r1, lsr r3
     e3c:	0b580112 	bleq	160128c <__bss_end+0x15fdcd8>
     e40:	00000559 	andeq	r0, r0, r9, asr r5
     e44:	00110100 	andseq	r0, r1, r0, lsl #2
     e48:	01110610 	tsteq	r1, r0, lsl r6
     e4c:	08030112 	stmdaeq	r3, {r1, r4, r8}
     e50:	0825081b 	stmdaeq	r5!, {r0, r1, r3, r4, fp}
     e54:	00000513 	andeq	r0, r0, r3, lsl r5
     e58:	01110100 	tsteq	r1, r0, lsl #2
     e5c:	0b130e25 	bleq	4c46f8 <__bss_end+0x4c1144>
     e60:	0e1b0e03 	cdpeq	14, 1, cr0, cr11, cr3, {0}
     e64:	01120111 	tsteq	r2, r1, lsl r1
     e68:	00000610 	andeq	r0, r0, r0, lsl r6
     e6c:	0b002402 	bleq	9e7c <__bss_end+0x68c8>
     e70:	030b3e0b 	movweq	r3, #48651	; 0xbe0b
     e74:	0300000e 	movweq	r0, #14
     e78:	0e030016 	mcreq	0, 0, r0, cr3, cr6, {0}
     e7c:	0b3b0b3a 	bleq	ec3b6c <__bss_end+0xec05b8>
     e80:	00001349 	andeq	r1, r0, r9, asr #6
     e84:	0b002404 	bleq	9e9c <__bss_end+0x68e8>
     e88:	030b3e0b 	movweq	r3, #48651	; 0xbe0b
     e8c:	05000008 	streq	r0, [r0, #-8]
     e90:	0c3f002e 	ldceq	0, cr0, [pc], #-184	; de0 <__turn_mmu_off>
     e94:	0b3a0e03 	bleq	e846a8 <__bss_end+0xe810f4>
     e98:	0c270b3b 	stceq	11, cr0, [r7], #-236	; 0xffffff14
     e9c:	01120111 	tsteq	r2, r1, lsl r1
     ea0:	00000a40 	andeq	r0, r0, r0, asr #20
     ea4:	3f012e06 	svccc	0x00012e06
     ea8:	3a0e030c 	bcc	381ae0 <__bss_end+0x37e52c>
     eac:	270b3b0b 	strcs	r3, [fp, -fp, lsl #22]
     eb0:	1113490c 	tstne	r3, ip, lsl #18
     eb4:	40011201 	andmi	r1, r1, r1, lsl #4
     eb8:	0700000a 	streq	r0, [r0, -sl]
     ebc:	0e030005 	cdpeq	0, 0, cr0, cr3, cr5, {0}
     ec0:	0b3b0b3a 	bleq	ec3bb0 <__bss_end+0xec05fc>
     ec4:	06021349 	streq	r1, [r2], -r9, asr #6
     ec8:	34080000 	strcc	r0, [r8], #-0
     ecc:	3a0e0300 	bcc	381ad4 <__bss_end+0x37e520>
     ed0:	490b3b0b 	stmdbmi	fp, {r0, r1, r3, r8, r9, fp, ip, sp}
     ed4:	00060213 	andeq	r0, r6, r3, lsl r2
     ed8:	11010000 	mrsne	r0, (UNDEF: 1)
     edc:	130e2501 	movwne	r2, #58625	; 0xe501
     ee0:	1b0e030b 	blne	381b14 <__bss_end+0x37e560>
     ee4:	1201110e 	andne	r1, r1, #-2147483645	; 0x80000003
     ee8:	00061001 	andeq	r1, r6, r1
     eec:	00240200 	eoreq	r0, r4, r0, lsl #4
     ef0:	0b3e0b0b 	bleq	f83b24 <__bss_end+0xf80570>
     ef4:	00000e03 	andeq	r0, r0, r3, lsl #28
     ef8:	03001603 	movweq	r1, #1539	; 0x603
     efc:	3b0b3a0e 	blcc	2cf73c <__bss_end+0x2cc188>
     f00:	0013490b 	andseq	r4, r3, fp, lsl #18
     f04:	00240400 	eoreq	r0, r4, r0, lsl #8
     f08:	0b3e0b0b 	bleq	f83b3c <__bss_end+0xf80588>
     f0c:	00000803 	andeq	r0, r0, r3, lsl #16
     f10:	49003505 	stmdbmi	r0, {r0, r2, r8, sl, ip, sp}
     f14:	06000013 			; <UNDEFINED> instruction: 0x06000013
     f18:	0e030104 	adfeqs	f0, f3, f4
     f1c:	0b3a0b0b 	bleq	e83b50 <__bss_end+0xe8059c>
     f20:	13010b3b 	movwne	r0, #6971	; 0x1b3b
     f24:	28070000 	stmdacs	r7, {}	; <UNPREDICTABLE>
     f28:	1c0e0300 	stcne	3, cr0, [lr], {-0}
     f2c:	0800000d 	stmdaeq	r0, {r0, r2, r3}
     f30:	0b0b000f 	bleq	2c0f74 <__bss_end+0x2bd9c0>
     f34:	2e090000 	cdpcs	0, 0, cr0, cr9, cr0, {0}
     f38:	030c3f01 	movweq	r3, #52993	; 0xcf01
     f3c:	3b0b3a0e 	blcc	2cf77c <__bss_end+0x2cc1c8>
     f40:	490c270b 	stmdbmi	ip, {r0, r1, r3, r8, r9, sl, sp}
     f44:	12011113 	andne	r1, r1, #-1073741820	; 0xc0000004
     f48:	01064001 	tsteq	r6, r1
     f4c:	0a000013 	beq	fa0 <__save_processor_state+0x60>
     f50:	08030034 	stmdaeq	r3, {r2, r4, r5}
     f54:	0b3b0b3a 	bleq	ec3c44 <__bss_end+0xec0690>
     f58:	06021349 	streq	r1, [r2], -r9, asr #6
     f5c:	340b0000 	strcc	r0, [fp], #-0
     f60:	3a0e0300 	bcc	381b68 <__bss_end+0x37e5b4>
     f64:	490b3b0b 	stmdbmi	fp, {r0, r1, r3, r8, r9, fp, ip, sp}
     f68:	00060213 	andeq	r0, r6, r3, lsl r2
     f6c:	012e0c00 	teqeq	lr, r0, lsl #24
     f70:	0e030c3f 	mcreq	12, 0, r0, cr3, cr15, {1}
     f74:	0b3b0b3a 	bleq	ec3c64 <__bss_end+0xec06b0>
     f78:	13490c27 	movtne	r0, #39975	; 0x9c27
     f7c:	01120111 	tsteq	r2, r1, lsl r1
     f80:	13010a40 	movwne	r0, #6720	; 0x1a40
     f84:	050d0000 	streq	r0, [sp, #-0]
     f88:	3a080300 	bcc	201b90 <__bss_end+0x1fe5dc>
     f8c:	490b3b0b 	stmdbmi	fp, {r0, r1, r3, r8, r9, fp, ip, sp}
     f90:	00060213 	andeq	r0, r6, r3, lsl r2
     f94:	00340e00 	eorseq	r0, r4, r0, lsl #28
     f98:	0b3a0e03 	bleq	e847ac <__bss_end+0xe811f8>
     f9c:	13490b3b 	movtne	r0, #39739	; 0x9b3b
     fa0:	00000a02 	andeq	r0, r0, r2, lsl #20
     fa4:	01110100 	tsteq	r1, r0, lsl #2
     fa8:	0b130e25 	bleq	4c4844 <__bss_end+0x4c1290>
     fac:	0e1b0e03 	cdpeq	14, 1, cr0, cr11, cr3, {0}
     fb0:	01120111 	tsteq	r2, r1, lsl r1
     fb4:	00000610 	andeq	r0, r0, r0, lsl r6
     fb8:	0b002402 	bleq	9fc8 <__bss_end+0x6a14>
     fbc:	030b3e0b 	movweq	r3, #48651	; 0xbe0b
     fc0:	0300000e 	movweq	r0, #14
     fc4:	0e030016 	mcreq	0, 0, r0, cr3, cr6, {0}
     fc8:	0b3b0b3a 	bleq	ec3cb8 <__bss_end+0xec0704>
     fcc:	00001349 	andeq	r1, r0, r9, asr #6
     fd0:	0b002404 	bleq	9fe8 <__bss_end+0x6a34>
     fd4:	030b3e0b 	movweq	r3, #48651	; 0xbe0b
     fd8:	05000008 	streq	r0, [r0, #-8]
     fdc:	0e030113 	mcreq	1, 0, r0, cr3, cr3, {0}
     fe0:	0b3a050b 	bleq	e82414 <__bss_end+0xe7ee60>
     fe4:	13010b3b 	movwne	r0, #6971	; 0x1b3b
     fe8:	0d060000 	stceq	0, cr0, [r6, #-0]
     fec:	3a0e0300 	bcc	381bf4 <__bss_end+0x37e640>
     ff0:	490b3b0b 	stmdbmi	fp, {r0, r1, r3, r8, r9, fp, ip, sp}
     ff4:	000a3813 	andeq	r3, sl, r3, lsl r8
     ff8:	01010700 	tsteq	r1, r0, lsl #14
     ffc:	13011349 	movwne	r1, #4937	; 0x1349
    1000:	21080000 	mrscs	r0, (UNDEF: 8)
    1004:	2f134900 	svccs	0x00134900
    1008:	0900000b 	stmdbeq	r0, {r0, r1, r3}
    100c:	0c3f012e 	ldfeqs	f0, [pc], #-184	; f5c <__save_processor_state+0x1c>
    1010:	0b3a0e03 	bleq	e84824 <__bss_end+0xe81270>
    1014:	0c270b3b 	stceq	11, cr0, [r7], #-236	; 0xffffff14
    1018:	01111349 	tsteq	r1, r9, asr #6
    101c:	0a400112 	beq	100146c <__bss_end+0xffdeb8>
    1020:	00001301 	andeq	r1, r0, r1, lsl #6
    1024:	0300050a 	movweq	r0, #1290	; 0x50a
    1028:	3b0b3a0e 	blcc	2cf868 <__bss_end+0x2cc2b4>
    102c:	0213490b 	andseq	r4, r3, #180224	; 0x2c000
    1030:	0b000006 	bleq	1050 <__save_processor_state+0x110>
    1034:	08030034 	stmdaeq	r3, {r2, r4, r5}
    1038:	0b3b0b3a 	bleq	ec3d28 <__bss_end+0xec0774>
    103c:	06021349 	streq	r1, [r2], -r9, asr #6
    1040:	0f0c0000 	svceq	0x000c0000
    1044:	490b0b00 	stmdbmi	fp, {r8, r9, fp}
    1048:	0d000013 	stceq	0, cr0, [r0, #-76]	; 0xffffffb4
    104c:	0c3f012e 	ldfeqs	f0, [pc], #-184	; f9c <__save_processor_state+0x5c>
    1050:	0b3a0e03 	bleq	e84864 <__bss_end+0xe812b0>
    1054:	0c270b3b 	stceq	11, cr0, [r7], #-236	; 0xffffff14
    1058:	01120111 	tsteq	r2, r1, lsl r1
    105c:	00000a40 	andeq	r0, r0, r0, asr #20
    1060:	0300340e 	movweq	r3, #1038	; 0x40e
    1064:	3b0b3a0e 	blcc	2cf8a4 <__bss_end+0x2cc2f0>
    1068:	0213490b 	andseq	r4, r3, #180224	; 0x2c000
    106c:	0f00000a 	svceq	0x0000000a
    1070:	0e030034 	mcreq	0, 0, r0, cr3, cr4, {1}
    1074:	0b3b0b3a 	bleq	ec3d64 <__bss_end+0xec07b0>
    1078:	06021349 	streq	r1, [r2], -r9, asr #6
    107c:	01000000 	mrseq	r0, (UNDEF: 0)
    1080:	0e250111 	mcreq	1, 1, r0, cr5, cr1, {0}
    1084:	0e030b13 	vmoveq.32	d3[0], r0
    1088:	01110e1b 	tsteq	r1, fp, lsl lr
    108c:	06100112 			; <UNDEFINED> instruction: 0x06100112
    1090:	24020000 	strcs	r0, [r2], #-0
    1094:	3e0b0b00 	vmlacc.f64	d0, d11, d0
    1098:	000e030b 	andeq	r0, lr, fp, lsl #6
    109c:	00160300 	andseq	r0, r6, r0, lsl #6
    10a0:	0b3a0e03 	bleq	e848b4 <__bss_end+0xe81300>
    10a4:	13490b3b 	movtne	r0, #39739	; 0x9b3b
    10a8:	24040000 	strcs	r0, [r4], #-0
    10ac:	3e0b0b00 	vmlacc.f64	d0, d11, d0
    10b0:	0008030b 	andeq	r0, r8, fp, lsl #6
    10b4:	00350500 	eorseq	r0, r5, r0, lsl #10
    10b8:	00001349 	andeq	r1, r0, r9, asr #6
    10bc:	49010106 	stmdbmi	r1, {r1, r2, r8}
    10c0:	00130113 	andseq	r0, r3, r3, lsl r1
    10c4:	00210700 	eoreq	r0, r1, r0, lsl #14
    10c8:	0b2f1349 	bleq	bc5df4 <__bss_end+0xbc2840>
    10cc:	13080000 	movwne	r0, #32768	; 0x8000
    10d0:	0b0e0301 	bleq	381cdc <__bss_end+0x37e728>
    10d4:	3b0b3a0b 	blcc	2cf908 <__bss_end+0x2cc354>
    10d8:	0013010b 	andseq	r0, r3, fp, lsl #2
    10dc:	000d0900 	andeq	r0, sp, r0, lsl #18
    10e0:	0b3a0e03 	bleq	e848f4 <__bss_end+0xe81340>
    10e4:	13490b3b 	movtne	r0, #39739	; 0x9b3b
    10e8:	00000a38 	andeq	r0, r0, r8, lsr sl
    10ec:	0301040a 	movweq	r0, #5130	; 0x140a
    10f0:	3a0b0b0e 	bcc	2c3d30 <__bss_end+0x2c077c>
    10f4:	010b3b0b 	tsteq	fp, fp, lsl #22
    10f8:	0b000013 	bleq	114c <__save_processor_state+0x20c>
    10fc:	0e030028 	cdpeq	0, 0, cr0, cr3, cr8, {1}
    1100:	00000d1c 	andeq	r0, r0, ip, lsl sp
    1104:	3f012e0c 	svccc	0x00012e0c
    1108:	3a0e030c 	bcc	381d40 <__bss_end+0x37e78c>
    110c:	270b3b0b 	strcs	r3, [fp, -fp, lsl #22]
    1110:	1113490c 	tstne	r3, ip, lsl #18
    1114:	40011201 	andmi	r1, r1, r1, lsl #4
    1118:	0013010a 	andseq	r0, r3, sl, lsl #2
    111c:	00050d00 	andeq	r0, r5, r0, lsl #26
    1120:	0b3a0e03 	bleq	e84934 <__bss_end+0xe81380>
    1124:	13490b3b 	movtne	r0, #39739	; 0x9b3b
    1128:	00000602 	andeq	r0, r0, r2, lsl #12
    112c:	0b000f0e 	bleq	4d6c <__bss_end+0x17b8>
    1130:	0013490b 	andseq	r4, r3, fp, lsl #18
    1134:	002e0f00 	eoreq	r0, lr, r0, lsl #30
    1138:	0e030c3f 	mcreq	12, 0, r0, cr3, cr15, {1}
    113c:	0b3b0b3a 	bleq	ec3e2c <__bss_end+0xec0878>
    1140:	13490c27 	movtne	r0, #39975	; 0x9c27
    1144:	01120111 	tsteq	r2, r1, lsl r1
    1148:	00000a40 	andeq	r0, r0, r0, asr #20
    114c:	3f002e10 	svccc	0x00002e10
    1150:	3a0e030c 	bcc	381d88 <__bss_end+0x37e7d4>
    1154:	270b3b0b 	strcs	r3, [fp, -fp, lsl #22]
    1158:	1201110c 	andne	r1, r1, #3
    115c:	000a4001 	andeq	r4, sl, r1
    1160:	00341100 	eorseq	r1, r4, r0, lsl #2
    1164:	0b3a0e03 	bleq	e84978 <__bss_end+0xe813c4>
    1168:	13490b3b 	movtne	r0, #39739	; 0x9b3b
    116c:	00000a02 	andeq	r0, r0, r2, lsl #20
    1170:	01110100 	tsteq	r1, r0, lsl #2
    1174:	0b130e25 	bleq	4c4a10 <__bss_end+0x4c145c>
    1178:	0e1b0e03 	cdpeq	14, 1, cr0, cr11, cr3, {0}
    117c:	01120111 	tsteq	r2, r1, lsl r1
    1180:	00000610 	andeq	r0, r0, r0, lsl r6
    1184:	0b002402 	bleq	a194 <__bss_end+0x6be0>
    1188:	030b3e0b 	movweq	r3, #48651	; 0xbe0b
    118c:	0300000e 	movweq	r0, #14
    1190:	0e030016 	mcreq	0, 0, r0, cr3, cr6, {0}
    1194:	0b3b0b3a 	bleq	ec3e84 <__bss_end+0xec08d0>
    1198:	00001349 	andeq	r1, r0, r9, asr #6
    119c:	0b002404 	bleq	a1b4 <__bss_end+0x6c00>
    11a0:	030b3e0b 	movweq	r3, #48651	; 0xbe0b
    11a4:	05000008 	streq	r0, [r0, #-8]
    11a8:	13490035 	movtne	r0, #36917	; 0x9035
    11ac:	01060000 	mrseq	r0, (UNDEF: 6)
    11b0:	01134901 	tsteq	r3, r1, lsl #18
    11b4:	07000013 	smladeq	r0, r3, r0, r0
    11b8:	13490021 	movtne	r0, #36897	; 0x9021
    11bc:	00000b2f 	andeq	r0, r0, pc, lsr #22
    11c0:	03011308 	movweq	r1, #4872	; 0x1308
    11c4:	3a0b0b0e 	bcc	2c3e04 <__bss_end+0x2c0850>
    11c8:	010b3b0b 	tsteq	fp, fp, lsl #22
    11cc:	09000013 	stmdbeq	r0, {r0, r1, r4}
    11d0:	0803000d 	stmdaeq	r3, {r0, r2, r3}
    11d4:	0b3b0b3a 	bleq	ec3ec4 <__bss_end+0xec0910>
    11d8:	0a381349 	beq	e05f04 <__bss_end+0xe02950>
    11dc:	0d0a0000 	stceq	0, cr0, [sl, #-0]
    11e0:	3a0e0300 	bcc	381de8 <__bss_end+0x37e834>
    11e4:	490b3b0b 	stmdbmi	fp, {r0, r1, r3, r8, r9, fp, ip, sp}
    11e8:	000a3813 	andeq	r3, sl, r3, lsl r8
    11ec:	01040b00 	tsteq	r4, r0, lsl #22
    11f0:	0b0b0e03 	bleq	2c4a04 <__bss_end+0x2c1450>
    11f4:	0b3b0b3a 	bleq	ec3ee4 <__bss_end+0xec0930>
    11f8:	00001301 	andeq	r1, r0, r1, lsl #6
    11fc:	0300280c 	movweq	r2, #2060	; 0x80c
    1200:	000d1c0e 	andeq	r1, sp, lr, lsl #24
    1204:	012e0d00 	teqeq	lr, r0, lsl #26
    1208:	0e030c3f 	mcreq	12, 0, r0, cr3, cr15, {1}
    120c:	0b3b0b3a 	bleq	ec3efc <__bss_end+0xec0948>
    1210:	13490c27 	movtne	r0, #39975	; 0x9c27
    1214:	01120111 	tsteq	r2, r1, lsl r1
    1218:	13010a40 	movwne	r0, #6720	; 0x1a40
    121c:	050e0000 	streq	r0, [lr, #-0]
    1220:	3a0e0300 	bcc	381e28 <__bss_end+0x37e874>
    1224:	490b3b0b 	stmdbmi	fp, {r0, r1, r3, r8, r9, fp, ip, sp}
    1228:	00060213 	andeq	r0, r6, r3, lsl r2
    122c:	000f0f00 	andeq	r0, pc, r0, lsl #30
    1230:	13490b0b 	movtne	r0, #39691	; 0x9b0b
    1234:	34100000 	ldrcc	r0, [r0], #-0
    1238:	3a0e0300 	bcc	381e40 <__bss_end+0x37e88c>
    123c:	490b3b0b 	stmdbmi	fp, {r0, r1, r3, r8, r9, fp, ip, sp}
    1240:	000a0213 	andeq	r0, sl, r3, lsl r2
    1244:	11010000 	mrsne	r0, (UNDEF: 1)
    1248:	130e2501 	movwne	r2, #58625	; 0xe501
    124c:	1b0e030b 	blne	381e80 <__bss_end+0x37e8cc>
    1250:	1201110e 	andne	r1, r1, #-2147483645	; 0x80000003
    1254:	00061001 	andeq	r1, r6, r1
    1258:	00240200 	eoreq	r0, r4, r0, lsl #4
    125c:	0b3e0b0b 	bleq	f83e90 <__bss_end+0xf808dc>
    1260:	00000e03 	andeq	r0, r0, r3, lsl #28
    1264:	03001603 	movweq	r1, #1539	; 0x603
    1268:	3b0b3a0e 	blcc	2cfaa8 <__bss_end+0x2cc4f4>
    126c:	0013490b 	andseq	r4, r3, fp, lsl #18
    1270:	00240400 	eoreq	r0, r4, r0, lsl #8
    1274:	0b3e0b0b 	bleq	f83ea8 <__bss_end+0xf808f4>
    1278:	00000803 	andeq	r0, r0, r3, lsl #16
    127c:	03010405 	movweq	r0, #5125	; 0x1405
    1280:	3a0b0b0e 	bcc	2c3ec0 <__bss_end+0x2c090c>
    1284:	010b3b0b 	tsteq	fp, fp, lsl #22
    1288:	06000013 			; <UNDEFINED> instruction: 0x06000013
    128c:	0e030028 	cdpeq	0, 0, cr0, cr3, cr8, {1}
    1290:	00000d1c 	andeq	r0, r0, ip, lsl sp
    1294:	03012e07 	movweq	r2, #7687	; 0x1e07
    1298:	3b0b3a0e 	blcc	2cfad8 <__bss_end+0x2cc524>
    129c:	490c270b 	stmdbmi	ip, {r0, r1, r3, r8, r9, sl, sp}
    12a0:	010b2013 	tsteq	fp, r3, lsl r0
    12a4:	08000013 	stmdaeq	r0, {r0, r1, r4}
    12a8:	0e030034 	mcreq	0, 0, r0, cr3, cr4, {1}
    12ac:	0b3b0b3a 	bleq	ec3f9c <__bss_end+0xec09e8>
    12b0:	00001349 	andeq	r1, r0, r9, asr #6
    12b4:	03012e09 	movweq	r2, #7689	; 0x1e09
    12b8:	3b0b3a0e 	blcc	2cfaf8 <__bss_end+0x2cc544>
    12bc:	200c270b 	andcs	r2, ip, fp, lsl #14
    12c0:	0013010b 	andseq	r0, r3, fp, lsl #2
    12c4:	00050a00 	andeq	r0, r5, r0, lsl #20
    12c8:	0b3a0e03 	bleq	e84adc <__bss_end+0xe81528>
    12cc:	13490b3b 	movtne	r0, #39739	; 0x9b3b
    12d0:	2e0b0000 	cdpcs	0, 0, cr0, cr11, cr0, {0}
    12d4:	030c3f01 	movweq	r3, #52993	; 0xcf01
    12d8:	3b0b3a0e 	blcc	2cfb18 <__bss_end+0x2cc564>
    12dc:	490c270b 	stmdbmi	ip, {r0, r1, r3, r8, r9, sl, sp}
    12e0:	12011113 	andne	r1, r1, #-1073741820	; 0xc0000004
    12e4:	010a4001 	tsteq	sl, r1
    12e8:	0c000013 	stceq	0, cr0, [r0], {19}
    12ec:	0e030005 	cdpeq	0, 0, cr0, cr3, cr5, {0}
    12f0:	0b3b0b3a 	bleq	ec3fe0 <__bss_end+0xec0a2c>
    12f4:	06021349 	streq	r1, [r2], -r9, asr #6
    12f8:	2e0d0000 	cdpcs	0, 0, cr0, cr13, cr0, {0}
    12fc:	030c3f01 	movweq	r3, #52993	; 0xcf01
    1300:	3b0b3a0e 	blcc	2cfb40 <__bss_end+0x2cc58c>
    1304:	490c270b 	stmdbmi	ip, {r0, r1, r3, r8, r9, sl, sp}
    1308:	12011113 	andne	r1, r1, #-1073741820	; 0xc0000004
    130c:	01064001 	tsteq	r6, r1
    1310:	0e000013 	mcreq	0, 0, r0, cr0, cr3, {0}
    1314:	0e030034 	mcreq	0, 0, r0, cr3, cr4, {1}
    1318:	0b3b0b3a 	bleq	ec4008 <__bss_end+0xec0a54>
    131c:	06021349 	streq	r1, [r2], -r9, asr #6
    1320:	1d0f0000 	stcne	0, cr0, [pc, #-0]	; 1328 <__save_processor_state+0x3e8>
    1324:	11133101 	tstne	r3, r1, lsl #2
    1328:	58011201 	stmdapl	r1, {r0, r9, ip}
    132c:	010b590b 	tsteq	fp, fp, lsl #18
    1330:	10000013 	andne	r0, r0, r3, lsl r0
    1334:	0111010b 	tsteq	r1, fp, lsl #2
    1338:	00000112 	andeq	r0, r0, r2, lsl r1
    133c:	31003411 	tstcc	r0, r1, lsl r4
    1340:	00060213 	andeq	r0, r6, r3, lsl r2
    1344:	011d1200 	tsteq	sp, r0, lsl #4
    1348:	01111331 	tsteq	r1, r1, lsr r3
    134c:	0b580112 	bleq	160179c <__bss_end+0x15fe1e8>
    1350:	00000b59 	andeq	r0, r0, r9, asr fp
    1354:	31000513 	tstcc	r0, r3, lsl r5
    1358:	00060213 	andeq	r0, r6, r3, lsl r2
    135c:	011d1400 	tsteq	sp, r0, lsl #8
    1360:	01521331 	cmpeq	r2, r1, lsr r3
    1364:	0b580655 	bleq	1602cc0 <__bss_end+0x15ff70c>
    1368:	00000b59 	andeq	r0, r0, r9, asr fp
    136c:	31000515 	tstcc	r0, r5, lsl r5
    1370:	000a0213 	andeq	r0, sl, r3, lsl r2
    1374:	00341600 	eorseq	r1, r4, r0, lsl #12
    1378:	0a021331 	beq	86044 <__bss_end+0x82a90>
    137c:	34170000 	ldrcc	r0, [r7], #-0
    1380:	3a0e0300 	bcc	381f88 <__bss_end+0x37e9d4>
    1384:	490b3b0b 	stmdbmi	fp, {r0, r1, r3, r8, r9, fp, ip, sp}
    1388:	000a0213 	andeq	r0, sl, r3, lsl r2
    138c:	11010000 	mrsne	r0, (UNDEF: 1)
    1390:	130e2501 	movwne	r2, #58625	; 0xe501
    1394:	1b0e030b 	blne	381fc8 <__bss_end+0x37ea14>
    1398:	1201110e 	andne	r1, r1, #-2147483645	; 0x80000003
    139c:	00061001 	andeq	r1, r6, r1
    13a0:	00240200 	eoreq	r0, r4, r0, lsl #4
    13a4:	0b3e0b0b 	bleq	f83fd8 <__bss_end+0xf80a24>
    13a8:	00000e03 	andeq	r0, r0, r3, lsl #28
    13ac:	03001603 	movweq	r1, #1539	; 0x603
    13b0:	3b0b3a0e 	blcc	2cfbf0 <__bss_end+0x2cc63c>
    13b4:	0013490b 	andseq	r4, r3, fp, lsl #18
    13b8:	00240400 	eoreq	r0, r4, r0, lsl #8
    13bc:	0b3e0b0b 	bleq	f83ff0 <__bss_end+0xf80a3c>
    13c0:	00000803 	andeq	r0, r0, r3, lsl #16
    13c4:	0b011305 	bleq	45fe0 <__bss_end+0x42a2c>
    13c8:	3b0b3a0b 	blcc	2cfbfc <__bss_end+0x2cc648>
    13cc:	0013010b 	andseq	r0, r3, fp, lsl #2
    13d0:	000d0600 	andeq	r0, sp, r0, lsl #12
    13d4:	0b3a0e03 	bleq	e84be8 <__bss_end+0xe81634>
    13d8:	13490b3b 	movtne	r0, #39739	; 0x9b3b
    13dc:	0b0d0b0b 	bleq	344010 <__bss_end+0x340a5c>
    13e0:	0a380b0c 	beq	e04018 <__bss_end+0xe00a64>
    13e4:	17070000 	strne	r0, [r7, -r0]
    13e8:	3a0b0b01 	bcc	2c3ff4 <__bss_end+0x2c0a40>
    13ec:	010b3b0b 	tsteq	fp, fp, lsl #22
    13f0:	08000013 	stmdaeq	r0, {r0, r1, r4}
    13f4:	0e03000d 	cdpeq	0, 0, cr0, cr3, cr13, {0}
    13f8:	0b3b0b3a 	bleq	ec40e8 <__bss_end+0xec0b34>
    13fc:	00001349 	andeq	r1, r0, r9, asr #6
    1400:	03011309 	movweq	r1, #4873	; 0x1309
    1404:	3a0b0b0e 	bcc	2c4044 <__bss_end+0x2c0a90>
    1408:	010b3b0b 	tsteq	fp, fp, lsl #22
    140c:	0a000013 	beq	1460 <__restore_processor_state+0x11c>
    1410:	0e030113 	mcreq	1, 0, r0, cr3, cr3, {0}
    1414:	0b3a050b 	bleq	e82848 <__bss_end+0xe7f294>
    1418:	13010b3b 	movwne	r0, #6971	; 0x1b3b
    141c:	0d0b0000 	stceq	0, cr0, [fp, #-0]
    1420:	3a0e0300 	bcc	382028 <__bss_end+0x37ea74>
    1424:	490b3b0b 	stmdbmi	fp, {r0, r1, r3, r8, r9, fp, ip, sp}
    1428:	000a3813 	andeq	r3, sl, r3, lsl r8
    142c:	000d0c00 	andeq	r0, sp, r0, lsl #24
    1430:	0b3a0803 	bleq	e83444 <__bss_end+0xe7fe90>
    1434:	13490b3b 	movtne	r0, #39739	; 0x9b3b
    1438:	00000a38 	andeq	r0, r0, r8, lsr sl
    143c:	4900350d 	stmdbmi	r0, {r0, r2, r3, r8, sl, ip, sp}
    1440:	0e000013 	mcreq	0, 0, r0, cr0, cr3, {0}
    1444:	13490101 	movtne	r0, #37121	; 0x9101
    1448:	00001301 	andeq	r1, r0, r1, lsl #6
    144c:	4900210f 	stmdbmi	r0, {r0, r1, r2, r3, r8, sp}
    1450:	000b2f13 	andeq	r2, fp, r3, lsl pc
    1454:	000f1000 	andeq	r1, pc, r0
    1458:	13490b0b 	movtne	r0, #39691	; 0x9b0b
    145c:	04110000 	ldreq	r0, [r1], #-0
    1460:	0b0e0301 	bleq	38206c <__bss_end+0x37eab8>
    1464:	3b0b3a0b 	blcc	2cfc98 <__bss_end+0x2cc6e4>
    1468:	0013010b 	andseq	r0, r3, fp, lsl #2
    146c:	00281200 	eoreq	r1, r8, r0, lsl #4
    1470:	0d1c0e03 	ldceq	14, cr0, [ip, #-12]
    1474:	2e130000 	cdpcs	0, 1, cr0, cr3, cr0, {0}
    1478:	030c3f01 	movweq	r3, #52993	; 0xcf01
    147c:	3b0b3a0e 	blcc	2cfcbc <__bss_end+0x2cc708>
    1480:	490c270b 	stmdbmi	ip, {r0, r1, r3, r8, r9, sl, sp}
    1484:	12011113 	andne	r1, r1, #-1073741820	; 0xc0000004
    1488:	010a4001 	tsteq	sl, r1
    148c:	14000013 	strne	r0, [r0], #-19
    1490:	0e030005 	cdpeq	0, 0, cr0, cr3, cr5, {0}
    1494:	0b3b0b3a 	bleq	ec4184 <__bss_end+0xec0bd0>
    1498:	06021349 	streq	r1, [r2], -r9, asr #6
    149c:	2e150000 	cdpcs	0, 1, cr0, cr5, cr0, {0}
    14a0:	030c3f00 	movweq	r3, #52992	; 0xcf00
    14a4:	3b0b3a0e 	blcc	2cfce4 <__bss_end+0x2cc730>
    14a8:	490c270b 	stmdbmi	ip, {r0, r1, r3, r8, r9, sl, sp}
    14ac:	12011113 	andne	r1, r1, #-1073741820	; 0xc0000004
    14b0:	000a4001 	andeq	r4, sl, r1
    14b4:	012e1600 	teqeq	lr, r0, lsl #12
    14b8:	0e030c3f 	mcreq	12, 0, r0, cr3, cr15, {1}
    14bc:	0b3b0b3a 	bleq	ec41ac <__bss_end+0xec0bf8>
    14c0:	13490c27 	movtne	r0, #39975	; 0x9c27
    14c4:	01120111 	tsteq	r2, r1, lsl r1
    14c8:	13010640 	movwne	r0, #5696	; 0x1640
    14cc:	2e170000 	cdpcs	0, 1, cr0, cr7, cr0, {0}
    14d0:	030c3f01 	movweq	r3, #52993	; 0xcf01
    14d4:	3b0b3a0e 	blcc	2cfd14 <__bss_end+0x2cc760>
    14d8:	490c2705 	stmdbmi	ip, {r0, r2, r8, r9, sl, sp}
    14dc:	12011113 	andne	r1, r1, #-1073741820	; 0xc0000004
    14e0:	010a4001 	tsteq	sl, r1
    14e4:	18000013 	stmdane	r0, {r0, r1, r4}
    14e8:	0e030005 	cdpeq	0, 0, cr0, cr3, cr5, {0}
    14ec:	053b0b3a 	ldreq	r0, [fp, #-2874]!	; 0xb3a
    14f0:	06021349 	streq	r1, [r2], -r9, asr #6
    14f4:	2e190000 	cdpcs	0, 1, cr0, cr9, cr0, {0}
    14f8:	030c3f01 	movweq	r3, #52993	; 0xcf01
    14fc:	3b0b3a0e 	blcc	2cfd3c <__bss_end+0x2cc788>
    1500:	490c2705 	stmdbmi	ip, {r0, r2, r8, r9, sl, sp}
    1504:	12011113 	andne	r1, r1, #-1073741820	; 0xc0000004
    1508:	01064001 	tsteq	r6, r1
    150c:	1a000013 	bne	1560 <__restore_processor_state+0x21c>
    1510:	0e030034 	mcreq	0, 0, r0, cr3, cr4, {1}
    1514:	053b0b3a 	ldreq	r0, [fp, #-2874]!	; 0xb3a
    1518:	06021349 	streq	r1, [r2], -r9, asr #6
    151c:	341b0000 	ldrcc	r0, [fp], #-0
    1520:	3a0e0300 	bcc	382128 <__bss_end+0x37eb74>
    1524:	49053b0b 	stmdbmi	r5, {r0, r1, r3, r8, r9, fp, ip, sp}
    1528:	000b1c13 	andeq	r1, fp, r3, lsl ip
    152c:	00341c00 	eorseq	r1, r4, r0, lsl #24
    1530:	0b3a0e03 	bleq	e84d44 <__bss_end+0xe81790>
    1534:	13490b3b 	movtne	r0, #39739	; 0x9b3b
    1538:	00000a02 	andeq	r0, r0, r2, lsl #20
	...

Disassembly of section .debug_line:

00000000 <.debug_line>:
       0:	000000b8 	strheq	r0, [r0], -r8
       4:	00b20002 	adcseq	r0, r2, r2
       8:	01020000 	mrseq	r0, (UNDEF: 2)
       c:	000d0efb 	strdeq	r0, [sp], -fp
      10:	01010101 	tsteq	r1, r1, lsl #2
      14:	01000000 	mrseq	r0, (UNDEF: 0)
      18:	61010000 	mrsvs	r0, (UNDEF: 1)
      1c:	2f686372 	svccs	0x00686372
      20:	2f6d7261 	svccs	0x006d7261
      24:	6863616d 	stmdavs	r3!, {r0, r2, r3, r5, r6, r8, sp, lr}^
      28:	6e75732d 	cdpvs	3, 7, cr7, cr5, cr13, {1}
      2c:	702f6978 	eorvc	r6, pc, r8, ror r9	; <UNPREDICTABLE>
      30:	74732f6d 	ldrbtvc	r2, [r3], #-3949	; 0xf6d
      34:	62646e61 	rsbvs	r6, r4, #1552	; 0x610
      38:	75732f79 	ldrbvc	r2, [r3, #-3961]!	; 0xf79
      3c:	2f726570 	svccs	0x00726570
      40:	75736572 	ldrbvc	r6, [r3, #-1394]!	; 0x572
      44:	2e2f656d 	cfsh64cs	mvdx6, mvdx15, #61
      48:	002e2e2f 	eoreq	r2, lr, pc, lsr #28
      4c:	6c636e69 	stclvs	14, cr6, [r3], #-420	; 0xfffffe5c
      50:	2f656475 	svccs	0x00656475
      54:	756e696c 	strbvc	r6, [lr, #-2412]!	; 0x96c
      58:	6f702f78 	svcvs	0x00702f78
      5c:	00726577 	rsbseq	r6, r2, r7, ror r5
      60:	68637261 	stmdavs	r3!, {r0, r5, r6, r9, ip, sp, lr}^
      64:	6d72612f 	ldfvse	f6, [r2, #-188]!	; 0xffffff44
      68:	63616d2f 	cmnvs	r1, #3008	; 0xbc0
      6c:	75732d68 	ldrbvc	r2, [r3, #-3432]!	; 0xd68
      70:	2f69786e 	svccs	0x0069786e
      74:	732f6d70 	teqvc	pc, #7168	; 0x1c00
      78:	646e6174 	strbtvs	r6, [lr], #-372	; 0x174
      7c:	732f7962 	teqvc	pc, #1605632	; 0x188000
      80:	72657075 	rsbvc	r7, r5, #117	; 0x75
      84:	7365722f 	cmnvc	r5, #-268435454	; 0xf0000002
      88:	00656d75 	rsbeq	r6, r5, r5, ror sp
      8c:	70757300 	rsbsvc	r7, r5, r0, lsl #6
      90:	695f7265 	ldmdbvs	pc, {r0, r2, r5, r6, r9, ip, sp, lr}^	; <UNPREDICTABLE>
      94:	0100682e 	tsteq	r0, lr, lsr #16
      98:	78610000 	stmdavc	r1!, {}^	; <UNPREDICTABLE>
      9c:	65645f70 	strbvs	r5, [r4, #-3952]!	; 0xf70
      a0:	646e6570 	strbtvs	r6, [lr], #-1392	; 0x570
      a4:	0200682e 	andeq	r6, r0, #3014656	; 0x2e0000
      a8:	65720000 	ldrbvs	r0, [r2, #-0]!
      ac:	656d7573 	strbvs	r7, [sp, #-1395]!	; 0x573
      b0:	6165685f 	cmnvs	r5, pc, asr r8
      b4:	00632e64 	rsbeq	r2, r3, r4, ror #28
      b8:	00000003 	andeq	r0, r0, r3
      bc:	0000007b 	andeq	r0, r0, fp, ror r0
      c0:	004c0002 	subeq	r0, ip, r2
      c4:	01020000 	mrseq	r0, (UNDEF: 2)
      c8:	000d0efb 	strdeq	r0, [sp], -fp
      cc:	01010101 	tsteq	r1, r1, lsl #2
      d0:	01000000 	mrseq	r0, (UNDEF: 0)
      d4:	61010000 	mrsvs	r0, (UNDEF: 1)
      d8:	2f686372 	svccs	0x00686372
      dc:	2f6d7261 	svccs	0x006d7261
      e0:	6863616d 	stmdavs	r3!, {r0, r2, r3, r5, r6, r8, sp, lr}^
      e4:	6e75732d 	cdpvs	3, 7, cr7, cr5, cr13, {1}
      e8:	702f6978 	eorvc	r6, pc, r8, ror r9	; <UNPREDICTABLE>
      ec:	74732f6d 	ldrbtvc	r2, [r3], #-3949	; 0xf6d
      f0:	62646e61 	rsbvs	r6, r4, #1552	; 0x610
      f4:	75732f79 	ldrbvc	r2, [r3, #-3961]!	; 0xf79
      f8:	2f726570 	svccs	0x00726570
      fc:	75736572 	ldrbvc	r6, [r3, #-1394]!	; 0x572
     100:	0000656d 	andeq	r6, r0, sp, ror #10
     104:	75736572 	ldrbvc	r6, [r3, #-1394]!	; 0x572
     108:	2e31656d 	cdpcs	5, 3, cr6, cr1, cr13, {3}
     10c:	00010053 	andeq	r0, r1, r3, asr r0
     110:	05000000 	streq	r0, [r0, #-0]
     114:	00003002 	andeq	r3, r0, r2
     118:	00c30300 	sbceq	r0, r3, r0, lsl #6
     11c:	2f2f2f01 	svccs	0x002f2f01
     120:	2f332f2f 	svccs	0x00332f2f
     124:	302f2f2f 	eorcc	r2, pc, pc, lsr #30
     128:	00c0032f 	sbceq	r0, r0, pc, lsr #6
     12c:	2f302f2e 	svccs	0x00302f2e
     130:	312f2f2f 	teqcc	pc, pc, lsr #30
     134:	0202302f 	andeq	r3, r2, #47	; 0x2f
     138:	72010100 	andvc	r0, r1, #0
     13c:	02000000 	andeq	r0, r0, #0
     140:	00004400 	andeq	r4, r0, r0, lsl #8
     144:	fb010200 	blx	4094e <__bss_end+0x3d39a>
     148:	01000d0e 	tsteq	r0, lr, lsl #26
     14c:	00010101 	andeq	r0, r1, r1, lsl #2
     150:	00010000 	andeq	r0, r1, r0
     154:	72610100 	rsbvc	r0, r1, #0
     158:	612f6863 	teqvs	pc, r3, ror #16
     15c:	6d2f6d72 	stcvs	13, cr6, [pc, #-456]!	; ffffff9c <__bss_end+0xffffc9e8>
     160:	2d686361 	stclcs	3, cr6, [r8, #-388]!	; 0xfffffe7c
     164:	786e7573 	stmdavc	lr!, {r0, r1, r4, r5, r6, r8, sl, ip, sp, lr}^
     168:	6d702f69 	ldclvs	15, cr2, [r0, #-420]!	; 0xfffffe5c
     16c:	6174732f 	cmnvs	r4, pc, lsr #6
     170:	7962646e 	stmdbvc	r2!, {r1, r2, r3, r5, r6, sl, sp, lr}^
     174:	7075732f 	rsbsvc	r7, r5, pc, lsr #6
     178:	00007265 	andeq	r7, r0, r5, ror #4
     17c:	6d6d6f63 	stclvs	15, cr6, [sp, #-396]!	; 0xfffffe74
     180:	632e6e6f 	teqvs	lr, #1776	; 0x6f0
     184:	00000100 	andeq	r0, r0, r0, lsl #2
     188:	02050000 	andeq	r0, r5, #0
     18c:	0000008c 	andeq	r0, r0, ip, lsl #1
     190:	15012303 	strne	r2, [r1, #-771]	; 0x303
     194:	4a7a034c 	bmi	1e80ecc <__bss_end+0x1e7d918>
     198:	02040200 	andeq	r0, r4, #0
     19c:	04020035 	streq	r0, [r2], #-53	; 0x35
     1a0:	02002d02 	andeq	r2, r0, #128	; 0x80
     1a4:	002f0204 	eoreq	r0, pc, r4, lsl #4
     1a8:	2d020402 	cfstrscs	mvf0, [r2, #-8]
     1ac:	01000402 	tsteq	r0, r2, lsl #8
     1b0:	00001901 	andeq	r1, r0, r1, lsl #18
     1b4:	13000200 	movwne	r0, #512	; 0x200
     1b8:	02000000 	andeq	r0, r0, #0
     1bc:	0d0efb01 	vstreq	d15, [lr, #-4]
     1c0:	01010100 	mrseq	r0, (UNDEF: 17)
     1c4:	00000001 	andeq	r0, r0, r1
     1c8:	01000001 	tsteq	r0, r1
     1cc:	00670000 	rsbeq	r0, r7, r0
     1d0:	00020000 	andeq	r0, r2, r0
     1d4:	00000049 	andeq	r0, r0, r9, asr #32
     1d8:	0efb0102 	cdpeq	1, 15, cr0, cr11, cr2, {0}
     1dc:	0101000d 	tsteq	r1, sp
     1e0:	00000101 	andeq	r0, r0, r1, lsl #2
     1e4:	00000100 	andeq	r0, r0, r0, lsl #2
     1e8:	63726101 	cmnvs	r2, #1073741824	; 0x40000000
     1ec:	72612f68 	rsbvc	r2, r1, #416	; 0x1a0
     1f0:	616d2f6d 	cmnvs	sp, sp, ror #30
     1f4:	732d6863 	teqvc	sp, #6488064	; 0x630000
     1f8:	69786e75 	ldmdbvs	r8!, {r0, r2, r4, r5, r6, r9, sl, fp, sp, lr}^
     1fc:	2f6d702f 	svccs	0x006d702f
     200:	6e617473 	mcrvs	4, 3, r7, cr1, cr3, {3}
     204:	2f796264 	svccs	0x00796264
     208:	65707573 	ldrbvs	r7, [r0, #-1395]!	; 0x573
     20c:	73000072 	movwvc	r0, #114	; 0x72
     210:	72657075 	rsbvc	r7, r5, #117	; 0x75
     214:	6c65645f 	cfstrdvs	mvd6, [r5], #-380	; 0xfffffe84
     218:	532e7961 	teqpl	lr, #1589248	; 0x184000
     21c:	00000100 	andeq	r0, r0, r0, lsl #2
     220:	02050000 	andeq	r0, r5, #0
     224:	000000b4 	strheq	r0, [r0], -r4
     228:	2f010d03 	svccs	0x00010d03
     22c:	2f2f302f 	svccs	0x002f302f
     230:	2f302f2f 	svccs	0x00302f2f
     234:	01000202 	tsteq	r0, r2, lsl #4
     238:	00001901 	andeq	r1, r0, r1, lsl #18
     23c:	13000200 	movwne	r0, #512	; 0x200
     240:	02000000 	andeq	r0, r0, #0
     244:	0d0efb01 	vstreq	d15, [lr, #-4]
     248:	01010100 	mrseq	r0, (UNDEF: 17)
     24c:	00000001 	andeq	r0, r0, r1
     250:	01000001 	tsteq	r0, r1
     254:	00190000 	andseq	r0, r9, r0
     258:	00020000 	andeq	r0, r2, r0
     25c:	00000013 	andeq	r0, r0, r3, lsl r0
     260:	0efb0102 	cdpeq	1, 15, cr0, cr11, cr2, {0}
     264:	0101000d 	tsteq	r1, sp
     268:	00000101 	andeq	r0, r0, r1, lsl #2
     26c:	00000100 	andeq	r0, r0, r0, lsl #2
     270:	19000001 	stmdbne	r0, {r0}
     274:	02000000 	andeq	r0, r0, #0
     278:	00001300 	andeq	r1, r0, r0, lsl #6
     27c:	fb010200 	blx	40a86 <__bss_end+0x3d4d2>
     280:	01000d0e 	tsteq	r0, lr, lsl #26
     284:	00010101 	andeq	r0, r1, r1, lsl #2
     288:	00010000 	andeq	r0, r1, r0
     28c:	00000100 	andeq	r0, r0, r0, lsl #2
     290:	00000182 	andeq	r0, r0, r2, lsl #3
     294:	00e90002 	rsceq	r0, r9, r2
     298:	01020000 	mrseq	r0, (UNDEF: 2)
     29c:	000d0efb 	strdeq	r0, [sp], -fp
     2a0:	01010101 	tsteq	r1, r1, lsl #2
     2a4:	01000000 	mrseq	r0, (UNDEF: 0)
     2a8:	61010000 	mrsvs	r0, (UNDEF: 1)
     2ac:	2f686372 	svccs	0x00686372
     2b0:	2f6d7261 	svccs	0x006d7261
     2b4:	6863616d 	stmdavs	r3!, {r0, r2, r3, r5, r6, r8, sp, lr}^
     2b8:	6e75732d 	cdpvs	3, 7, cr7, cr5, cr13, {1}
     2bc:	702f6978 	eorvc	r6, pc, r8, ror r9	; <UNPREDICTABLE>
     2c0:	74732f6d 	ldrbtvc	r2, [r3], #-3949	; 0xf6d
     2c4:	62646e61 	rsbvs	r6, r4, #1552	; 0x610
     2c8:	75732f79 	ldrbvc	r2, [r3, #-3961]!	; 0xf79
     2cc:	2f726570 	svccs	0x00726570
     2d0:	75736572 	ldrbvc	r6, [r3, #-1394]!	; 0x572
     2d4:	6100656d 	tstvs	r0, sp, ror #10
     2d8:	2f686372 	svccs	0x00686372
     2dc:	2f6d7261 	svccs	0x006d7261
     2e0:	6863616d 	stmdavs	r3!, {r0, r2, r3, r5, r6, r8, sp, lr}^
     2e4:	6e75732d 	cdpvs	3, 7, cr7, cr5, cr13, {1}
     2e8:	702f6978 	eorvc	r6, pc, r8, ror r9	; <UNPREDICTABLE>
     2ec:	74732f6d 	ldrbtvc	r2, [r3], #-3949	; 0xf6d
     2f0:	62646e61 	rsbvs	r6, r4, #1552	; 0x610
     2f4:	75732f79 	ldrbvc	r2, [r3, #-3961]!	; 0xf79
     2f8:	2f726570 	svccs	0x00726570
     2fc:	75736572 	ldrbvc	r6, [r3, #-1394]!	; 0x572
     300:	2e2f656d 	cfsh64cs	mvdx6, mvdx15, #61
     304:	2f2e2e2f 	svccs	0x002e2e2f
     308:	2e2f2e2e 	cdpcs	14, 2, cr2, cr15, cr14, {1}
     30c:	6e69002e 	cdpvs	0, 6, cr0, cr9, cr14, {1}
     310:	64756c63 	ldrbtvs	r6, [r5], #-3171	; 0xc63
     314:	696c2f65 	stmdbvs	ip!, {r0, r2, r5, r6, r8, r9, sl, fp, sp}^
     318:	2f78756e 	svccs	0x0078756e
     31c:	65776f70 	ldrbvs	r6, [r7, #-3952]!	; 0xf70
     320:	72000072 	andvc	r0, r0, #114	; 0x72
     324:	6d757365 	ldclvs	3, cr7, [r5, #-404]!	; 0xfffffe6c
     328:	635f3165 	cmpvs	pc, #1073741849	; 0x40000019
     32c:	7261705f 	rsbvc	r7, r1, #95	; 0x5f
     330:	00632e74 	rsbeq	r2, r3, r4, ror lr
     334:	70000001 	andvc	r0, r0, r1
     338:	79745f6d 	ldmdbvc	r4!, {r0, r2, r3, r5, r6, r8, r9, sl, fp, ip, lr}^
     33c:	2e736570 	mrccs	5, 3, r6, cr3, cr0, {3}
     340:	00020068 	andeq	r0, r2, r8, rrx
     344:	6d656d00 	stclvs	13, cr6, [r5, #-0]
     348:	6d63635f 	stclvs	3, cr6, [r3, #-380]!	; 0xfffffe84
     34c:	75732d75 	ldrbvc	r2, [r3, #-3445]!	; 0xd75
     350:	7769386e 	strbvc	r3, [r9, -lr, ror #16]!
     354:	2e317036 	mrccs	0, 1, r7, cr1, cr6, {1}
     358:	00020068 	andeq	r0, r2, r8, rrx
     35c:	6d656d00 	stclvs	13, cr6, [r5, #-0]
     360:	6b6c635f 	blvs	1b190e4 <__bss_end+0x1b15b30>
     364:	0200682e 	andeq	r6, r0, #3014656	; 0x2e0000
     368:	6d700000 	ldclvs	0, cr0, [r0, #-0]
     36c:	0200682e 	andeq	r6, r0, #3014656	; 0x2e0000
     370:	78610000 	stmdavc	r1!, {}^	; <UNPREDICTABLE>
     374:	65645f70 	strbvs	r5, [r4, #-3952]!	; 0xf70
     378:	646e6570 	strbtvs	r6, [lr], #-1392	; 0x570
     37c:	0300682e 	movweq	r6, #2094	; 0x82e
     380:	00000000 	andeq	r0, r0, r0
     384:	00dc0205 	sbcseq	r0, ip, r5, lsl #4
     388:	33030000 	movwcc	r0, #12288	; 0x3000
     38c:	10033001 	andne	r3, r3, r1
     390:	2e70032e 	cdpcs	3, 7, cr0, cr0, cr14, {1}
     394:	2e09032f 	cdpcs	3, 0, cr0, cr9, cr15, {1}
     398:	2f4b4b4d 	svccs	0x004b4b4d
     39c:	661a034c 	ldrvs	r0, [sl], -ip, asr #6
     3a0:	4e2e6b03 	vmulmi.f64	d6, d14, d3
     3a4:	364b504b 	strbcc	r5, [fp], -fp, asr #32
     3a8:	660c034b 	strvs	r0, [ip], -fp, asr #6
     3ac:	5703694b 	strpl	r6, [r3, -fp, asr #18]
     3b0:	661a034a 	ldrvs	r0, [sl], -sl, asr #6
     3b4:	6767834b 	strbvs	r8, [r7, -fp, asr #6]!
     3b8:	6848684b 	stmdavs	r8, {r0, r1, r3, r6, fp, sp, lr}^
     3bc:	ac081403 	cfstrsge	mvf1, [r8], {3}
     3c0:	302e1203 	eorcc	r1, lr, r3, lsl #4
     3c4:	01040200 	mrseq	r0, R12_usr
     3c8:	066606a0 	strbteq	r0, [r6], -r0, lsr #13
     3cc:	2e0b0335 	mcrcs	3, 0, r0, cr11, cr5, {1}
     3d0:	4c2e7503 	cfstr32mi	mvfx7, [lr], #-12
     3d4:	2a324d30 	bcs	c9389c <__bss_end+0xc902e8>
     3d8:	034e8432 	movteq	r8, #58418	; 0xe432
     3dc:	034b660a 	movteq	r6, #46602	; 0xb60a
     3e0:	2b314a0a 	blcs	c52c10 <__bss_end+0xc4f65c>
     3e4:	2e2a034d 	cdpcs	3, 2, cr0, cr10, cr13, {2}
     3e8:	034d2f67 	movteq	r2, #57191	; 0xdf67
     3ec:	4f6600f9 	svcmi	0x006600f9
     3f0:	034f2933 	movteq	r2, #63795	; 0xf933
     3f4:	032f2e09 	teqeq	pc, #144	; 0x90
     3f8:	54032e2c 	strpl	r2, [r3], #-3628	; 0xe2c
     3fc:	7efa032e 	cdpvc	3, 15, cr0, cr10, cr14, {1}
     400:	bc314b2e 	ldclt	11, cr4, [r1], #-184	; 0xffffff48
     404:	4a74032f 	bmi	1d010c8 <__bss_end+0x1cfdb14>
     408:	7fb8034b 	svcvc	0x00b8034b
     40c:	48842f66 	stmmi	r4, {r1, r2, r5, r6, r8, r9, sl, fp, sp}
     410:	000e0230 	andeq	r0, lr, r0, lsr r2
     414:	01490101 	cmpeq	r9, r1, lsl #2
     418:	00020000 	andeq	r0, r2, r0
     41c:	00000083 	andeq	r0, r0, r3, lsl #1
     420:	0efb0102 	cdpeq	1, 15, cr0, cr11, cr2, {0}
     424:	0101000d 	tsteq	r1, sp
     428:	00000101 	andeq	r0, r0, r1, lsl #2
     42c:	00000100 	andeq	r0, r0, r0, lsl #2
     430:	63726101 	cmnvs	r2, #1073741824	; 0x40000000
     434:	72612f68 	rsbvc	r2, r1, #416	; 0x1a0
     438:	616d2f6d 	cmnvs	sp, sp, ror #30
     43c:	732d6863 	teqvc	sp, #6488064	; 0x630000
     440:	69786e75 	ldmdbvs	r8!, {r0, r2, r4, r5, r6, r9, sl, fp, sp, lr}^
     444:	2f6d702f 	svccs	0x006d702f
     448:	6e617473 	mcrvs	4, 3, r7, cr1, cr3, {3}
     44c:	2f796264 	svccs	0x00796264
     450:	69002e2e 	stmdbvs	r0, {r1, r2, r3, r5, r9, sl, fp, sp}
     454:	756c636e 	strbvc	r6, [ip, #-878]!	; 0x36e
     458:	6c2f6564 	cfstr32vs	mvfx6, [pc], #-400	; 2d0 <set_pll+0xbc>
     45c:	78756e69 	ldmdavc	r5!, {r0, r3, r5, r6, r9, sl, fp, sp, lr}^
     460:	776f702f 	strbvc	r7, [pc, -pc, lsr #32]!
     464:	00007265 	andeq	r7, r0, r5, ror #4
     468:	645f6d70 	ldrbvs	r6, [pc], #-3440	; 470 <mem_status_clear+0x80>
     46c:	67756265 	ldrbvs	r6, [r5, -r5, ror #4]!
     470:	0100632e 	tsteq	r0, lr, lsr #6
     474:	6d700000 	ldclvs	0, cr0, [r0, #-0]
     478:	6265645f 	rsbvs	r6, r5, #1593835520	; 0x5f000000
     47c:	682e6775 	stmdavs	lr!, {r0, r2, r4, r5, r6, r8, r9, sl, sp, lr}
     480:	00000100 	andeq	r0, r0, r0, lsl #2
     484:	745f6d70 	ldrbvc	r6, [pc], #-3440	; 48c <save_mem_status+0x4>
     488:	73657079 	cmnvc	r5, #121	; 0x79
     48c:	0100682e 	tsteq	r0, lr, lsr #16
     490:	78610000 	stmdavc	r1!, {}^	; <UNPREDICTABLE>
     494:	65645f70 	strbvs	r5, [r4, #-3952]!	; 0xf70
     498:	646e6570 	strbtvs	r6, [lr], #-1392	; 0x570
     49c:	0200682e 	andeq	r6, r0, #3014656	; 0x2e0000
     4a0:	00000000 	andeq	r0, r0, r0
     4a4:	03800205 	orreq	r0, r0, #1342177280	; 0x50000000
     4a8:	0b030000 	bleq	c04b0 <__bss_end+0xbcefc>
     4ac:	02003001 	andeq	r3, r0, #1
     4b0:	6a4b0104 	bvs	12c08c8 <__bss_end+0x12bd314>
     4b4:	19361a51 	ldmdbne	r6!, {r0, r4, r6, r9, fp, ip}
     4b8:	2d4b1336 	stclcs	3, cr1, [fp, #-216]	; 0xffffff28
     4bc:	322b314b 	eorcc	r3, fp, #-1073741806	; 0xc0000012
     4c0:	4b133211 	blmi	4ccd0c <__bss_end+0x4c9758>
     4c4:	2b314b2d 	blcs	c53180 <__bss_end+0xc4fbcc>
     4c8:	32321132 	eorscc	r1, r2, #-2147483636	; 0x8000000c
     4cc:	672d2f2d 	strvs	r2, [sp, -sp, lsr #30]!
     4d0:	780336a0 	stmdavc	r3, {r5, r7, r9, sl, ip, sp}
     4d4:	2f2f2d2e 	svccs	0x002f2d2e
     4d8:	2f2d2f2f 	svccs	0x002d2f2f
     4dc:	2f672f4b 	svccs	0x00672f4b
     4e0:	2e770367 	cdpcs	3, 7, cr0, cr7, cr7, {3}
     4e4:	302e0c03 	eorcc	r0, lr, r3, lsl #24
     4e8:	31144f2c 	tstcc	r4, ip, lsr #30
     4ec:	4b9f2f4a 	blmi	fe7cc21c <__bss_end+0xfe7c8c68>
     4f0:	2e770336 	mrccs	3, 3, r0, cr7, cr6, {1}
     4f4:	2f4b2c30 	svccs	0x004b2c30
     4f8:	4b2f2d2f 	blmi	bcb9bc <__bss_end+0xbc8408>
     4fc:	672f672f 	strvs	r6, [pc, -pc, lsr #14]!
     500:	302f312f 	eorcc	r3, pc, pc, lsr #2
     504:	484c3069 	stmdami	ip, {r0, r3, r5, r6, ip, sp}^
     508:	2b316768 	blcs	c5a2b0 <__bss_end+0xc56cfc>
     50c:	69334b4c 	ldmdbvs	r3!, {r2, r3, r6, r8, r9, fp, lr}
     510:	474d4d2f 	strbmi	r4, [sp, -pc, lsr #26]
     514:	2c686e4d 	stclcs	14, cr6, [r8], #-308	; 0xfffffecc
     518:	032e7403 	teqeq	lr, #50331648	; 0x3000000
     51c:	75034a10 	strvc	r4, [r3, #-2576]	; 0xa10
     520:	4c2b312e 	stfmis	f3, [fp], #-184	; 0xffffff48
     524:	820b034b 	andhi	r0, fp, #738197505	; 0x2c000001
     528:	0e032f4a 	cdpeq	15, 0, cr2, cr3, cr10, {2}
     52c:	4a73039e 	bmi	1cc13ac <__bss_end+0x1cbddf8>
     530:	7703364b 	strvc	r3, [r3, -fp, asr #12]
     534:	4b2c302e 	blmi	b0c5f4 <__bss_end+0xb09040>
     538:	2f2d2f2f 	svccs	0x002d2f2f
     53c:	2f672f4b 	svccs	0x00672f4b
     540:	03463367 	movteq	r3, #25447	; 0x6367
     544:	144a00cd 	strbne	r0, [sl], #-205	; 0xcd
     548:	671631a1 	ldrvs	r3, [r6, -r1, lsr #3]
     54c:	1531312f 	ldrne	r3, [r1, #-303]!	; 0x12f
     550:	34312f68 	ldrtcc	r2, [r1], #-3944	; 0xf68
     554:	2a4c4c30 	bcs	131361c <__bss_end+0x1310068>
     558:	2c312f30 	ldccs	15, cr2, [r1], #-192	; 0xffffff40
     55c:	02023131 	andeq	r3, r2, #1073741836	; 0x4000000c
     560:	2f010100 	svccs	0x00010100
     564:	02000001 	andeq	r0, r0, #1
     568:	0000a900 	andeq	sl, r0, r0, lsl #18
     56c:	fb010200 	blx	40d76 <__bss_end+0x3d7c2>
     570:	01000d0e 	tsteq	r0, lr, lsl #26
     574:	00010101 	andeq	r0, r1, r1, lsl #2
     578:	00010000 	andeq	r0, r1, r0
     57c:	72610100 	rsbvc	r0, r1, #0
     580:	612f6863 	teqvs	pc, r3, ror #16
     584:	6d2f6d72 	stcvs	13, cr6, [pc, #-456]!	; 3c4 <mem_status_init+0x1c>
     588:	2d686361 	stclcs	3, cr6, [r8, #-388]!	; 0xfffffe7c
     58c:	786e7573 	stmdavc	lr!, {r0, r1, r4, r5, r6, r8, sl, ip, sp, lr}^
     590:	6d702f69 	ldclvs	15, cr2, [r0, #-420]!	; 0xfffffe5c
     594:	6174732f 	cmnvs	r4, pc, lsr #6
     598:	7962646e 	stmdbvc	r2!, {r1, r2, r3, r5, r6, sl, sp, lr}^
     59c:	002e2e2f 	eoreq	r2, lr, pc, lsr #28
     5a0:	68637261 	stmdavs	r3!, {r0, r5, r6, r9, ip, sp, lr}^
     5a4:	6d72612f 	ldfvse	f6, [r2, #-188]!	; 0xffffff44
     5a8:	63616d2f 	cmnvs	r1, #3008	; 0xbc0
     5ac:	75732d68 	ldrbvc	r2, [r3, #-3432]!	; 0xd68
     5b0:	2f69786e 	svccs	0x0069786e
     5b4:	732f6d70 	teqvc	pc, #7168	; 0x1c00
     5b8:	646e6174 	strbtvs	r6, [lr], #-372	; 0x174
     5bc:	2e2f7962 	cdpcs	9, 2, cr7, cr15, cr2, {3}
     5c0:	002e2f2e 	eoreq	r2, lr, lr, lsr #30
     5c4:	6c636e69 	stclvs	14, cr6, [r3], #-420	; 0xfffffe5c
     5c8:	2f656475 	svccs	0x00656475
     5cc:	756e696c 	strbvc	r6, [lr, #-2412]!	; 0x96c
     5d0:	6f702f78 	svcvs	0x00702f78
     5d4:	00726577 	rsbseq	r6, r2, r7, ror r5
     5d8:	6d656d00 	stclvs	13, cr6, [r5, #-0]
     5dc:	6d69745f 	cfstrdvs	mvd7, [r9, #-380]!	; 0xfffffe84
     5e0:	2e676e69 	cdpcs	14, 6, cr6, cr7, cr9, {3}
     5e4:	00010063 	andeq	r0, r1, r3, rrx
     5e8:	5f6d7000 	svcpl	0x006d7000
     5ec:	65707974 	ldrbvs	r7, [r0, #-2420]!	; 0x974
     5f0:	00682e73 	rsbeq	r2, r8, r3, ror lr
     5f4:	70000001 	andvc	r0, r0, r1
     5f8:	65645f6d 	strbvs	r5, [r4, #-3949]!	; 0xf6d
     5fc:	2e677562 	cdpcs	5, 6, cr7, cr7, cr2, {3}
     600:	00020068 	andeq	r0, r2, r8, rrx
     604:	70786100 	rsbsvc	r6, r8, r0, lsl #2
     608:	7065645f 	rsbvc	r6, r5, pc, asr r4
     60c:	2e646e65 	cdpcs	14, 6, cr6, cr4, cr5, {3}
     610:	00030068 	andeq	r0, r3, r8, rrx
     614:	05000000 	streq	r0, [r0, #-0]
     618:	0006f802 	andeq	pc, r6, r2, lsl #16
     61c:	010c0300 	mrseq	r0, LR_mon
     620:	66090314 			; <UNDEFINED> instruction: 0x66090314
     624:	3231302f 	eorscc	r3, r1, #47	; 0x2f
     628:	312f2f4d 	teqcc	pc, sp, asr #30
     62c:	4c851431 	cfstrsmi	mvf1, [r5], {49}	; 0x31
     630:	84851531 	strhi	r1, [r5], #1329	; 0x531
     634:	31301531 	teqcc	r0, r1, lsr r5
     638:	2f312f15 	svccs	0x00312f15
     63c:	2e700331 	mrccs	3, 3, r0, cr0, cr1, {1}
     640:	bc4a1903 	mcrrlt	9, 0, r1, sl, cr3
     644:	362e504b 	strtcc	r5, [lr], -fp, asr #32
     648:	2f823203 	svccs	0x00823203
     64c:	2e4c0330 	mcrcs	3, 2, r0, cr12, cr0, {1}
     650:	034a5503 	movteq	r5, #42243	; 0xa503
     654:	79032e32 	stmdbvc	r3, {r1, r4, r5, r9, sl, fp, sp}
     658:	2f4d352e 	svccs	0x004d352e
     65c:	667fa303 	ldrbtvs	sl, [pc], -r3, lsl #6
     660:	2f2f4d4e 	svccs	0x002f4d4e
     664:	034a1e03 	movteq	r1, #44547	; 0xae03
     668:	2b032e3a 	blcs	cbf58 <__bss_end+0xc89a4>
     66c:	2e2d139e 	mcrcs	3, 1, r1, cr13, cr14, {4}
     670:	2d2f2f2f 	stccs	15, cr2, [pc, #-188]!	; 5bc <show_mem_status+0x4c>
     674:	2c4c4f2d 	mcrrcs	15, 2, r4, ip, cr13
     678:	142e2003 	strtne	r2, [lr], #-3
     67c:	2f660903 	svccs	0x00660903
     680:	4d323130 	ldfmis	f3, [r2, #-192]!	; 0xffffff40
     684:	31a43131 			; <UNDEFINED> instruction: 0x31a43131
     688:	4e312f30 	mrcmi	15, 1, r2, cr1, cr0, {1}
     68c:	2f3031a4 	svccs	0x003031a4
     690:	00040231 	andeq	r0, r4, r1, lsr r2
     694:	00b90101 	adcseq	r0, r9, r1, lsl #2
     698:	00020000 	andeq	r0, r2, r0
     69c:	0000007f 	andeq	r0, r0, pc, ror r0
     6a0:	0efb0102 	cdpeq	1, 15, cr0, cr11, cr2, {0}
     6a4:	0101000d 	tsteq	r1, sp
     6a8:	00000101 	andeq	r0, r0, r1, lsl #2
     6ac:	00000100 	andeq	r0, r0, r0, lsl #2
     6b0:	63726101 	cmnvs	r2, #1073741824	; 0x40000000
     6b4:	72612f68 	rsbvc	r2, r1, #416	; 0x1a0
     6b8:	616d2f6d 	cmnvs	sp, sp, ror #30
     6bc:	732d6863 	teqvc	sp, #6488064	; 0x630000
     6c0:	69786e75 	ldmdbvs	r8!, {r0, r2, r4, r5, r6, r9, sl, fp, sp, lr}^
     6c4:	2f6d702f 	svccs	0x006d702f
     6c8:	6e617473 	mcrvs	4, 3, r7, cr1, cr3, {3}
     6cc:	2f796264 	svccs	0x00796264
     6d0:	61002e2e 	tstvs	r0, lr, lsr #28
     6d4:	2f686372 	svccs	0x00686372
     6d8:	2f6d7261 	svccs	0x006d7261
     6dc:	6863616d 	stmdavs	r3!, {r0, r2, r3, r5, r6, r8, sp, lr}^
     6e0:	6e75732d 	cdpvs	3, 7, cr7, cr5, cr13, {1}
     6e4:	702f6978 	eorvc	r6, pc, r8, ror r9	; <UNPREDICTABLE>
     6e8:	74732f6d 	ldrbtvc	r2, [r3], #-3949	; 0xf6d
     6ec:	62646e61 	rsbvs	r6, r4, #1552	; 0x610
     6f0:	2e2e2f79 	mcrcs	15, 1, r2, cr14, cr9, {3}
     6f4:	00002e2f 	andeq	r2, r0, pc, lsr #28
     6f8:	5f6d656d 	svcpl	0x006d656d
     6fc:	5f756d6d 	svcpl	0x00756d6d
     700:	632e6370 	teqvs	lr, #-1073741823	; 0xc0000001
     704:	00000100 	andeq	r0, r0, r0, lsl #2
     708:	682e6d70 	stmdavs	lr!, {r4, r5, r6, r8, sl, fp, sp, lr}
     70c:	00000200 	andeq	r0, r0, r0, lsl #4
     710:	745f6d70 	ldrbvc	r6, [pc], #-3440	; 718 <init_perfcounters+0x20>
     714:	73657079 	cmnvc	r5, #121	; 0x79
     718:	0100682e 	tsteq	r0, lr, lsr #16
     71c:	00000000 	andeq	r0, r0, r0
     720:	09000205 	stmdbeq	r0, {r0, r2, r9}
     724:	14190000 	ldrne	r0, [r9], #-0
     728:	4b4f4d4c 	blmi	13d3c60 <__bss_end+0x13d06ac>
     72c:	304d4d4b 	subcc	r4, sp, fp, asr #26
     730:	4e4c4c16 	mcrmi	12, 2, r4, cr12, cr6, {0}
     734:	4c4e4b4b 	mcrrmi	11, 4, r4, lr, cr11
     738:	302f2f2f 	eorcc	r2, pc, pc, lsr #30
     73c:	4c4c1630 	mcrrmi	6, 3, r1, ip, cr0
     740:	4b2f4b4e 	blmi	bd3480 <__bss_end+0xbcfecc>
     744:	13131367 	tstne	r3, #-1677721599	; 0x9c000001
     748:	2f2f4c32 	svccs	0x002f4c32
     74c:	0202302f 	andeq	r3, r2, #47	; 0x2f
     750:	af010100 	svcge	0x00010100
     754:	02000001 	andeq	r0, r0, #1
     758:	00004900 	andeq	r4, r0, r0, lsl #18
     75c:	fb010200 	blx	40f66 <__bss_end+0x3d9b2>
     760:	01000d0e 	tsteq	r0, lr, lsl #26
     764:	00010101 	andeq	r0, r1, r1, lsl #2
     768:	00010000 	andeq	r0, r1, r0
     76c:	72610100 	rsbvc	r0, r1, #0
     770:	612f6863 	teqvs	pc, r3, ror #16
     774:	6d2f6d72 	stcvs	13, cr6, [pc, #-456]!	; 5b4 <show_mem_status+0x44>
     778:	2d686361 	stclcs	3, cr6, [r8, #-388]!	; 0xfffffe7c
     77c:	786e7573 	stmdavc	lr!, {r0, r1, r4, r5, r6, r8, sl, ip, sp, lr}^
     780:	6d702f69 	ldclvs	15, cr2, [r0, #-420]!	; 0xfffffe5c
     784:	6174732f 	cmnvs	r4, pc, lsr #6
     788:	7962646e 	stmdbvc	r2!, {r1, r2, r3, r5, r6, sl, sp, lr}^
     78c:	002e2e2f 	eoreq	r2, lr, pc, lsr #28
     790:	6d656d00 	stclvs	13, cr6, [r5, #-0]
     794:	756d6d5f 	strbvc	r6, [sp, #-3423]!	; 0xd5f
     798:	5f63705f 	svcpl	0x0063705f
     79c:	2e6d7361 	cdpcs	3, 6, cr7, cr13, cr1, {3}
     7a0:	00010053 	andeq	r0, r1, r3, asr r0
     7a4:	05000000 	streq	r0, [r0, #-0]
     7a8:	0009e002 	andeq	lr, r9, r2
     7ac:	010a0300 	mrseq	r0, (UNDEF: 58)
     7b0:	2f332f2f 	svccs	0x00332f2f
     7b4:	332f332f 	teqcc	pc, #-1140850688	; 0xbc000000
     7b8:	302f6b2f 	eorcc	r6, pc, pc, lsr #22
     7bc:	2f4a1303 	svccs	0x004a1303
     7c0:	2f2f2f2f 	svccs	0x002f2f2f
     7c4:	2f2f2f30 	svccs	0x002f2f30
     7c8:	2f2f2f2f 	svccs	0x002f2f2f
     7cc:	2f2f2f2f 	svccs	0x002f2f2f
     7d0:	302f2f2f 	eorcc	r2, pc, pc, lsr #30
     7d4:	2f2f2f30 	svccs	0x002f2f30
     7d8:	302f2f2f 	eorcc	r2, pc, pc, lsr #30
     7dc:	30302f2f 	eorscc	r2, r0, pc, lsr #30
     7e0:	33302f2f 	teqcc	r0, #188	; 0xbc
     7e4:	2f2f2f2f 	svccs	0x002f2f2f
     7e8:	2f2f332f 	svccs	0x002f332f
     7ec:	2f2f2f2f 	svccs	0x002f2f2f
     7f0:	2f2f2f30 	svccs	0x002f2f30
     7f4:	2f2f2f2f 	svccs	0x002f2f2f
     7f8:	2f2f2f2f 	svccs	0x002f2f2f
     7fc:	302f2f2f 	eorcc	r2, pc, pc, lsr #30
     800:	2f2f2f30 	svccs	0x002f2f30
     804:	302f2f2f 	eorcc	r2, pc, pc, lsr #30
     808:	30302f2f 	eorscc	r2, r0, pc, lsr #30
     80c:	2f2f2f2f 	svccs	0x002f2f2f
     810:	2f2f2f34 	svccs	0x002f2f34
     814:	2f2f2f2f 	svccs	0x002f2f2f
     818:	2f2f332f 	svccs	0x002f332f
     81c:	2f2f2f2f 	svccs	0x002f2f2f
     820:	2f2f332f 	svccs	0x002f332f
     824:	2f2f2f2f 	svccs	0x002f2f2f
     828:	2f2f2f33 	svccs	0x002f2f33
     82c:	342f2f2f 	strtcc	r2, [pc], #-3887	; 834 <delay_us+0x7c>
     830:	2f2f2f2f 	svccs	0x002f2f2f
     834:	2f332f2f 	svccs	0x00332f2f
     838:	2f2f2f2f 	svccs	0x002f2f2f
     83c:	2f332f2f 	svccs	0x00332f2f
     840:	2f2f2f2f 	svccs	0x002f2f2f
     844:	2e0a032f 	cdpcs	3, 0, cr0, cr10, cr15, {1}
     848:	2f2f2f2f 	svccs	0x002f2f2f
     84c:	2f2f342f 	svccs	0x002f342f
     850:	2f2f2f2f 	svccs	0x002f2f2f
     854:	2f2f2f33 	svccs	0x002f2f33
     858:	032f2f2f 	teqeq	pc, #188	; 0xbc
     85c:	302f2e09 	eorcc	r2, pc, r9, lsl #28
     860:	2f2f3030 	svccs	0x002f3030
     864:	30332f2f 	eorscc	r2, r3, pc, lsr #30
     868:	2f2f2f2f 	svccs	0x002f2f2f
     86c:	312f2f2f 	teqcc	pc, pc, lsr #30
     870:	2f2f2f2f 	svccs	0x002f2f2f
     874:	2f2f2f2f 	svccs	0x002f2f2f
     878:	2f2f2f2f 	svccs	0x002f2f2f
     87c:	2f2f2f2f 	svccs	0x002f2f2f
     880:	2f2f2f2f 	svccs	0x002f2f2f
     884:	2f2f2f2f 	svccs	0x002f2f2f
     888:	2f2f2f2f 	svccs	0x002f2f2f
     88c:	2f2f2f2f 	svccs	0x002f2f2f
     890:	2f2f2f2f 	svccs	0x002f2f2f
     894:	302f2f2f 	eorcc	r2, pc, pc, lsr #30
     898:	2f2f2f2f 	svccs	0x002f2f2f
     89c:	2f2f2f2f 	svccs	0x002f2f2f
     8a0:	2f2f2f2f 	svccs	0x002f2f2f
     8a4:	302f312f 	eorcc	r3, pc, pc, lsr #2
     8a8:	2e0a032f 	cdpcs	3, 0, cr0, cr10, cr15, {1}
     8ac:	c02f2f2f 	eorgt	r2, pc, pc, lsr #30
     8b0:	302f2f30 	eorcc	r2, pc, r0, lsr pc	; <UNPREDICTABLE>
     8b4:	2f2f2f34 	svccs	0x002f2f34
     8b8:	2f2f30f8 	svccs	0x002f30f8
     8bc:	2e0d0330 	mcrcs	3, 0, r0, cr13, cr0, {1}
     8c0:	03302f2f 	teqeq	r0, #188	; 0xbc
     8c4:	2f2f820c 	svccs	0x002f820c
     8c8:	2f2f2f2f 	svccs	0x002f2f2f
     8cc:	2f6d2f50 	svccs	0x006d2f50
     8d0:	2f30302f 	svccs	0x0030302f
     8d4:	302f302f 	eorcc	r3, pc, pc, lsr #32
     8d8:	2e7ca403 	cdpcs	4, 7, cr10, cr12, cr3, {0}
     8dc:	2e390335 	mrccs	3, 1, r0, cr9, cr5, {1}
     8e0:	01e80331 	mvneq	r0, r1, lsr r3
     8e4:	3230302e 	eorscc	r3, r0, #46	; 0x2e
     8e8:	30303030 	eorscc	r3, r0, r0, lsr r0
     8ec:	30303030 	eorscc	r3, r0, r0, lsr r0
     8f0:	30303030 	eorscc	r3, r0, r0, lsr r0
     8f4:	30303030 	eorscc	r3, r0, r0, lsr r0
     8f8:	31303030 	teqcc	r0, r0, lsr r0
     8fc:	30303030 	eorscc	r3, r0, r0, lsr r0
     900:	00020232 	andeq	r0, r2, r2, lsr r2
     904:	01400101 	cmpeq	r0, r1, lsl #2
     908:	00020000 	andeq	r0, r2, r0
     90c:	000000a5 	andeq	r0, r0, r5, lsr #1
     910:	0efb0102 	cdpeq	1, 15, cr0, cr11, cr2, {0}
     914:	0101000d 	tsteq	r1, sp
     918:	00000101 	andeq	r0, r0, r1, lsl #2
     91c:	00000100 	andeq	r0, r0, r0, lsl #2
     920:	63726101 	cmnvs	r2, #1073741824	; 0x40000000
     924:	72612f68 	rsbvc	r2, r1, #416	; 0x1a0
     928:	616d2f6d 	cmnvs	sp, sp, ror #30
     92c:	732d6863 	teqvc	sp, #6488064	; 0x630000
     930:	69786e75 	ldmdbvs	r8!, {r0, r2, r4, r5, r6, r9, sl, fp, sp, lr}^
     934:	2f6d702f 	svccs	0x006d702f
     938:	6e617473 	mcrvs	4, 3, r7, cr1, cr3, {3}
     93c:	2f796264 	svccs	0x00796264
     940:	61002e2e 	tstvs	r0, lr, lsr #28
     944:	2f686372 	svccs	0x00686372
     948:	2f6d7261 	svccs	0x006d7261
     94c:	6863616d 	stmdavs	r3!, {r0, r2, r3, r5, r6, r8, sp, lr}^
     950:	6e75732d 	cdpvs	3, 7, cr7, cr5, cr13, {1}
     954:	702f6978 	eorvc	r6, pc, r8, ror r9	; <UNPREDICTABLE>
     958:	74732f6d 	ldrbtvc	r2, [r3], #-3949	; 0xf6d
     95c:	62646e61 	rsbvs	r6, r4, #1552	; 0x610
     960:	2e2e2f79 	mcrcs	15, 1, r2, cr14, cr9, {3}
     964:	69002e2f 	stmdbvs	r0, {r0, r1, r2, r3, r5, r9, sl, fp, sp}
     968:	756c636e 	strbvc	r6, [ip, #-878]!	; 0x36e
     96c:	6c2f6564 	cfstr32vs	mvfx6, [pc], #-400	; 7e4 <delay_us+0x2c>
     970:	78756e69 	ldmdavc	r5!, {r0, r3, r5, r6, r9, sl, fp, sp, lr}^
     974:	776f702f 	strbvc	r7, [pc, -pc, lsr #32]!
     978:	00007265 	andeq	r7, r0, r5, ror #4
     97c:	5f6d656d 	svcpl	0x006d656d
     980:	2e757063 	cdpcs	0, 7, cr7, cr5, cr3, {3}
     984:	00010063 	andeq	r0, r1, r3, rrx
     988:	6d656d00 	stclvs	13, cr6, [r5, #-0]
     98c:	7570635f 	ldrbvc	r6, [r0, #-863]!	; 0x35f
     990:	0200682e 	andeq	r6, r0, #3014656	; 0x2e0000
     994:	6d700000 	ldclvs	0, cr0, [r0, #-0]
     998:	7079745f 	rsbsvc	r7, r9, pc, asr r4
     99c:	682e7365 	stmdavs	lr!, {r0, r2, r5, r6, r8, r9, ip, sp, lr}
     9a0:	00000100 	andeq	r0, r0, r0, lsl #2
     9a4:	5f707861 	svcpl	0x00707861
     9a8:	65706564 	ldrbvs	r6, [r0, #-1380]!	; 0x564
     9ac:	682e646e 	stmdavs	lr!, {r1, r2, r3, r5, r6, sl, sp, lr}
     9b0:	00000300 	andeq	r0, r0, r0, lsl #6
     9b4:	02050000 	andeq	r0, r5, #0
     9b8:	00000f40 	andeq	r0, r0, r0, asr #30
     9bc:	01018a03 	tsteq	r1, r3, lsl #20
     9c0:	f2100316 	vcge.s16	d0, d0, d6
     9c4:	f3f3f8f3 			; <UNDEFINED> instruction: 0xf3f3f8f3
     9c8:	f3f3f6f6 	vqshlu.s64	<illegal reg q15.5>, q11, #51	; 0x33
     9cc:	f6f3f6f3 			; <UNDEFINED> instruction: 0xf6f3f6f3
     9d0:	f3f3f3f6 	vrsra.u64	<illegal reg q15.5>, q11, #13
     9d4:	f3f20b03 	vtbl.8	d16, {d2-d5}, d3
     9d8:	f3f3f3f3 	vrsra.u64	<illegal reg q15.5>, <illegal reg q9.5>, #13
     9dc:	f21403f3 	vcge.s16	q0, q10, <illegal reg q9.5>
     9e0:	f21703f3 	vcge.s16	q0, <illegal reg q11.5>, <illegal reg q9.5>
     9e4:	f3f20903 	vtbl.8	d16, {d2-d3}, d3
     9e8:	34f9f3f3 	ldrbtcc	pc, [r9], #1011	; 0x3f3	; <UNPREDICTABLE>
     9ec:	f20e0314 	vcge.s8	d0, d14, d4
     9f0:	2f2ff3f6 	svccs	0x002ff3f6
     9f4:	f32f2ff3 			; <UNDEFINED> instruction: 0xf32f2ff3
     9f8:	f5f4322f 			; <UNDEFINED> instruction: 0xf5f4322f
     9fc:	f3f3f3f3 	vrsra.u64	<illegal reg q15.5>, <illegal reg q9.5>, #13
     a00:	f3faf3f3 	vrsra.u64	<illegal reg q15.5>, <illegal reg q9.5>, #6
     a04:	f9f21703 			; <UNDEFINED> instruction: 0xf9f21703
     a08:	f9f3f3f3 			; <UNDEFINED> instruction: 0xf9f3f3f3
     a0c:	14332f2f 	ldrtne	r2, [r3], #-3887	; 0xf2f
     a10:	34312f68 	ldrtcc	r2, [r1], #-3944	; 0xf68
     a14:	4a0b0315 	bmi	2c1670 <__bss_end+0x2be0bc>
     a18:	304e4b67 	subcc	r4, lr, r7, ror #22
     a1c:	2f30302f 	svccs	0x0030302f
     a20:	2f302f2f 	svccs	0x00302f2f
     a24:	2f2f3130 	svccs	0x002f3130
     a28:	672e0d03 	strvs	r0, [lr, -r3, lsl #26]!
     a2c:	4b661703 	blmi	1986640 <__bss_end+0x198308c>
     a30:	2f302f2f 	svccs	0x00302f2f
     a34:	4b133231 	blmi	4cd300 <__bss_end+0x4c9d4c>
     a38:	4b133311 	blmi	4cd684 <__bss_end+0x4ca0d0>
     a3c:	84133211 	ldrhi	r3, [r3], #-529	; 0x211
     a40:	2f301531 	svccs	0x00301531
     a44:	00020230 	andeq	r0, r2, r0, lsr r2
     a48:	02070101 	andeq	r0, r7, #1073741824	; 0x40000000
     a4c:	00020000 	andeq	r0, r2, r0
     a50:	0000008f 	andeq	r0, r0, pc, lsl #1
     a54:	0efb0102 	cdpeq	1, 15, cr0, cr11, cr2, {0}
     a58:	0101000d 	tsteq	r1, sp
     a5c:	00000101 	andeq	r0, r0, r1, lsl #2
     a60:	00000100 	andeq	r0, r0, r0, lsl #2
     a64:	63726101 	cmnvs	r2, #1073741824	; 0x40000000
     a68:	72612f68 	rsbvc	r2, r1, #416	; 0x1a0
     a6c:	616d2f6d 	cmnvs	sp, sp, ror #30
     a70:	732d6863 	teqvc	sp, #6488064	; 0x630000
     a74:	69786e75 	ldmdbvs	r8!, {r0, r2, r4, r5, r6, r9, sl, fp, sp, lr}^
     a78:	2f6d702f 	svccs	0x006d702f
     a7c:	6e617473 	mcrvs	4, 3, r7, cr1, cr3, {3}
     a80:	2f796264 	svccs	0x00796264
     a84:	69002e2e 	stmdbvs	r0, {r1, r2, r3, r5, r9, sl, fp, sp}
     a88:	756c636e 	strbvc	r6, [ip, #-878]!	; 0x36e
     a8c:	6c2f6564 	cfstr32vs	mvfx6, [pc], #-400	; 904 <save_mmu_state+0x4>
     a90:	78756e69 	ldmdavc	r5!, {r0, r3, r5, r6, r9, sl, fp, sp, lr}^
     a94:	776f702f 	strbvc	r7, [pc, -pc, lsr #32]!
     a98:	00007265 	andeq	r7, r0, r5, ror #4
     a9c:	5f6d656d 	svcpl	0x006d656d
     aa0:	69726573 	ldmdbvs	r2!, {r0, r1, r4, r5, r6, r8, sl, sp, lr}^
     aa4:	632e6c61 	teqvs	lr, #24832	; 0x6100
     aa8:	00000100 	andeq	r0, r0, r0, lsl #2
     aac:	745f6d70 	ldrbvc	r6, [pc], #-3440	; ab4 <invalidate_icache>
     ab0:	73657079 	cmnvc	r5, #121	; 0x79
     ab4:	0100682e 	tsteq	r0, lr, lsr #16
     ab8:	656d0000 	strbvs	r0, [sp, #-0]!
     abc:	63635f6d 	cmnvs	r3, #436	; 0x1b4
     ac0:	732d756d 	teqvc	sp, #457179136	; 0x1b400000
     ac4:	69386e75 	ldmdbvs	r8!, {r0, r2, r4, r5, r6, r9, sl, fp, sp, lr}
     ac8:	31703677 	cmncc	r0, r7, ror r6
     acc:	0100682e 	tsteq	r0, lr, lsr #16
     ad0:	78610000 	stmdavc	r1!, {}^	; <UNPREDICTABLE>
     ad4:	65645f70 	strbvs	r5, [r4, #-3952]!	; 0xf70
     ad8:	646e6570 	strbtvs	r6, [lr], #-1392	; 0x570
     adc:	0200682e 	andeq	r6, r0, #3014656	; 0x2e0000
     ae0:	00000000 	andeq	r0, r0, r0
     ae4:	16f00205 	ldrbtne	r0, [r0], r5, lsl #4
     ae8:	d9030000 	stmdble	r3, {}	; <UNPREDICTABLE>
     aec:	512e0101 	teqpl	lr, r1, lsl #2
     af0:	0c034f34 	stceq	15, cr4, [r3], {52}	; 0x34
     af4:	2f677408 	svccs	0x00677408
     af8:	67302f31 			; <UNDEFINED> instruction: 0x67302f31
     afc:	6403312f 	strvs	r3, [r3], #-303	; 0x12f
     b00:	032d672e 	teqeq	sp, #12058624	; 0xb80000
     b04:	0c034a75 	stceq	10, cr4, [r3], {117}	; 0x75
     b08:	a9032d2e 	stmdbge	r3, {r1, r2, r3, r5, r8, sl, fp, sp}
     b0c:	032e667e 	teqeq	lr, #132120576	; 0x7e00000
     b10:	322f2e0b 	eorcc	r2, pc, #176	; 0xb0
     b14:	032a4e2a 	teqeq	sl, #672	; 0x2a0
     b18:	30a52e17 	adccc	r2, r5, r7, lsl lr
     b1c:	03821403 	orreq	r1, r2, #50331648	; 0x3000000
     b20:	09032e63 	stmdbeq	r3, {r0, r1, r5, r6, r9, sl, fp, sp}
     b24:	1203302e 	andne	r3, r3, #46	; 0x2e
     b28:	2f67684a 	svccs	0x0067684a
     b2c:	7803364d 	stmdavc	r3, {r0, r2, r3, r6, r9, sl, ip, sp}
     b30:	036c4c2e 	cmneq	ip, #11776	; 0x2e00
     b34:	146601a7 	strbtne	r0, [r6], #-423	; 0x1a7
     b38:	4c4b4ca0 	mcrrmi	12, 10, r4, fp, cr0
     b3c:	2e019103 	mvfcss	f1, f3
     b40:	4a7ef403 	bmi	1fbdb54 <__bss_end+0x1fba5a0>
     b44:	2e4a2a03 	vmlacs.f32	s5, s20, s6
     b48:	674d4b33 	smlaldxvs	r4, sp, r3, fp
     b4c:	034b2f2d 	movteq	r2, #48941	; 0xbf2d
     b50:	034a00d0 	movteq	r0, #41168	; 0xa0d0
     b54:	314a7fb1 	strhcc	r7, [sl, #-241]	; 0xffffff0f
     b58:	2f2c2f2c 	svccs	0x002c2f2c
     b5c:	2f2d302f 	svccs	0x002d302f
     b60:	c6034c31 			; <UNDEFINED> instruction: 0xc6034c31
     b64:	be034a00 	vmlalt.f32	s8, s6, s0
     b68:	18032e7f 	stmdane	r3, {r0, r1, r2, r3, r4, r5, r6, r9, sl, fp, sp}
     b6c:	312b152e 	teqcc	fp, lr, lsr #10
     b70:	02002d4b 	andeq	r2, r0, #4800	; 0x12c0
     b74:	03320104 	teqeq	r2, #1
     b78:	13036665 	movwne	r6, #13925	; 0x3665
     b7c:	2e6d032e 	cdpcs	3, 6, cr0, cr13, cr14, {1}
     b80:	2e1a0331 	mrccs	3, 0, r0, cr10, cr1, {1}
     b84:	2e5d0350 	mrccs	3, 2, r0, cr13, cr0, {2}
     b88:	2f2f2f9f 	svccs	0x002f2f9f
     b8c:	2e16032f 	cdpcs	3, 1, cr0, cr6, cr15, {1}
     b90:	2f660b03 	svccs	0x00660b03
     b94:	9f4a5903 	svcls	0x004a5903
     b98:	2f2f2f2f 	svccs	0x002f2f2f
     b9c:	16662503 	strbtne	r2, [r6], -r3, lsl #10
     ba0:	2d4b322a 	sfmcs	f3, 2, [fp, #-168]	; 0xffffff58
     ba4:	002e0b03 	eoreq	r0, lr, r3, lsl #22
     ba8:	03010402 	movweq	r0, #5122	; 0x1402
     bac:	5b034a79 	blpl	d3598 <__bss_end+0xcffe4>
     bb0:	2e250366 	cdpcs	3, 2, cr0, cr5, cr6, {3}
     bb4:	032e5b03 	teqeq	lr, #3072	; 0xc00
     bb8:	5b032e25 	blpl	cc454 <__bss_end+0xc8ea0>
     bbc:	24039f4a 	strcs	r9, [r3], #-3914	; 0xf4a
     bc0:	4a5e034a 	bmi	17818f0 <__bss_end+0x177e33c>
     bc4:	4c4a2403 	cfstrdmi	mvd2, [sl], {3}
     bc8:	9e0a032a 	cdpls	3, 0, cr0, cr10, cr10, {1}
     bcc:	14318414 	ldrtne	r8, [r1], #-1044	; 0x414
     bd0:	332e3084 	teqcc	lr, #132	; 0x84
     bd4:	2c302c30 	ldccs	12, cr2, [r0], #-192	; 0xffffff40
     bd8:	674d2f30 	smlaldxvs	r2, sp, r0, pc	; <UNPREDICTABLE>
     bdc:	4b4b2f2d 	blmi	12cc898 <__bss_end+0x12c92e4>
     be0:	2c2f2c31 	stccs	12, cr2, [pc], #-196	; b24 <loop2>
     be4:	2d302f2f 	ldccs	15, cr2, [r0, #-188]!	; 0xffffff44
     be8:	034c312f 	movteq	r3, #49455	; 0xc12f
     bec:	26034a5e 			; <UNDEFINED> instruction: 0x26034a5e
     bf0:	2e26032e 	cdpcs	3, 2, cr0, cr6, cr14, {1}
     bf4:	4b312b15 	blmi	c4b850 <__bss_end+0xc4829c>
     bf8:	0402002d 	streq	r0, [r2], #-45	; 0x2d
     bfc:	59033201 	stmdbpl	r3, {r0, r9, ip, sp}
     c00:	2e1f0366 	cdpcs	3, 1, cr0, cr15, cr6, {3}
     c04:	312e6103 	teqcc	lr, r3, lsl #2
     c08:	502e2603 	eorpl	r2, lr, r3, lsl #12
     c0c:	9f2e5103 	svcls	0x002e5103
     c10:	2f2f2f2f 	svccs	0x002f2f2f
     c14:	032e2203 	teqeq	lr, #805306368	; 0x30000000
     c18:	032f660b 	teqeq	pc, #11534336	; 0xb00000
     c1c:	2f9f4a4d 	svccs	0x009f4a4d
     c20:	032f2f2f 	teqeq	pc, #188	; 0xbc
     c24:	2a166632 	bcs	59a4f4 <__bss_end+0x596f40>
     c28:	032d4b32 	teqeq	sp, #51200	; 0xc800
     c2c:	02002e0b 	andeq	r2, r0, #176	; 0xb0
     c30:	79030104 	stmdbvc	r3, {r2, r8}
     c34:	664e034a 	strbvs	r0, [lr], -sl, asr #6
     c38:	032e3203 	teqeq	lr, #805306368	; 0x30000000
     c3c:	32032e4e 	andcc	r2, r3, #1248	; 0x4e0
     c40:	4a4e032e 	bmi	1381900 <__bss_end+0x137e34c>
     c44:	4a31039f 	bmi	c41ac8 <__bss_end+0xc3e514>
     c48:	034a5103 	movteq	r5, #41219	; 0xa103
     c4c:	2a4c4a31 	bcs	1313518 <__bss_end+0x130ff64>
     c50:	01000a02 	tsteq	r0, r2, lsl #20
     c54:	00031201 	andeq	r1, r3, r1, lsl #4
     c58:	de000200 	cdple	2, 0, cr0, cr0, cr0, {0}
     c5c:	02000000 	andeq	r0, r0, #0
     c60:	0d0efb01 	vstreq	d15, [lr, #-4]
     c64:	01010100 	mrseq	r0, (UNDEF: 17)
     c68:	00000001 	andeq	r0, r0, r1
     c6c:	01000001 	tsteq	r0, r1
     c70:	68637261 	stmdavs	r3!, {r0, r5, r6, r9, ip, sp, lr}^
     c74:	6d72612f 	ldfvse	f6, [r2, #-188]!	; 0xffffff44
     c78:	63616d2f 	cmnvs	r1, #3008	; 0xbc0
     c7c:	75732d68 	ldrbvc	r2, [r3, #-3432]!	; 0xd68
     c80:	2f69786e 	svccs	0x0069786e
     c84:	732f6d70 	teqvc	pc, #7168	; 0x1c00
     c88:	646e6174 	strbtvs	r6, [lr], #-372	; 0x174
     c8c:	2e2f7962 	cdpcs	9, 2, cr7, cr15, cr2, {3}
     c90:	772f002e 	strvc	r0, [pc, -lr, lsr #32]!
     c94:	2f6b726f 	svccs	0x006b726f
     c98:	2f333861 	svccs	0x00333861
     c9c:	6c6f6f74 	stclvs	15, cr6, [pc], #-464	; ad4 <flush_dcache+0x8>
     ca0:	72632f73 	rsbvc	r2, r3, #460	; 0x1cc
     ca4:	6373736f 	cmnvs	r3, #-1140850687	; 0xbc000001
     ca8:	69706d6f 	ldmdbvs	r0!, {r0, r1, r2, r3, r5, r6, r8, sl, fp, sp, lr}^
     cac:	2f72656c 	svccs	0x0072656c
     cb0:	2f6e6962 	svccs	0x006e6962
     cb4:	6c2f2e2e 	stcvs	14, cr2, [pc], #-184	; c04 <enable_cache+0x4>
     cb8:	672f6269 	strvs	r6, [pc, -r9, ror #4]!
     cbc:	612f6363 	teqvs	pc, r3, ror #6
     cc0:	6c2d6d72 	stcvs	13, cr6, [sp], #-456	; 0xfffffe38
     cc4:	78756e69 	ldmdavc	r5!, {r0, r3, r5, r6, r9, sl, fp, sp, lr}^
     cc8:	756e672d 	strbvc	r6, [lr, #-1837]!	; 0x72d
     ccc:	69626165 	stmdbvs	r2!, {r0, r2, r5, r6, r8, sp, lr}^
     cd0:	362e342f 	strtcc	r3, [lr], -pc, lsr #8
     cd4:	692f332e 	stmdbvs	pc!, {r1, r2, r3, r5, r8, r9, ip, sp}	; <UNPREDICTABLE>
     cd8:	756c636e 	strbvc	r6, [ip, #-878]!	; 0x36e
     cdc:	69006564 	stmdbvs	r0, {r2, r5, r6, r8, sl, sp, lr}
     ce0:	756c636e 	strbvc	r6, [ip, #-878]!	; 0x36e
     ce4:	6c2f6564 	cfstr32vs	mvfx6, [pc], #-400	; b5c <finished+0xc>
     ce8:	78756e69 	ldmdavc	r5!, {r0, r3, r5, r6, r9, sl, fp, sp, lr}^
     cec:	776f702f 	strbvc	r7, [pc, -pc, lsr #32]!
     cf0:	00007265 	andeq	r7, r0, r5, ror #4
     cf4:	5f6d656d 	svcpl	0x006d656d
     cf8:	6e697270 	mcrvs	2, 3, r7, cr9, cr0, {3}
     cfc:	632e6b74 	teqvs	lr, #118784	; 0x1d000
     d00:	00000100 	andeq	r0, r0, r0, lsl #2
     d04:	745f6d70 	ldrbvc	r6, [pc], #-3440	; d0c <mem_preload_tlb+0x5c>
     d08:	73657079 	cmnvc	r5, #121	; 0x79
     d0c:	0100682e 	tsteq	r0, lr, lsr #16
     d10:	74730000 	ldrbtvc	r0, [r3], #-0
     d14:	67726164 	ldrbvs	r6, [r2, -r4, ror #2]!
     d18:	0200682e 	andeq	r6, r0, #3014656	; 0x2e0000
     d1c:	78610000 	stmdavc	r1!, {}^	; <UNPREDICTABLE>
     d20:	65645f70 	strbvs	r5, [r4, #-3952]!	; 0xf70
     d24:	646e6570 	strbtvs	r6, [lr], #-1392	; 0x570
     d28:	0300682e 	movweq	r6, #2094	; 0x82e
     d2c:	623c0000 	eorsvs	r0, ip, #0
     d30:	746c6975 	strbtvc	r6, [ip], #-2421	; 0x975
     d34:	3e6e692d 	cdpcc	9, 6, cr6, cr14, cr13, {1}
     d38:	00000000 	andeq	r0, r0, r0
     d3c:	02050000 	andeq	r0, r5, #0
     d40:	00001c34 	andeq	r1, r0, r4, lsr ip
     d44:	0101ce03 	tsteq	r1, r3, lsl #28
     d48:	882a2c34 	stmdahi	sl!, {r2, r4, r5, sl, fp, sp}
     d4c:	032fa32c 	teqeq	pc, #-1342177280	; 0xb0000000
     d50:	2b332e7a 	blcs	ccc740 <__bss_end+0xcc918c>
     d54:	04020052 	streq	r0, [r2], #-82	; 0x52
     d58:	02003102 	andeq	r3, r0, #-2147483648	; 0x80000000
     d5c:	00830204 	addeq	r0, r3, r4, lsl #4
     d60:	2d020402 	cfstrscs	mvf0, [r2, #-8]
     d64:	02040200 	andeq	r0, r4, #0
     d68:	0402004b 	streq	r0, [r2], #-75	; 0x4b
     d6c:	02002d02 	andeq	r2, r0, #128	; 0x80
     d70:	002f0204 	eoreq	r0, pc, r4, lsl #4
     d74:	2a020402 	bcs	81d84 <__bss_end+0x7e7d0>
     d78:	03667103 	cmneq	r6, #-1073741824	; 0xc0000000
     d7c:	02006617 	andeq	r6, r0, #24117248	; 0x1700000
     d80:	2e060204 	cdpcs	2, 0, cr0, cr6, cr4, {0}
     d84:	02040200 	andeq	r0, r4, #0
     d88:	02003006 	andeq	r3, r0, #6
     d8c:	332c0204 	teqcc	ip, #1073741824	; 0x40000000
     d90:	00fe0369 	rscseq	r0, lr, r9, ror #6
     d94:	2b2d3282 	blcs	b4d7a4 <__bss_end+0xb4a1f0>
     d98:	78038a85 	stmdavc	r3, {r0, r2, r7, r9, fp, pc}
     d9c:	03312f2e 	teqeq	r1, #184	; 0xb8
     da0:	032e7ded 	teqeq	lr, #15168	; 0x3b40
     da4:	032e0293 	teqeq	lr, #805306377	; 0x30000009
     da8:	302e7ded 	eorcc	r7, lr, sp, ror #27
     dac:	82028903 	andhi	r8, r2, #49152	; 0xc000
     db0:	2e7df703 	cdpcs	7, 7, cr15, cr13, cr3, {0}
     db4:	2e028903 	cdpcs	9, 0, cr8, cr2, cr3, {0}
     db8:	2e7df703 	cdpcs	7, 7, cr15, cr13, cr3, {0}
     dbc:	4cbc4652 	ldcmi	6, cr4, [ip], #328	; 0x148
     dc0:	2e028e03 	cdpcs	14, 0, cr8, cr2, cr3, {0}
     dc4:	827ea803 	rsbshi	sl, lr, #196608	; 0x30000
     dc8:	7a032c36 	bvc	cbea8 <__bss_end+0xc88f4>
     dcc:	2f876c2e 	svccs	0x00876c2e
     dd0:	332e7a03 	teqcc	lr, #12288	; 0x3000
     dd4:	2e12032b 	cdpcs	3, 1, cr0, cr2, cr11, {1}
     dd8:	2d2e7a03 	vstmdbcs	lr!, {s14-s16}
     ddc:	032e7003 	teqeq	lr, #3
     de0:	474d2e14 	smlaldmi	r2, sp, r4, lr
     de4:	63316331 	teqvs	r1, #-1006632960	; 0xc4000000
     de8:	09036331 	stmdbeq	r3, {r0, r4, r5, r8, r9, sp, lr}
     dec:	2e77032e 	cdpcs	3, 7, cr0, cr7, cr14, {1}
     df0:	032e0c03 	teqeq	lr, #768	; 0x300
     df4:	2503665d 	strcs	r6, [r3, #-1629]	; 0x65d
     df8:	032c4c66 	teqeq	ip, #26112	; 0x6600
     dfc:	2a034a5b 	bcs	d3770 <__bss_end+0xd01bc>
     e00:	3903692e 	stmdbcc	r3, {r1, r2, r3, r5, r8, fp, sp, lr}
     e04:	660c039e 			; <UNDEFINED> instruction: 0x660c039e
     e08:	032e7403 	teqeq	lr, #50331648	; 0x3000000
     e0c:	302d2e0c 	eorcc	r2, sp, ip, lsl #28
     e10:	c1033048 	tstgt	r3, r8, asr #32
     e14:	68032e00 	stmdavs	r3, {r9, sl, fp, sp}
     e18:	2e55032e 	cdpcs	3, 5, cr0, cr5, cr14, {1}
     e1c:	00cb034c 	sbceq	r0, fp, ip, asr #6
     e20:	7fb5032e 	svcvc	0x00b5032e
     e24:	c6034c2e 	strgt	r4, [r3], -lr, lsr #24
     e28:	ba032e00 	blt	cc630 <__bss_end+0xc907c>
     e2c:	69312e7f 	ldmdbvs	r1!, {r0, r1, r2, r3, r4, r5, r6, r9, sl, fp, sp}
     e30:	0903292f 	stmdbeq	r3, {r0, r1, r2, r3, r5, r8, fp, sp}
     e34:	03342a2e 	teqeq	r4, #188416	; 0x2e000
     e38:	340200c1 	strcc	r0, [r2], #-193	; 0xc1
     e3c:	302c3001 	eorcc	r3, ip, r1
     e40:	9e540331 	mrcls	3, 2, r0, cr4, cr1, {1}
     e44:	d67de603 	ldrbtle	lr, [sp], -r3, lsl #12
     e48:	66029b03 	strvs	r9, [r2], -r3, lsl #22
     e4c:	2e7de503 	cdpcs	5, 7, cr14, cr13, cr3, {0}
     e50:	82029c03 	andhi	r9, r2, #768	; 0x300
     e54:	d67df503 	ldrbtle	pc, [sp], -r3, lsl #10	; <UNPREDICTABLE>
     e58:	82028d03 	andhi	r8, r2, #192	; 0xc0
     e5c:	2e0b032f 	cdpcs	3, 0, cr0, cr11, cr15, {1}
     e60:	2e7fb903 	cdpcs	9, 7, cr11, cr15, cr3, {0}
     e64:	2e00c703 	cdpcs	7, 0, cr12, cr0, cr3, {0}
     e68:	667fb903 	ldrbtvs	fp, [pc], -r3, lsl #18
     e6c:	2e7eae03 	cdpcs	14, 7, cr10, cr14, cr3, {0}
     e70:	03826f03 	orreq	r6, r2, #12
     e74:	2ff202ac 	svccs	0x00f202ac
     e78:	032e6303 	teqeq	lr, #201326592	; 0xc000000
     e7c:	03d67df0 	bicseq	r7, r6, #15360	; 0x3c00
     e80:	03660291 	cmneq	r6, #268435465	; 0x10000009
     e84:	032e7def 	teqeq	lr, #15296	; 0x3bc0
     e88:	03820292 	orreq	r0, r2, #536870921	; 0x20000009
     e8c:	03d67dff 	bicseq	r7, r6, #16320	; 0x3fc0
     e90:	5082028d 	addpl	r0, r2, sp, lsl #5
     e94:	2e0d039f 	mcrcs	3, 0, r0, cr13, cr15, {4}
     e98:	8252032f 	subshi	r0, r2, #-1140850688	; 0xbc000000
     e9c:	ba7dfb03 	blt	1f7fab0 <__bss_end+0x1f7c4fc>
     ea0:	66028603 	strvs	r8, [r2], -r3, lsl #12
     ea4:	2e7dfa03 	vaddcs.f32	s31, s26, s6
     ea8:	82028703 	andhi	r8, r2, #786432	; 0xc0000
     eac:	d67e8a03 	ldrbtle	r8, [lr], -r3, lsl #20
     eb0:	82028d03 	andhi	r8, r2, #192	; 0xc0
     eb4:	03663b03 	cmneq	r6, #3072	; 0xc00
     eb8:	7403660c 	strvc	r6, [r3], #-1548	; 0x60c
     ebc:	2e0c032e 	cdpcs	3, 0, cr0, cr12, cr14, {1}
     ec0:	3048302d 	subcc	r3, r8, sp, lsr #32
     ec4:	2e00c103 	mvfcss	f4, f3
     ec8:	032e6803 	teqeq	lr, #196608	; 0x30000
     ecc:	034c2e55 	movteq	r2, #52821	; 0xce55
     ed0:	032e00cb 	teqeq	lr, #203	; 0xcb
     ed4:	4c2e7fb5 	stcmi	15, cr7, [lr], #-724	; 0xfffffd2c
     ed8:	2e00c603 	cfmadd32cs	mvax0, mvfx12, mvfx0, mvfx3
     edc:	2e7fba03 	vaddcs.f32	s23, s30, s6
     ee0:	292f6931 	stmdbcs	pc!, {r0, r4, r5, r8, fp, sp, lr}	; <UNPREDICTABLE>
     ee4:	2a2e0903 	bcs	b832f8 <__bss_end+0xb7fd44>
     ee8:	00c10334 	sbceq	r0, r1, r4, lsr r3
     eec:	30013402 	andcc	r3, r1, r2, lsl #8
     ef0:	0331302c 	teqeq	r1, #44	; 0x2c
     ef4:	f1039e54 			; <UNDEFINED> instruction: 0xf1039e54
     ef8:	9003d67c 	andls	sp, r3, ip, ror r6
     efc:	f0036603 			; <UNDEFINED> instruction: 0xf0036603
     f00:	91032e7c 	tstls	r3, ip, ror lr
     f04:	80038203 	andhi	r8, r3, r3, lsl #4
     f08:	8203d67d 	andhi	sp, r3, #131072000	; 0x7d00000
     f0c:	032f8203 	teqeq	pc, #805306368	; 0x30000000
     f10:	b9032e0b 	stmdblt	r3, {r0, r1, r3, r9, sl, fp, sp}
     f14:	c7032e7f 	smlsdxgt	r3, pc, lr, r2	; <UNPREDICTABLE>
     f18:	b9032e00 	stmdblt	r3, {r9, sl, fp, sp}
     f1c:	b903667f 	stmdblt	r3, {r0, r1, r2, r3, r4, r5, r6, r9, sl, sp, lr}
     f20:	6f032e7d 	svcvs	0x00032e7d
     f24:	03a10382 			; <UNDEFINED> instruction: 0x03a10382
     f28:	63032ff2 	movwvs	r2, #16370	; 0x3ff2
     f2c:	7cfb032e 	ldclvc	3, cr0, [fp], #184	; 0xb8
     f30:	038603d6 	orreq	r0, r6, #1476395011	; 0x58000003
     f34:	7cfa0366 	ldclvc	3, cr0, [sl], #408	; 0x198
     f38:	0387032e 	orreq	r0, r7, #-1207959552	; 0xb8000000
     f3c:	7d8a0382 	stcvc	3, cr0, [sl, #520]	; 0x208
     f40:	038203d6 	orreq	r0, r2, #1476395011	; 0x58000003
     f44:	039f5082 	orrseq	r5, pc, #130	; 0x82
     f48:	032f2e0d 	teqeq	pc, #208	; 0xd0
     f4c:	86038252 			; <UNDEFINED> instruction: 0x86038252
     f50:	fb03ba7d 	blx	ef94e <__bss_end+0xec39a>
     f54:	85036602 	strhi	r6, [r3, #-1538]	; 0x602
     f58:	fc032e7d 	stc2	14, cr2, [r3], {125}	; 0x7d
     f5c:	95038202 	strls	r8, [r3, #-514]	; 0x202
     f60:	8203d67d 	andhi	sp, r3, #131072000	; 0x7d00000
     f64:	06028203 	streq	r8, [r2], -r3, lsl #4
     f68:	a9010100 	stmdbge	r1, {r8}
     f6c:	02000000 	andeq	r0, r0, #0
     f70:	00004500 	andeq	r4, r0, r0, lsl #10
     f74:	fb010200 	blx	4177e <__bss_end+0x3e1ca>
     f78:	01000d0e 	tsteq	r0, lr, lsl #26
     f7c:	00010101 	andeq	r0, r1, r1, lsl #2
     f80:	00010000 	andeq	r0, r1, r0
     f84:	72610100 	rsbvc	r0, r1, #0
     f88:	612f6863 	teqvs	pc, r3, ror #16
     f8c:	6d2f6d72 	stcvs	13, cr6, [pc, #-456]!	; dcc <disable_mmu+0x10>
     f90:	2d686361 	stclcs	3, cr6, [r8, #-388]!	; 0xfffffe7c
     f94:	786e7573 	stmdavc	lr!, {r0, r1, r4, r5, r6, r8, sl, ip, sp, lr}^
     f98:	6d702f69 	ldclvs	15, cr2, [r0, #-420]!	; 0xfffffe5c
     f9c:	6174732f 	cmnvs	r4, pc, lsr #6
     fa0:	7962646e 	stmdbvc	r2!, {r1, r2, r3, r5, r6, sl, sp, lr}^
     fa4:	002e2e2f 	eoreq	r2, lr, pc, lsr #28
     fa8:	6d656d00 	stclvs	13, cr6, [r5, #-0]
     fac:	7669645f 			; <UNDEFINED> instruction: 0x7669645f
     fb0:	2e62696c 	cdpcs	9, 6, cr6, cr2, cr12, {3}
     fb4:	00010053 	andeq	r0, r1, r3, asr r0
     fb8:	05000000 	streq	r0, [r0, #-0]
     fbc:	00242002 	eoreq	r2, r4, r2
     fc0:	010e0300 	mrseq	r0, ELR_hyp
     fc4:	2f302f2f 	svccs	0x00302f2f
     fc8:	302f2f2f 	eorcc	r2, pc, pc, lsr #30
     fcc:	2f2f342f 	svccs	0x002f342f
     fd0:	2e00d503 	cfsh32cs	mvfx13, mvfx0, #3
     fd4:	332f2f2f 	teqcc	pc, #188	; 0xbc
     fd8:	2f2f2f2f 	svccs	0x002f2f2f
     fdc:	02302f2f 	eorseq	r2, r0, #188	; 0xbc
     fe0:	302f142e 	eorcc	r1, pc, lr, lsr #8
     fe4:	4c302f2f 	ldcmi	15, cr2, [r0], #-188	; 0xffffff44
     fe8:	2f2f342f 	svccs	0x002f342f
     fec:	2f2f2f2f 	svccs	0x002f2f2f
     ff0:	2f2f2f2f 	svccs	0x002f2f2f
     ff4:	2e02302f 	cdpcs	0, 0, cr3, cr2, cr15, {1}
     ff8:	302f2f14 	eorcc	r2, pc, r4, lsl pc	; <UNPREDICTABLE>
     ffc:	2f302f2f 	svccs	0x00302f2f
    1000:	4c302f2f 	ldcmi	15, cr2, [r0], #-188	; 0xffffff44
    1004:	332f2f2f 	teqcc	pc, #188	; 0xbc
    1008:	2f2f2f2f 	svccs	0x002f2f2f
    100c:	2f2f332f 	svccs	0x002f332f
    1010:	022f2f2f 	eoreq	r2, pc, #188	; 0xbc
    1014:	01010002 	tsteq	r1, r2
    1018:	00000082 	andeq	r0, r0, r2, lsl #1
    101c:	00540002 	subseq	r0, r4, r2
    1020:	01020000 	mrseq	r0, (UNDEF: 2)
    1024:	000d0efb 	strdeq	r0, [sp], -fp
    1028:	01010101 	tsteq	r1, r1, lsl #2
    102c:	01000000 	mrseq	r0, (UNDEF: 0)
    1030:	61010000 	mrsvs	r0, (UNDEF: 1)
    1034:	2f686372 	svccs	0x00686372
    1038:	2f6d7261 	svccs	0x006d7261
    103c:	6863616d 	stmdavs	r3!, {r0, r2, r3, r5, r6, r8, sp, lr}^
    1040:	6e75732d 	cdpvs	3, 7, cr7, cr5, cr13, {1}
    1044:	702f6978 	eorvc	r6, pc, r8, ror r9	; <UNPREDICTABLE>
    1048:	74732f6d 	ldrbtvc	r2, [r3], #-3949	; 0xf6d
    104c:	62646e61 	rsbvs	r6, r4, #1552	; 0x610
    1050:	2e2e2f79 	mcrcs	15, 1, r2, cr14, cr9, {3}
    1054:	656d0000 	strbvs	r0, [sp, #-0]!
    1058:	69645f6d 	stmdbvs	r4!, {r0, r2, r3, r5, r6, r8, r9, sl, fp, ip, lr}^
    105c:	62696c76 	rsbvs	r6, r9, #30208	; 0x7600
    1060:	00632e63 	rsbeq	r2, r3, r3, ror #28
    1064:	70000001 	andvc	r0, r0, r1
    1068:	79745f6d 	ldmdbvc	r4!, {r0, r2, r3, r5, r6, r8, r9, sl, fp, ip, lr}^
    106c:	2e736570 	mrccs	5, 3, r6, cr3, cr0, {3}
    1070:	00010068 	andeq	r0, r1, r8, rrx
    1074:	05000000 	streq	r0, [r0, #-0]
    1078:	0025fc02 	eoreq	pc, r5, r2, lsl #24
    107c:	4b131500 	blmi	4c6484 <__bss_end+0x4c2ed0>
    1080:	31173211 	tstcc	r7, r1, lsl r2
    1084:	0402002b 	streq	r0, [r2], #-43	; 0x2b
    1088:	4a063401 	bmi	18e094 <__bss_end+0x18aae0>
    108c:	032b3106 	teqeq	fp, #-2147483647	; 0x80000001
    1090:	302b4a0b 	eorcc	r4, fp, fp, lsl #20
    1094:	30342a33 	eorscc	r2, r4, r3, lsr sl
    1098:	0004024d 	andeq	r0, r4, sp, asr #4
    109c:	01210101 	teqeq	r1, r1, lsl #2
    10a0:	00020000 	andeq	r0, r2, r0
    10a4:	00000081 	andeq	r0, r0, r1, lsl #1
    10a8:	0efb0102 	cdpeq	1, 15, cr0, cr11, cr2, {0}
    10ac:	0101000d 	tsteq	r1, sp
    10b0:	00000101 	andeq	r0, r0, r1, lsl #2
    10b4:	00000100 	andeq	r0, r0, r0, lsl #2
    10b8:	63726101 	cmnvs	r2, #1073741824	; 0x40000000
    10bc:	72612f68 	rsbvc	r2, r1, #416	; 0x1a0
    10c0:	616d2f6d 	cmnvs	sp, sp, ror #30
    10c4:	732d6863 	teqvc	sp, #6488064	; 0x630000
    10c8:	69786e75 	ldmdbvs	r8!, {r0, r2, r4, r5, r6, r9, sl, fp, sp, lr}^
    10cc:	2f6d702f 	svccs	0x006d702f
    10d0:	6e617473 	mcrvs	4, 3, r7, cr1, cr3, {3}
    10d4:	2f796264 	svccs	0x00796264
    10d8:	69002e2e 	stmdbvs	r0, {r1, r2, r3, r5, r9, sl, fp, sp}
    10dc:	756c636e 	strbvc	r6, [ip, #-878]!	; 0x36e
    10e0:	6c2f6564 	cfstr32vs	mvfx6, [pc], #-400	; f58 <__save_processor_state+0x18>
    10e4:	78756e69 	ldmdavc	r5!, {r0, r3, r5, r6, r9, sl, fp, sp, lr}^
    10e8:	776f702f 	strbvc	r7, [pc, -pc, lsr #32]!
    10ec:	00007265 	andeq	r7, r0, r5, ror #4
    10f0:	5f6d656d 	svcpl	0x006d656d
    10f4:	2e746e69 	cdpcs	14, 7, cr6, cr4, cr9, {3}
    10f8:	00010063 	andeq	r0, r1, r3, rrx
    10fc:	5f6d7000 	svcpl	0x006d7000
    1100:	65707974 	ldrbvs	r7, [r0, #-2420]!	; 0x974
    1104:	00682e73 	rsbeq	r2, r8, r3, ror lr
    1108:	6d000001 	stcvs	0, cr0, [r0, #-4]
    110c:	695f6d65 	ldmdbvs	pc, {r0, r2, r5, r6, r8, sl, fp, sp, lr}^	; <UNPREDICTABLE>
    1110:	682e746e 	stmdavs	lr!, {r1, r2, r3, r5, r6, sl, ip, sp, lr}
    1114:	00000100 	andeq	r0, r0, r0, lsl #2
    1118:	5f707861 	svcpl	0x00707861
    111c:	65706564 	ldrbvs	r6, [r0, #-1380]!	; 0x564
    1120:	682e646e 	stmdavs	lr!, {r1, r2, r3, r5, r6, sl, sp, lr}
    1124:	00000200 	andeq	r0, r0, r0, lsl #4
    1128:	02050000 	andeq	r0, r5, #0
    112c:	00002654 	andeq	r2, r0, r4, asr r6
    1130:	14012203 	strne	r2, [r1], #-515	; 0x203
    1134:	2e0a032f 	cdpcs	3, 0, cr0, cr10, cr15, {1}
    1138:	312e7303 	teqcc	lr, r3, lsl #6
    113c:	0b032f2d 	bleq	ccdf8 <__bss_end+0xc9844>
    1140:	75032d2e 	strvc	r2, [r3, #-3374]	; 0xd2e
    1144:	02002f2e 	andeq	r2, r0, #184	; 0xb8
    1148:	0b030204 	bleq	c1960 <__bss_end+0xbe3ac>
    114c:	0402004a 	streq	r0, [r2], #-74	; 0x4a
    1150:	4a062d02 	bmi	18c560 <__bss_end+0x188fac>
    1154:	2e0b0306 	cdpcs	3, 0, cr0, cr11, cr6, {0}
    1158:	032e7503 	teqeq	lr, #12582912	; 0xc00000
    115c:	002d2e0c 	eoreq	r2, sp, ip, lsl #28
    1160:	2f020402 	svccs	0x00020402
    1164:	02040200 	andeq	r0, r4, #0
    1168:	2c304e2d 	ldccs	14, cr4, [r0], #-180	; 0xffffff4c
    116c:	4f2f4c4c 	svcmi	0x002f4c4c
    1170:	14820f03 	strne	r0, [r2], #3843	; 0xf03
    1174:	002b332c 	eoreq	r3, fp, ip, lsr #6
    1178:	a2020402 	andge	r0, r2, #33554432	; 0x2000000
    117c:	02040200 	andeq	r0, r4, #0
    1180:	0402004b 	streq	r0, [r2], #-75	; 0x4b
    1184:	036c8002 	cmneq	ip, #2
    1188:	4b16820f 	blmi	5a19cc <__bss_end+0x59e418>
    118c:	4c2f2b30 	stcmi	11, cr2, [pc], #-192	; 10d4 <__save_processor_state+0x194>
    1190:	2f2e7a03 	svccs	0x002e7a03
    1194:	502e0a03 	eorpl	r0, lr, r3, lsl #20
    1198:	c02e7a03 	eorgt	r7, lr, r3, lsl #20
    119c:	032e7603 	teqeq	lr, #3145728	; 0x300000
    11a0:	0f032e0b 	svceq	0x00032e0b
    11a4:	304b174a 	subcc	r1, fp, sl, asr #14
    11a8:	034c2f2b 	movteq	r2, #53035	; 0xcf2b
    11ac:	0f032e7a 	svceq	0x00032e7a
    11b0:	2e72032e 	cdpcs	3, 7, cr0, cr2, cr14, {1}
    11b4:	a32e0903 	teqge	lr, #49152	; 0xc000
    11b8:	03827803 	orreq	r7, r2, #196608	; 0x30000
    11bc:	04022e09 	streq	r2, [r2], #-3593	; 0xe09
    11c0:	a8010100 	stmdage	r1, {r8}
    11c4:	02000000 	andeq	r0, r0, #0
    11c8:	00005f00 	andeq	r5, r0, r0, lsl #30
    11cc:	fb010200 	blx	419d6 <__bss_end+0x3e422>
    11d0:	01000d0e 	tsteq	r0, lr, lsl #26
    11d4:	00010101 	andeq	r0, r1, r1, lsl #2
    11d8:	00010000 	andeq	r0, r1, r0
    11dc:	72610100 	rsbvc	r0, r1, #0
    11e0:	612f6863 	teqvs	pc, r3, ror #16
    11e4:	6d2f6d72 	stcvs	13, cr6, [pc, #-456]!	; 1024 <__save_processor_state+0xe4>
    11e8:	2d686361 	stclcs	3, cr6, [r8, #-388]!	; 0xfffffe7c
    11ec:	786e7573 	stmdavc	lr!, {r0, r1, r4, r5, r6, r8, sl, ip, sp, lr}^
    11f0:	6d702f69 	ldclvs	15, cr2, [r0, #-420]!	; 0xfffffe5c
    11f4:	6174732f 	cmnvs	r4, pc, lsr #6
    11f8:	7962646e 	stmdbvc	r2!, {r1, r2, r3, r5, r6, sl, sp, lr}^
    11fc:	002e2e2f 	eoreq	r2, lr, pc, lsr #28
    1200:	6d656d00 	stclvs	13, cr6, [r5, #-0]
    1204:	6970675f 	ldmdbvs	r0!, {r0, r1, r2, r3, r4, r6, r8, r9, sl, sp, lr}^
    1208:	00632e6f 	rsbeq	r2, r3, pc, ror #28
    120c:	70000001 	andvc	r0, r0, r1
    1210:	79745f6d 	ldmdbvc	r4!, {r0, r2, r3, r5, r6, r8, r9, sl, fp, ip, lr}^
    1214:	2e736570 	mrccs	5, 3, r6, cr3, cr0, {3}
    1218:	00010068 	andeq	r0, r1, r8, rrx
    121c:	6d656d00 	stclvs	13, cr6, [r5, #-0]
    1220:	6970675f 	ldmdbvs	r0!, {r0, r1, r2, r3, r4, r6, r8, r9, sl, sp, lr}^
    1224:	00682e6f 	rsbeq	r2, r8, pc, ror #28
    1228:	00000001 	andeq	r0, r0, r1
    122c:	f0020500 			; <UNDEFINED> instruction: 0xf0020500
    1230:	03000027 	movweq	r0, #39	; 0x27
    1234:	3311010f 	tstcc	r1, #-1073741821	; 0xc0000003
    1238:	02004f29 	andeq	r4, r0, #164	; 0xa4
    123c:	002f0204 	eoreq	r0, pc, r4, lsl #4
    1240:	2d020402 	cfstrscs	mvf0, [r2, #-8]
    1244:	02040200 	andeq	r0, r4, #0
    1248:	0402002f 	streq	r0, [r2], #-47	; 0x2f
    124c:	03322d02 	teqeq	r2, #128	; 0x80
    1250:	33114a0e 	tstcc	r1, #57344	; 0xe000
    1254:	02004f29 	andeq	r4, r0, #164	; 0xa4
    1258:	002f0204 	eoreq	r0, pc, r4, lsl #4
    125c:	49020402 	stmdbmi	r2, {r1, sl}
    1260:	4e4a0c03 	cdpmi	12, 4, cr0, cr10, cr3, {0}
    1264:	2dde8315 	ldclcs	3, cr8, [lr, #84]	; 0x54
    1268:	08022d2f 	stmdaeq	r2, {r0, r1, r2, r3, r5, r8, sl, fp, sp}
    126c:	fc010100 	stc2	1, cr0, [r1], {-0}
    1270:	02000000 	andeq	r0, r0, #0
    1274:	00008100 	andeq	r8, r0, r0, lsl #2
    1278:	fb010200 	blx	41a82 <__bss_end+0x3e4ce>
    127c:	01000d0e 	tsteq	r0, lr, lsl #26
    1280:	00010101 	andeq	r0, r1, r1, lsl #2
    1284:	00010000 	andeq	r0, r1, r0
    1288:	72610100 	rsbvc	r0, r1, #0
    128c:	612f6863 	teqvs	pc, r3, ror #16
    1290:	6d2f6d72 	stcvs	13, cr6, [pc, #-456]!	; 10d0 <__save_processor_state+0x190>
    1294:	2d686361 	stclcs	3, cr6, [r8, #-388]!	; 0xfffffe7c
    1298:	786e7573 	stmdavc	lr!, {r0, r1, r4, r5, r6, r8, sl, ip, sp, lr}^
    129c:	6d702f69 	ldclvs	15, cr2, [r0, #-420]!	; 0xfffffe5c
    12a0:	6174732f 	cmnvs	r4, pc, lsr #6
    12a4:	7962646e 	stmdbvc	r2!, {r1, r2, r3, r5, r6, sl, sp, lr}^
    12a8:	002e2e2f 	eoreq	r2, lr, pc, lsr #28
    12ac:	6c636e69 	stclvs	14, cr6, [r3], #-420	; 0xfffffe5c
    12b0:	2f656475 	svccs	0x00656475
    12b4:	756e696c 	strbvc	r6, [lr, #-2412]!	; 0x96c
    12b8:	6f702f78 	svcvs	0x00702f78
    12bc:	00726577 	rsbseq	r6, r2, r7, ror r5
    12c0:	6d656d00 	stclvs	13, cr6, [r5, #-0]
    12c4:	726d745f 	rsbvc	r7, sp, #1593835520	; 0x5f000000
    12c8:	0100632e 	tsteq	r0, lr, lsr #6
    12cc:	6d700000 	ldclvs	0, cr0, [r0, #-0]
    12d0:	7079745f 	rsbsvc	r7, r9, pc, asr r4
    12d4:	682e7365 	stmdavs	lr!, {r0, r2, r5, r6, r8, r9, ip, sp, lr}
    12d8:	00000100 	andeq	r0, r0, r0, lsl #2
    12dc:	5f6d656d 	svcpl	0x006d656d
    12e0:	2e726d74 	mrccs	13, 3, r6, cr2, cr4, {3}
    12e4:	00010068 	andeq	r0, r1, r8, rrx
    12e8:	70786100 	rsbsvc	r6, r8, r0, lsl #2
    12ec:	7065645f 	rsbvc	r6, r5, pc, asr r4
    12f0:	2e646e65 	cdpcs	14, 6, cr6, cr4, cr5, {3}
    12f4:	00020068 	andeq	r0, r2, r8, rrx
    12f8:	05000000 	streq	r0, [r0, #-0]
    12fc:	00289002 	eoreq	r9, r8, r2
    1300:	01110300 	tsteq	r1, r0, lsl #6
    1304:	2e7a0318 	mrccs	3, 3, r0, cr10, cr8, {0}
    1308:	2b312b34 	blcs	c4bfe0 <__bss_end+0xc48a2c>
    130c:	03820c03 	orreq	r0, r2, #768	; 0x300
    1310:	4b2f2e77 	blmi	bcccf4 <__bss_end+0xbc9740>
    1314:	4b4b4b4b 	blmi	12d4048 <__bss_end+0x12d0a94>
    1318:	2e0f034d 	cdpcs	3, 0, cr0, cr15, cr13, {2}
    131c:	03306414 	teqeq	r0, #335544320	; 0x14000000
    1320:	77032e09 	strvc	r2, [r3, -r9, lsl #28]
    1324:	4b4b2f2e 	blmi	12ccfe4 <__bss_end+0x12c9a30>
    1328:	4d4b4b4b 	vstrmi	d20, [fp, #-300]	; 0xfffffed4
    132c:	162e0f03 	strtne	r0, [lr], -r3, lsl #30
    1330:	302c302c 	eorcc	r3, ip, ip, lsr #32
    1334:	2f29512c 	svccs	0x0029512c
    1338:	0f034d4b 	svceq	0x00034d4b
    133c:	2933132e 	ldmdbcs	r3!, {r1, r2, r3, r5, r8, r9, ip}
    1340:	2f2c2f4b 	svccs	0x002c2f4b
    1344:	1203312f 	andne	r3, r3, #-1073741813	; 0xc000000b
    1348:	68bb152e 	ldmvs	fp!, {r1, r2, r3, r5, r8, sl, ip}
    134c:	0369694d 	cmneq	r9, #1261568	; 0x134000
    1350:	bb142e12 	bllt	50cba0 <__bss_end+0x5095ec>
    1354:	03676969 	cmneq	r7, #1720320	; 0x1a4000
    1358:	6b142e11 	blvs	50cba4 <__bss_end+0x5095f0>
    135c:	03353229 	teqeq	r5, #-1879048190	; 0x90000002
    1360:	312f2e75 	teqcc	pc, r5, ror lr	; <UNPREDICTABLE>
    1364:	2f2f2d30 	svccs	0x002f2d30
    1368:	02026967 	andeq	r6, r2, #1687552	; 0x19c000
    136c:	af010100 	svcge	0x00010100
    1370:	02000000 	andeq	r0, r0, #0
    1374:	00008700 	andeq	r8, r0, r0, lsl #14
    1378:	fb010200 	blx	41b82 <__bss_end+0x3e5ce>
    137c:	01000d0e 	tsteq	r0, lr, lsl #26
    1380:	00010101 	andeq	r0, r1, r1, lsl #2
    1384:	00010000 	andeq	r0, r1, r0
    1388:	72610100 	rsbvc	r0, r1, #0
    138c:	612f6863 	teqvs	pc, r3, ror #16
    1390:	6d2f6d72 	stcvs	13, cr6, [pc, #-456]!	; 11d0 <__save_processor_state+0x290>
    1394:	2d686361 	stclcs	3, cr6, [r8, #-388]!	; 0xfffffe7c
    1398:	786e7573 	stmdavc	lr!, {r0, r1, r4, r5, r6, r8, sl, ip, sp, lr}^
    139c:	6d702f69 	ldclvs	15, cr2, [r0, #-420]!	; 0xfffffe5c
    13a0:	6174732f 	cmnvs	r4, pc, lsr #6
    13a4:	7962646e 	stmdbvc	r2!, {r1, r2, r3, r5, r6, sl, sp, lr}^
    13a8:	002e2e2f 	eoreq	r2, lr, pc, lsr #28
    13ac:	6c636e69 	stclvs	14, cr6, [r3], #-420	; 0xfffffe5c
    13b0:	2f656475 	svccs	0x00656475
    13b4:	756e696c 	strbvc	r6, [lr, #-2412]!	; 0x96c
    13b8:	6f702f78 	svcvs	0x00702f78
    13bc:	00726577 	rsbseq	r6, r2, r7, ror r5
    13c0:	6d656d00 	stclvs	13, cr6, [r5, #-0]
    13c4:	736d745f 	cmnvc	sp, #1593835520	; 0x5f000000
    13c8:	2e706d74 	mrccs	13, 3, r6, cr0, cr4, {3}
    13cc:	00010063 	andeq	r0, r1, r3, rrx
    13d0:	5f6d7000 	svcpl	0x006d7000
    13d4:	65707974 	ldrbvs	r7, [r0, #-2420]!	; 0x974
    13d8:	00682e73 	rsbeq	r2, r8, r3, ror lr
    13dc:	6d000001 	stcvs	0, cr0, [r0, #-4]
    13e0:	745f6d65 	ldrbvc	r6, [pc], #-3429	; 13e8 <__restore_processor_state+0xa4>
    13e4:	6d74736d 	ldclvs	3, cr7, [r4, #-436]!	; 0xfffffe4c
    13e8:	00682e70 	rsbeq	r2, r8, r0, ror lr
    13ec:	61000001 	tstvs	r0, r1
    13f0:	645f7078 	ldrbvs	r7, [pc], #-120	; 13f8 <__restore_processor_state+0xb4>
    13f4:	6e657065 	cdpvs	0, 6, cr7, cr5, cr5, {3}
    13f8:	00682e64 	rsbeq	r2, r8, r4, ror #28
    13fc:	00000002 	andeq	r0, r0, r2
    1400:	78020500 	stmdavc	r2, {r8, sl}
    1404:	0300002a 	movweq	r0, #42	; 0x2a
    1408:	2b150111 	blcs	541854 <__bss_end+0x53e2a0>
    140c:	512b4d31 	teqpl	fp, r1, lsr sp
    1410:	034d2f2a 	movteq	r2, #57130	; 0xdf2a
    1414:	64142e0f 	ldrvs	r2, [r4], #-3599	; 0xe0f
    1418:	2f2a3230 	svccs	0x002a3230
    141c:	0002024d 	andeq	r0, r2, sp, asr #4
    1420:	011d0101 	tsteq	sp, r1, lsl #2
    1424:	00020000 	andeq	r0, r2, r0
    1428:	0000007b 	andeq	r0, r0, fp, ror r0
    142c:	0efb0102 	cdpeq	1, 15, cr0, cr11, cr2, {0}
    1430:	0101000d 	tsteq	r1, sp
    1434:	00000101 	andeq	r0, r0, r1, lsl #2
    1438:	00000100 	andeq	r0, r0, r0, lsl #2
    143c:	63726101 	cmnvs	r2, #1073741824	; 0x40000000
    1440:	72612f68 	rsbvc	r2, r1, #416	; 0x1a0
    1444:	616d2f6d 	cmnvs	sp, sp, ror #30
    1448:	732d6863 	teqvc	sp, #6488064	; 0x630000
    144c:	69786e75 	ldmdbvs	r8!, {r0, r2, r4, r5, r6, r9, sl, fp, sp, lr}^
    1450:	2f6d702f 	svccs	0x006d702f
    1454:	6e617473 	mcrvs	4, 3, r7, cr1, cr3, {3}
    1458:	2f796264 	svccs	0x00796264
    145c:	69002e2e 	stmdbvs	r0, {r1, r2, r3, r5, r9, sl, fp, sp}
    1460:	756c636e 	strbvc	r6, [ip, #-878]!	; 0x36e
    1464:	6c2f6564 	cfstr32vs	mvfx6, [pc], #-400	; 12dc <__save_processor_state+0x39c>
    1468:	78756e69 	ldmdavc	r5!, {r0, r3, r5, r6, r9, sl, fp, sp, lr}^
    146c:	776f702f 	strbvc	r7, [pc, -pc, lsr #32]!
    1470:	00007265 	andeq	r7, r0, r5, ror #4
    1474:	5f6d656d 	svcpl	0x006d656d
    1478:	70737768 	rsbsvc	r7, r3, r8, ror #14
    147c:	6f6c6e69 	svcvs	0x006c6e69
    1480:	632e6b63 	teqvs	lr, #101376	; 0x18c00
    1484:	00000100 	andeq	r0, r0, r0, lsl #2
    1488:	745f6d70 	ldrbvc	r6, [pc], #-3440	; 1490 <__restore_processor_state+0x14c>
    148c:	73657079 	cmnvc	r5, #121	; 0x79
    1490:	0100682e 	tsteq	r0, lr, lsr #16
    1494:	78610000 	stmdavc	r1!, {}^	; <UNPREDICTABLE>
    1498:	65645f70 	strbvs	r5, [r4, #-3952]!	; 0xf70
    149c:	646e6570 	strbtvs	r6, [lr], #-1392	; 0x570
    14a0:	0200682e 	andeq	r6, r0, #3014656	; 0x2e0000
    14a4:	00000000 	andeq	r0, r0, r0
    14a8:	2ad00205 	bcs	ff401cc4 <__bss_end+0xff3fe710>
    14ac:	c7030000 	strgt	r0, [r3, -r0]
    14b0:	2c150100 	ldfcss	f0, [r5], {-0}
    14b4:	2a4e3330 	bcs	138e17c <__bss_end+0x138abc8>
    14b8:	0e03694b 	cdpeq	9, 0, cr6, cr3, cr11, {2}
    14bc:	7fb5032e 	svcvc	0x00b5032e
    14c0:	00d3032e 	sbcseq	r0, r3, lr, lsr #6
    14c4:	4731474a 	ldrmi	r4, [r1, -sl, asr #14]!
    14c8:	039b6931 	orrseq	r6, fp, #802816	; 0xc4000
    14cc:	bf03660c 	svclt	0x0003660c
    14d0:	3b034a7f 	blcc	d3ed4 <__bss_end+0xd0920>
    14d4:	2f4f4b2e 	svccs	0x004f4b2e
    14d8:	14660e03 	strbtne	r0, [r6], #-3587	; 0xe03
    14dc:	2e7fae03 	cdpcs	14, 7, cr10, cr15, cr3, {0}
    14e0:	2e00d203 	cdpcs	2, 0, cr13, cr0, cr3, {0}
    14e4:	667fae03 	ldrbtvs	sl, [pc], -r3, lsl #28
    14e8:	2e00d203 	cdpcs	2, 0, cr13, cr0, cr3, {0}
    14ec:	2e7fae03 	cdpcs	14, 7, cr10, cr15, cr3, {0}
    14f0:	2e00d203 	cdpcs	2, 0, cr13, cr0, cr3, {0}
    14f4:	2e7fae03 	cdpcs	14, 7, cr10, cr15, cr3, {0}
    14f8:	2e00d803 	cdpcs	8, 0, cr13, cr0, cr3, {0}
    14fc:	034a0e03 	movteq	r0, #44547	; 0xae03
    1500:	03017efc 	movweq	r7, #7932	; 0x1efc
    1504:	2b4a018c 	blcs	1281b3c <__bss_end+0x127e588>
    1508:	69316331 	ldmdbvs	r1!, {r0, r4, r5, r8, r9, sp, lr}
    150c:	660c039b 			; <UNDEFINED> instruction: 0x660c039b
    1510:	4a7f8603 	bmi	1fe2d24 <__bss_end+0x1fdf770>
    1514:	2e00f503 	cfsh32cs	mvfx15, mvfx0, #3
    1518:	0e032f4f 	cdpeq	15, 0, cr2, cr3, cr15, {2}
    151c:	f503144a 			; <UNDEFINED> instruction: 0xf503144a
    1520:	8b032e7e 	blhi	ccf20 <__bss_end+0xc996c>
    1524:	f5032e01 			; <UNDEFINED> instruction: 0xf5032e01
    1528:	8b03667e 	blhi	daf28 <__bss_end+0xd7974>
    152c:	f5032e01 			; <UNDEFINED> instruction: 0xf5032e01
    1530:	8b032e7e 	blhi	ccf30 <__bss_end+0xc997c>
    1534:	f5032e01 			; <UNDEFINED> instruction: 0xf5032e01
    1538:	91032e7e 	tstls	r3, lr, ror lr
    153c:	04022e01 	streq	r2, [r2], #-3585	; 0xe01
    1540:	8e010100 	adfhis	f0, f1, f0
    1544:	02000001 	andeq	r0, r0, #1
    1548:	00009900 	andeq	r9, r0, r0, lsl #18
    154c:	fb010200 	blx	41d56 <__bss_end+0x3e7a2>
    1550:	01000d0e 	tsteq	r0, lr, lsl #26
    1554:	00010101 	andeq	r0, r1, r1, lsl #2
    1558:	00010000 	andeq	r0, r1, r0
    155c:	72610100 	rsbvc	r0, r1, #0
    1560:	612f6863 	teqvs	pc, r3, ror #16
    1564:	6d2f6d72 	stcvs	13, cr6, [pc, #-456]!	; 13a4 <__restore_processor_state+0x60>
    1568:	2d686361 	stclcs	3, cr6, [r8, #-388]!	; 0xfffffe7c
    156c:	786e7573 	stmdavc	lr!, {r0, r1, r4, r5, r6, r8, sl, ip, sp, lr}^
    1570:	6d702f69 	ldclvs	15, cr2, [r0, #-420]!	; 0xfffffe5c
    1574:	6174732f 	cmnvs	r4, pc, lsr #6
    1578:	7962646e 	stmdbvc	r2!, {r1, r2, r3, r5, r6, sl, sp, lr}^
    157c:	002e2e2f 	eoreq	r2, lr, pc, lsr #28
    1580:	6c636e69 	stclvs	14, cr6, [r3], #-420	; 0xfffffe5c
    1584:	2f656475 	svccs	0x00656475
    1588:	756e696c 	strbvc	r6, [lr, #-2412]!	; 0x96c
    158c:	6f702f78 	svcvs	0x00702f78
    1590:	00726577 	rsbseq	r6, r2, r7, ror r5
    1594:	6d656d00 	stclvs	13, cr6, [r5, #-0]
    1598:	6b6c635f 	blvs	1b1a31c <__bss_end+0x1b16d68>
    159c:	0100632e 	tsteq	r0, lr, lsr #6
    15a0:	6d700000 	ldclvs	0, cr0, [r0, #-0]
    15a4:	7079745f 	rsbsvc	r7, r9, pc, asr r4
    15a8:	682e7365 	stmdavs	lr!, {r0, r2, r5, r6, r8, r9, ip, sp, lr}
    15ac:	00000100 	andeq	r0, r0, r0, lsl #2
    15b0:	5f6d656d 	svcpl	0x006d656d
    15b4:	756d6363 	strbvc	r6, [sp, #-867]!	; 0x363
    15b8:	6e75732d 	cdpvs	3, 7, cr7, cr5, cr13, {1}
    15bc:	36776938 			; <UNDEFINED> instruction: 0x36776938
    15c0:	682e3170 	stmdavs	lr!, {r4, r5, r6, r8, ip, sp}
    15c4:	00000100 	andeq	r0, r0, r0, lsl #2
    15c8:	5f6d656d 	svcpl	0x006d656d
    15cc:	2e6b6c63 	cdpcs	12, 6, cr6, cr11, cr3, {3}
    15d0:	00010068 	andeq	r0, r1, r8, rrx
    15d4:	70786100 	rsbsvc	r6, r8, r0, lsl #2
    15d8:	7065645f 	rsbvc	r6, r5, pc, asr r4
    15dc:	2e646e65 	cdpcs	14, 6, cr6, cr4, cr5, {3}
    15e0:	00020068 	andeq	r0, r2, r8, rrx
    15e4:	05000000 	streq	r0, [r0, #-0]
    15e8:	002c4802 	eoreq	r4, ip, r2, lsl #16
    15ec:	01150300 	tsteq	r5, r0, lsl #6
    15f0:	48682f13 	stmdami	r8!, {r0, r1, r4, r8, r9, sl, fp, sp}^
    15f4:	32302c30 	eorscc	r2, r0, #12288	; 0x3000
    15f8:	144a1103 	strbne	r1, [sl], #-259	; 0x103
    15fc:	4a24034b 	bmi	902330 <__bss_end+0x8fed7c>
    1600:	4d2f2d13 	stcmi	13, cr2, [pc, #-76]!	; 15bc <__restore_processor_state+0x278>
    1604:	7803522b 	stmdavc	r3, {r0, r1, r3, r5, r9, ip, lr}
    1608:	4b2f312e 	blmi	bcdac8 <__bss_end+0xbca514>
    160c:	2e12034d 	cdpcs	3, 1, cr0, cr2, cr13, {2}
    1610:	76035214 			; <UNDEFINED> instruction: 0x76035214
    1614:	0d03302e 	stceq	0, cr3, [r3, #-184]	; 0xffffff48
    1618:	2e73032e 	cdpcs	3, 7, cr0, cr3, cr14, {1}
    161c:	4d4b2f36 	stclmi	15, cr2, [fp, #-216]	; 0xffffff28
    1620:	2f2e0f03 	svccs	0x002e0f03
    1624:	03346a4e 	teqeq	r4, #319488	; 0x4e000
    1628:	2f312e76 	svccs	0x00312e76
    162c:	3083324b 	addcc	r3, r3, fp, asr #4
    1630:	324b2d2f 	subcc	r2, fp, #3008	; 0xbc0
    1634:	034a6c03 	movteq	r6, #44035	; 0xac03
    1638:	0e032e15 	mcreq	14, 0, r2, cr3, cr5, {0}
    163c:	302d134a 	eorcc	r1, sp, sl, asr #6
    1640:	296b312d 	stmdbcs	fp!, {r0, r2, r3, r5, r8, ip, sp}^
    1644:	2f2d2f2f 	svccs	0x002d2f2f
    1648:	10034d2f 	andne	r4, r3, pc, lsr #26
    164c:	4b811366 	blmi	fe0463ec <__bss_end+0xfe042e38>
    1650:	032e1003 	teqeq	lr, #3
    1654:	312b2e74 	teqcc	fp, r4, ror lr
    1658:	4f4b6a4c 	svcmi	0x004b6a4c
    165c:	134a0f03 	movtne	r0, #44803	; 0xaf03
    1660:	032f2e81 	teqeq	pc, #2064	; 0x810
    1664:	73032e0e 	movwvc	r2, #15886	; 0x3e0e
    1668:	30332f2e 	eorscc	r2, r3, lr, lsr #30
    166c:	2f2e7803 	svccs	0x002e7803
    1670:	03333033 	teqeq	r3, #51	; 0x33
    1674:	31014a0e 	tstcc	r1, lr, lsl #20
    1678:	2603a02c 	strcs	sl, [r3], -ip, lsr #32
    167c:	2e5d032e 	cdpcs	3, 5, cr0, cr13, cr14, {1}
    1680:	4b4a0c03 	blmi	1284694 <__bss_end+0x12810e0>
    1684:	4b4b4b4b 	blmi	12d43b8 <__bss_end+0x12d0e04>
    1688:	4b4b4b4b 	blmi	12d43bc <__bss_end+0x12d0e08>
    168c:	2d504b4b 	vldrcs	d20, [r0, #-300]	; 0xfffffed4
    1690:	83302f2f 	teqhi	r0, #188	; 0xbc
    1694:	2e0f0330 	mcrcs	3, 0, r0, cr15, cr0, {1}
    1698:	4b2f2d13 	blmi	bccaec <__bss_end+0xbc9538>
    169c:	4a1e032d 	bmi	782358 <__bss_end+0x77eda4>
    16a0:	2f2e6303 	svccs	0x002e6303
    16a4:	4b4b4b4d 	blmi	12d43e0 <__bss_end+0x12d0e2c>
    16a8:	4b4b4b4b 	blmi	12d43dc <__bss_end+0x12d0e28>
    16ac:	4b4b4b4b 	blmi	12d43e0 <__bss_end+0x12d0e2c>
    16b0:	034a0e03 	movteq	r0, #44547	; 0xae03
    16b4:	031a2e0f 	tsteq	sl, #240	; 0xf0
    16b8:	4e362e78 	mrcmi	14, 1, r2, cr6, cr8, {3}
    16bc:	0f03322a 	svceq	0x0003322a
    16c0:	6676032e 	ldrbtvs	r0, [r6], -lr, lsr #6
    16c4:	2f2c2d32 	svccs	0x002c2d32
    16c8:	322a4b2f 	eorcc	r4, sl, #48128	; 0xbc00
    16cc:	2e7a0334 	mrccs	3, 3, r0, cr10, cr4, {1}
    16d0:	01000402 	tsteq	r0, r2, lsl #8
    16d4:	Address 0x000016d4 is out of bounds.


Disassembly of section .debug_str:

00000000 <.debug_str>:
       0:	7365525f 	cmnvc	r5, #-268435451	; 0xf0000005
       4:	5f656d75 	svcpl	0x00656d75
       8:	656c6966 	strbvs	r6, [ip, #-2406]!	; 0x966
       c:	6165685f 	cmnvs	r5, pc, asr r8
      10:	43560064 	cmpmi	r6, #100	; 0x64
      14:	44415f43 	strbmi	r5, [r1], #-3907	; 0xf43
      18:	49425f43 	stmdbmi	r2, {r0, r1, r6, r8, r9, sl, fp, ip, lr}^
      1c:	44560054 	ldrbmi	r0, [r6], #-84	; 0x54
      20:	50435f44 	subpl	r5, r3, r4, asr #30
      24:	425f4155 	subsmi	r4, pc, #1073741845	; 0x40000015
      28:	56005449 	strpl	r5, [r0], -r9, asr #8
      2c:	4d5f4343 	ldclmi	3, cr4, [pc, #-268]	; ffffff28 <__bss_end+0xffffc974>
      30:	495f5841 	ldmdbmi	pc, {r0, r6, fp, ip, lr}^	; <UNPREDICTABLE>
      34:	5845444e 	stmdapl	r5, {r1, r2, r3, r6, sl, lr}^
      38:	43435600 	movtmi	r5, #13824	; 0x3600
      3c:	4152445f 	cmpmi	r2, pc, asr r4
      40:	49425f4d 	stmdbmi	r2, {r0, r2, r3, r6, r8, r9, sl, fp, ip, lr}^
      44:	4e470054 	mcrmi	0, 2, r0, cr7, cr4, {2}
      48:	20432055 	subcs	r2, r3, r5, asr r0
      4c:	2e362e34 	mrccs	14, 1, r2, cr6, cr4, {1}
      50:	30322033 	eorscc	r2, r2, r3, lsr r0
      54:	32303231 	eorscc	r3, r0, #268435459	; 0x10000003
      58:	28203130 	stmdacs	r0!, {r4, r5, r8, ip, sp}
      5c:	72657270 	rsbvc	r7, r5, #7
      60:	61656c65 	cmnvs	r5, r5, ror #24
      64:	00296573 	eoreq	r6, r9, r3, ror r5
      68:	5f434356 	svcpl	0x00434356
      6c:	425f4c50 	subsmi	r4, pc, #20480	; 0x5000
      70:	56005449 	strpl	r5, [r0], -r9, asr #8
      74:	475f4444 	ldrbmi	r4, [pc, -r4, asr #8]
      78:	425f5550 	subsmi	r5, pc, #335544320	; 0x14000000
      7c:	75005449 	strvc	r5, [r0, #-1097]	; 0x449
      80:	6769736e 	strbvs	r7, [r9, -lr, ror #6]!
      84:	2064656e 	rsbcs	r6, r4, lr, ror #10
      88:	72616863 	rsbvc	r6, r1, #6488064	; 0x630000
      8c:	4f476500 	svcmi	0x00476500
      90:	73765f4e 	cmnvc	r6, #312	; 0x138
      94:	4456006e 	ldrbmi	r0, [r6], #-110	; 0x6e
      98:	50435f44 	subpl	r5, r3, r4, asr #30
      9c:	425f4255 	subsmi	r4, pc, #1342177285	; 0x50000005
      a0:	73005449 	movwvc	r5, #1097	; 0x449
      a4:	74726f68 	ldrbtvc	r6, [r2], #-3944	; 0xf68
      a8:	736e7520 	cmnvc	lr, #134217728	; 0x8000000
      ac:	656e6769 	strbvs	r6, [lr, #-1897]!	; 0x769
      b0:	6e692064 	cdpvs	0, 6, cr2, cr9, cr4, {3}
      b4:	65520074 	ldrbvs	r0, [r2, #-116]	; 0x74
      b8:	656d7573 	strbvs	r7, [sp, #-1395]!	; 0x573
      bc:	6e73765f 	mrcvs	6, 3, r7, cr3, cr15, {2}
      c0:	65686300 	strbvs	r6, [r8, #-768]!	; 0x300
      c4:	735f6b63 	cmpvc	pc, #101376	; 0x18c00
      c8:	70006d75 	andvc	r6, r0, r5, ror sp
      cc:	685f6275 	ldmdavs	pc, {r0, r2, r4, r5, r6, r9, sp, lr}^	; <UNPREDICTABLE>
      d0:	5f646165 	svcpl	0x00646165
      d4:	657a6973 	ldrbvs	r6, [sl, #-2419]!	; 0x973
      d8:	73657200 	cmnvc	r5, #0
      dc:	5f656d75 	svcpl	0x00656d75
      e0:	64616568 	strbtvs	r6, [r1], #-1384	; 0x568
      e4:	6d756a00 	vldmdbvs	r5!, {s13-s12}
      e8:	6e695f70 	mcrvs	15, 3, r5, cr9, cr0, {3}
      ec:	75727473 	ldrbvc	r7, [r2, #-1139]!	; 0x473
      f0:	6f697463 	svcvs	0x00697463
      f4:	4456006e 	ldrbmi	r0, [r6], #-110	; 0x6e
      f8:	50435f44 	subpl	r5, r3, r4, asr #30
      fc:	425f5355 	subsmi	r5, pc, #1409286145	; 0x54000001
     100:	56005449 	strpl	r5, [r0], -r9, asr #8
     104:	505f4343 	subspl	r4, pc, r3, asr #6
     108:	49425f4d 	stmdbmi	r2, {r0, r2, r3, r6, r8, r9, sl, fp, ip, lr}^
     10c:	44560054 	ldrbmi	r0, [r6], #-84	; 0x54
     110:	50565f44 	subspl	r5, r6, r4, asr #30
     114:	49425f55 	stmdbmi	r2, {r0, r2, r4, r6, r8, r9, sl, fp, ip, lr}^
     118:	6f6c0054 	svcvs	0x006c0054
     11c:	6c20676e 	stcvs	7, cr6, [r0], #-440	; 0xfffffe48
     120:	20676e6f 	rsbcs	r6, r7, pc, ror #28
     124:	69736e75 	ldmdbvs	r3!, {r0, r2, r4, r5, r6, r9, sl, fp, sp, lr}^
     128:	64656e67 	strbtvs	r6, [r5], #-3687	; 0xe67
     12c:	746e6920 	strbtvc	r6, [lr], #-2336	; 0x920
     130:	44445600 	strbmi	r5, [r4], #-1536	; 0x600
     134:	4152445f 	cmpmi	r2, pc, asr r4
     138:	4c4c504d 	mcrrmi	0, 4, r5, ip, cr13
     13c:	5449425f 	strbpl	r4, [r9], #-607	; 0x25f
     140:	43435600 	movtmi	r5, #13824	; 0x3600
     144:	5650435f 			; <UNDEFINED> instruction: 0x5650435f
     148:	425f4444 	subsmi	r4, pc, #1140850688	; 0x44000000
     14c:	66005449 	strvs	r5, [r0], -r9, asr #8
     150:	5f656c69 	svcpl	0x00656c69
     154:	64616568 	strbtvs	r6, [r1], #-1384	; 0x568
     158:	6e73765f 	mrcvs	6, 3, r7, cr3, cr15, {2}
     15c:	6f772f00 	svcvs	0x00772f00
     160:	612f6b72 	teqvs	pc, r2, ror fp	; <UNPREDICTABLE>
     164:	6c2f3338 	stcvs	3, cr3, [pc], #-224	; 8c <mem_memcpy>
     168:	78756e69 	ldmdavc	r5!, {r0, r3, r5, r6, r9, sl, fp, sp, lr}^
     16c:	342e332d 	strtcc	r3, [lr], #-813	; 0x32d
     170:	43435600 	movtmi	r5, #13824	; 0x3600
     174:	4f444c5f 	svcmi	0x00444c5f
     178:	425f4e49 	subsmi	r4, pc, #1168	; 0x490
     17c:	6c005449 	cfstrsvs	mvf5, [r0], {73}	; 0x49
     180:	20676e6f 	rsbcs	r6, r7, pc, ror #28
     184:	676e6f6c 	strbvs	r6, [lr, -ip, ror #30]!
     188:	746e6920 	strbtvc	r6, [lr], #-2336	; 0x920
     18c:	44445600 	strbmi	r5, [r4], #-1536	; 0x600
     190:	5359535f 	cmppl	r9, #2080374785	; 0x7c000001
     194:	5449425f 	strbpl	r4, [r9], #-607	; 0x25f
     198:	43435600 	movtmi	r5, #13824	; 0x3600
     19c:	5f4f495f 	svcpl	0x004f495f
     1a0:	00544942 	subseq	r4, r4, r2, asr #18
     1a4:	726f6873 	rsbvc	r6, pc, #7536640	; 0x730000
     1a8:	6e692074 	mcrvs	0, 3, r2, cr9, cr4, {3}
     1ac:	65720074 	ldrbvs	r0, [r2, #-116]!	; 0x74
     1b0:	656d7573 	strbvs	r7, [sp, #-1395]!	; 0x573
     1b4:	6c69665f 	stclvs	6, cr6, [r9], #-380	; 0xfffffe84
     1b8:	65685f65 	strbvs	r5, [r8, #-3941]!	; 0xf65
     1bc:	745f6461 	ldrbvc	r6, [pc], #-1121	; 1c4 <resume1_c_part+0xe8>
     1c0:	63726100 	cmnvs	r2, #0
     1c4:	72612f68 	rsbvc	r2, r1, #416	; 0x1a0
     1c8:	616d2f6d 	cmnvs	sp, sp, ror #30
     1cc:	732d6863 	teqvc	sp, #6488064	; 0x630000
     1d0:	69786e75 	ldmdbvs	r8!, {r0, r2, r4, r5, r6, r9, sl, fp, sp, lr}^
     1d4:	2f6d702f 	svccs	0x006d702f
     1d8:	6e617473 	mcrvs	4, 3, r7, cr1, cr3, {3}
     1dc:	2f796264 	svccs	0x00796264
     1e0:	65707573 	ldrbvs	r7, [r0, #-1395]!	; 0x573
     1e4:	65722f72 	ldrbvs	r2, [r2, #-3954]!	; 0xf72
     1e8:	656d7573 	strbvs	r7, [sp, #-1395]!	; 0x573
     1ec:	7365722f 	cmnvc	r5, #-268435454	; 0xf0000002
     1f0:	5f656d75 	svcpl	0x00656d75
     1f4:	64616568 	strbtvs	r6, [r1], #-1384	; 0x568
     1f8:	7000632e 	andvc	r6, r0, lr, lsr #6
     1fc:	685f6275 	ldmdavs	pc, {r0, r2, r4, r5, r6, r9, sp, lr}^	; <UNPREDICTABLE>
     200:	5f646165 	svcpl	0x00646165
     204:	006e7376 	rsbeq	r7, lr, r6, ror r3
     208:	6967616d 	stmdbvs	r7!, {r0, r2, r3, r5, r6, r8, sp, lr}^
     20c:	656c0063 	strbvs	r0, [ip, #-99]!	; 0x63
     210:	6874676e 	ldmdavs	r4!, {r1, r2, r3, r5, r6, r8, r9, sl, sp, lr}^
     214:	616c7000 	cmnvs	ip, r0
     218:	726f6674 	rsbvc	r6, pc, #121634816	; 0x7400000
     21c:	4356006d 	cmpmi	r6, #109	; 0x6d
     220:	4c505f43 	mrrcmi	15, 4, r5, r0, cr3
     224:	49425f4c 	stmdbmi	r2, {r2, r3, r6, r8, r9, sl, fp, ip, lr}^
     228:	72610054 	rsbvc	r0, r1, #84	; 0x54
     22c:	612f6863 	teqvs	pc, r3, ror #16
     230:	6d2f6d72 	stcvs	13, cr6, [pc, #-456]!	; 70 <_start+0x40>
     234:	2d686361 	stclcs	3, cr6, [r8, #-388]!	; 0xfffffe7c
     238:	786e7573 	stmdavc	lr!, {r0, r1, r4, r5, r6, r8, sl, ip, sp, lr}^
     23c:	6d702f69 	ldclvs	15, cr2, [r0, #-420]!	; 0xfffffe5c
     240:	6174732f 	cmnvs	r4, pc, lsr #6
     244:	7962646e 	stmdbvc	r2!, {r1, r2, r3, r5, r6, sl, sp, lr}^
     248:	7075732f 	rsbsvc	r7, r5, pc, lsr #6
     24c:	632f7265 	teqvs	pc, #1342177286	; 0x50000006
     250:	6f6d6d6f 	svcvs	0x006d6d6f
     254:	00632e6e 	rsbeq	r2, r3, lr, ror #28
     258:	5f706d74 	svcpl	0x00706d74
     25c:	00747364 	rsbseq	r7, r4, r4, ror #6
     260:	5f706d74 	svcpl	0x00706d74
     264:	00637273 	rsbeq	r7, r3, r3, ror r2
     268:	5f6d656d 	svcpl	0x006d656d
     26c:	636d656d 	cmnvs	sp, #457179136	; 0x1b400000
     270:	61007970 	tstvs	r0, r0, ror r9
     274:	2f686372 	svccs	0x00686372
     278:	2f6d7261 	svccs	0x006d7261
     27c:	6863616d 	stmdavs	r3!, {r0, r2, r3, r5, r6, r8, sp, lr}^
     280:	6e75732d 	cdpvs	3, 7, cr7, cr5, cr13, {1}
     284:	702f6978 	eorvc	r6, pc, r8, ror r9	; <UNPREDICTABLE>
     288:	74732f6d 	ldrbtvc	r2, [r3], #-3949	; 0xf6d
     28c:	62646e61 	rsbvs	r6, r4, #1552	; 0x610
     290:	75732f79 	ldrbvc	r2, [r3, #-3961]!	; 0xf79
     294:	2f726570 	svccs	0x00726570
     298:	65707573 	ldrbvs	r7, [r0, #-1395]!	; 0x573
     29c:	77745f72 			; <UNDEFINED> instruction: 0x77745f72
     2a0:	00632e69 	rsbeq	r2, r3, r9, ror #28
     2a4:	68637261 	stmdavs	r3!, {r0, r5, r6, r9, ip, sp, lr}^
     2a8:	6d72612f 	ldfvse	f6, [r2, #-188]!	; 0xffffff44
     2ac:	63616d2f 	cmnvs	r1, #3008	; 0xbc0
     2b0:	75732d68 	ldrbvc	r2, [r3, #-3432]!	; 0xd68
     2b4:	2f69786e 	svccs	0x0069786e
     2b8:	732f6d70 	teqvc	pc, #7168	; 0x1c00
     2bc:	646e6174 	strbtvs	r6, [lr], #-372	; 0x174
     2c0:	732f7962 	teqvc	pc, #1605632	; 0x188000
     2c4:	72657075 	rsbvc	r7, r5, #117	; 0x75
     2c8:	7075732f 	rsbsvc	r7, r5, pc, lsr #6
     2cc:	635f7265 	cmpvs	pc, #1342177286	; 0x50000006
     2d0:	6b636f6c 	blvs	18dc088 <__bss_end+0x18d8ad4>
     2d4:	6100632e 	tstvs	r0, lr, lsr #6
     2d8:	2f686372 	svccs	0x00686372
     2dc:	2f6d7261 	svccs	0x006d7261
     2e0:	6863616d 	stmdavs	r3!, {r0, r2, r3, r5, r6, r8, sp, lr}^
     2e4:	6e75732d 	cdpvs	3, 7, cr7, cr5, cr13, {1}
     2e8:	702f6978 	eorvc	r6, pc, r8, ror r9	; <UNPREDICTABLE>
     2ec:	74732f6d 	ldrbtvc	r2, [r3], #-3949	; 0xf6d
     2f0:	62646e61 	rsbvs	r6, r4, #1552	; 0x610
     2f4:	75732f79 	ldrbvc	r2, [r3, #-3961]!	; 0xf79
     2f8:	2f726570 	svccs	0x00726570
     2fc:	65707573 	ldrbvs	r7, [r0, #-1395]!	; 0x573
     300:	6f705f72 	svcvs	0x00705f72
     304:	2e726577 	mrccs	5, 3, r6, cr2, cr7, {3}
     308:	72610063 	rsbvc	r0, r1, #99	; 0x63
     30c:	612f6863 	teqvs	pc, r3, ror #16
     310:	6d2f6d72 	stcvs	13, cr6, [pc, #-456]!	; 150 <resume1_c_part+0x74>
     314:	2d686361 	stclcs	3, cr6, [r8, #-388]!	; 0xfffffe7c
     318:	786e7573 	stmdavc	lr!, {r0, r1, r4, r5, r6, r8, sl, ip, sp, lr}^
     31c:	6d702f69 	ldclvs	15, cr2, [r0, #-420]!	; 0xfffffe5c
     320:	6174732f 	cmnvs	r4, pc, lsr #6
     324:	7962646e 	stmdbvc	r2!, {r1, r2, r3, r5, r6, sl, sp, lr}^
     328:	7075732f 	rsbsvc	r7, r5, pc, lsr #6
     32c:	732f7265 	teqvc	pc, #1342177286	; 0x50000006
     330:	72657075 	rsbvc	r7, r5, #117	; 0x75
     334:	7570635f 	ldrbvc	r6, [r0, #-863]!	; 0x35f
     338:	00632e73 	rsbeq	r2, r3, r3, ror lr
     33c:	43435f5f 	movtmi	r5, #16223	; 0x3f5f
     340:	415f554d 	cmpmi	pc, sp, asr #10
     344:	5f314248 	svcpl	0x00314248
     348:	49544152 	ldmdbmi	r4, {r1, r4, r6, r8, lr}^
     34c:	45525f4f 	ldrbmi	r5, [r2, #-3919]	; 0xf4f
     350:	35303047 	ldrcc	r3, [r0, #-71]!	; 0x47
     354:	65720034 	ldrbvs	r0, [r2, #-52]!	; 0x34
     358:	76726573 			; <UNDEFINED> instruction: 0x76726573
     35c:	30326465 	eorscc	r6, r2, r5, ror #8
     360:	72003138 	andvc	r3, r0, #14
     364:	72657365 	rsbvc	r7, r5, #-1811939327	; 0x94000001
     368:	32646576 	rsbcc	r6, r4, #494927872	; 0x1d800000
     36c:	00323830 	eorseq	r3, r2, r0, lsr r8
     370:	31757063 	cmncc	r5, r3, rrx
     374:	7365725f 	cmnvc	r5, #-268435451	; 0xf0000005
     378:	64007465 	strvs	r7, [r0], #-1125	; 0x465
     37c:	67756265 	ldrbvs	r6, [r5, -r5, ror #4]!
     380:	73616d5f 	cmnvc	r1, #6080	; 0x17c0
     384:	6572006b 	ldrbvs	r0, [r2, #-107]!	; 0x6b
     388:	76726573 			; <UNDEFINED> instruction: 0x76726573
     38c:	33316465 	teqcc	r1, #1694498816	; 0x65000000
     390:	65720031 	ldrbvs	r0, [r2, #-49]!	; 0x31
     394:	76726573 			; <UNDEFINED> instruction: 0x76726573
     398:	33316465 	teqcc	r1, #1694498816	; 0x65000000
     39c:	65720032 	ldrbvs	r0, [r2, #-50]!	; 0x32
     3a0:	76726573 			; <UNDEFINED> instruction: 0x76726573
     3a4:	33316465 	teqcc	r1, #1694498816	; 0x65000000
     3a8:	77640033 			; <UNDEFINED> instruction: 0x77640033
     3ac:	006c6176 	rsbeq	r6, ip, r6, ror r1
     3b0:	566c6c50 			; <UNDEFINED> instruction: 0x566c6c50
     3b4:	6f656469 	svcvs	0x00656469
     3b8:	61694230 	cmnvs	r9, r0, lsr r2
     3bc:	69430073 	stmdbvs	r3, {r0, r1, r4, r5, r6}^
     3c0:	00785472 	rsbseq	r5, r8, r2, ror r4
     3c4:	65766173 	ldrbvs	r6, [r6, #-371]!	; 0x173
     3c8:	75725f64 	ldrbvc	r5, [r2, #-3940]!	; 0xf64
     3cc:	6d69746e 	cfstrdvs	mvd7, [r9, #-440]!	; 0xfffffe48
     3d0:	6f635f65 	svcvs	0x00635f65
     3d4:	7865746e 	stmdavc	r5!, {r1, r2, r3, r5, r6, sl, ip, sp, lr}^
     3d8:	76735f74 	uhsub16vc	r5, r3, r4
     3dc:	634c0063 	movtvs	r0, #49251	; 0xc063
     3e0:	68433064 	stmdavs	r3, {r2, r5, r6, ip, sp}^
     3e4:	634c0030 	movtvs	r0, #49200	; 0xc030
     3e8:	68433064 	stmdavs	r3, {r2, r5, r6, ip, sp}^
     3ec:	65720031 	ldrbvs	r0, [r2, #-49]!	; 0x31
     3f0:	76726573 			; <UNDEFINED> instruction: 0x76726573
     3f4:	31396465 	teqcc	r9, r5, ror #8
     3f8:	78610032 	stmdavc	r1!, {r1, r4, r5}^
     3fc:	69645f69 	stmdbvs	r4!, {r0, r3, r5, r6, r8, r9, sl, fp, ip, lr}^
     400:	6c500076 	mrrcvs	0, 7, r0, r0, cr6	; <UNPREDICTABLE>
     404:	7443366c 	strbvc	r3, [r3], #-1644	; 0x66c
     408:	6572006c 	ldrbvs	r0, [r2, #-108]!	; 0x6c
     40c:	76726573 			; <UNDEFINED> instruction: 0x76726573
     410:	34316465 	ldrtcc	r6, [r1], #-1125	; 0x465
     414:	65720032 	ldrbvs	r0, [r2, #-50]!	; 0x32
     418:	76726573 			; <UNDEFINED> instruction: 0x76726573
     41c:	34316465 	ldrtcc	r6, [r1], #-1125	; 0x465
     420:	61730033 	cmnvs	r3, r3, lsr r0
     424:	5f646576 	svcpl	0x00646576
     428:	5f756d6d 	svcpl	0x00756d6d
     42c:	74617473 	strbtvc	r7, [r1], #-1139	; 0x473
     430:	32490065 	subcc	r0, r9, #101	; 0x65
     434:	49003073 	stmdbmi	r0, {r0, r1, r4, r5, r6, ip, sp}
     438:	00317332 	eorseq	r7, r1, r2, lsr r3
     43c:	32733249 	rsbscc	r3, r3, #-1879048188	; 0x90000004
     440:	6c6c5000 	stclvs	0, cr5, [ip], #-0
     444:	74433031 	strbvc	r3, [r3], #-49	; 0x31
     448:	6c50006c 	mrrcvs	0, 6, r0, r0, cr12	; <UNPREDICTABLE>
     44c:	7443346c 	strbvc	r3, [r3], #-1132	; 0x46c
     450:	4d50006c 	ldclmi	0, cr0, [r0, #-432]	; 0xfffffe50
     454:	4154535f 	cmpmi	r4, pc, asr r3
     458:	5942444e 	stmdbpl	r2, {r1, r2, r3, r6, sl, lr}^
     45c:	414e455f 	cmpmi	lr, pc, asr r5
     460:	5f454c42 	svcpl	0x00454c42
     464:	4741544a 	strbmi	r5, [r1, -sl, asr #8]
     468:	6e6f6d00 	cdpvs	13, 6, cr6, cr15, cr0, {0}
     46c:	726f7469 	rsbvc	r7, pc, #1761607680	; 0x69000000
     470:	6365765f 	cmnvs	r5, #99614720	; 0x5f00000
     474:	00726f74 	rsbseq	r6, r2, r4, ror pc
     478:	63635f5f 	cmnvs	r3, #380	; 0x17c
     47c:	735f756d 	cmpvc	pc, #457179136	; 0x1b400000
     480:	6c637379 	stclvs	3, cr7, [r3], #-484	; 0xfffffe1c
     484:	61725f6b 	cmnvs	r2, fp, ror #30
     488:	5f6f6974 	svcpl	0x006f6974
     48c:	30676572 	rsbcc	r6, r7, r2, ror r5
     490:	5f303530 	svcpl	0x00303530
     494:	6c500074 	mrrcvs	0, 7, r0, r0, cr4	; <UNPREDICTABLE>
     498:	6475416c 	ldrbtvs	r4, [r5], #-364	; 0x16c
     49c:	69426f69 	stmdbvs	r2, {r0, r3, r5, r6, r8, r9, sl, fp, sp, lr}^
     4a0:	63007361 	movwvs	r7, #865	; 0x361
     4a4:	5f337570 	svcpl	0x00337570
     4a8:	65736572 	ldrbvs	r6, [r3, #-1394]!	; 0x572
     4ac:	6c500074 	mrrcvs	0, 7, r0, r0, cr4	; <UNPREDICTABLE>
     4b0:	31435f6c 	cmpcc	r3, ip, ror #30
     4b4:	6169425f 	cmnvs	r9, pc, asr r2
     4b8:	65720073 	ldrbvs	r0, [r2, #-115]!	; 0x73
     4bc:	76726573 			; <UNDEFINED> instruction: 0x76726573
     4c0:	35316465 	ldrcc	r6, [r1, #-1125]!	; 0x465
     4c4:	65720033 	ldrbvs	r0, [r2, #-51]!	; 0x33
     4c8:	76726573 			; <UNDEFINED> instruction: 0x76726573
     4cc:	35316465 	ldrcc	r6, [r1, #-1125]!	; 0x465
     4d0:	5f5f0034 	svcpl	0x005f0034
     4d4:	5f737362 	svcpl	0x00737362
     4d8:	00646e65 	rsbeq	r6, r4, r5, ror #28
     4dc:	65736572 	ldrbvs	r6, [r3, #-1394]!	; 0x572
     4e0:	64657672 	strbtvs	r7, [r5], #-1650	; 0x672
     4e4:	31313331 	teqcc	r1, r1, lsr r3
     4e8:	6c6c5000 	stclvs	0, cr5, [ip], #-0
     4ec:	63697348 	cmnvs	r9, #536870913	; 0x20000001
     4f0:	73616942 	cmnvc	r1, #1081344	; 0x108000
     4f4:	6d645400 	cfstrdvs	mvd5, [r4, #-0]
     4f8:	006b6c43 	rsbeq	r6, fp, r3, asr #24
     4fc:	316c6c50 	cmncc	ip, r0, asr ip
     500:	006e7554 	rsbeq	r7, lr, r4, asr r5
     504:	7375424d 	cmnvc	r5, #-805306364	; 0xd0000004
     508:	4d500030 	ldclmi	0, cr0, [r0, #-192]	; 0xffffff40
     50c:	4154535f 	cmpmi	r4, pc, asr r3
     510:	5942444e 	stmdbpl	r2, {r1, r2, r3, r6, sl, lr}^
     514:	4952505f 	ldmdbmi	r2, {r0, r1, r2, r3, r4, r6, ip, lr}^
     518:	435f544e 	cmpmi	pc, #1308622848	; 0x4e000000
     51c:	535f5543 	cmppl	pc, #281018368	; 0x10c00000
     520:	55544154 	ldrbpl	r4, [r4, #-340]	; 0x154
     524:	4d500053 	ldclmi	0, cr0, [r0, #-332]	; 0xfffffeb4
     528:	4154535f 	cmpmi	r4, pc, asr r3
     52c:	5942444e 	stmdbpl	r2, {r1, r2, r3, r6, sl, lr}^
     530:	4952505f 	ldmdbmi	r2, {r0, r1, r2, r3, r4, r6, ip, lr}^
     534:	505f544e 	subspl	r5, pc, lr, asr #8
     538:	0054524f 	subseq	r5, r4, pc, asr #4
     53c:	535f4d50 	cmppl	pc, #5120	; 0x1400
     540:	444e4154 	strbmi	r4, [lr], #-340	; 0x154
     544:	505f5942 	subspl	r5, pc, r2, asr #18
     548:	544e4952 	strbpl	r4, [lr], #-2386	; 0x952
     54c:	5345525f 	movtpl	r5, #21087	; 0x525f
     550:	5f454d55 	svcpl	0x00454d55
     554:	535f4f49 	cmppl	pc, #292	; 0x124
     558:	55544154 	ldrbpl	r4, [r4, #-340]	; 0x154
     55c:	65720053 	ldrbvs	r0, [r2, #-83]!	; 0x53
     560:	76726573 			; <UNDEFINED> instruction: 0x76726573
     564:	30326465 	eorscc	r6, r2, r5, ror #8
     568:	46003334 			; <UNDEFINED> instruction: 0x46003334
     56c:	6f746361 	svcvs	0x00746361
     570:	46004b72 			; <UNDEFINED> instruction: 0x46004b72
     574:	6f746361 	svcvs	0x00746361
     578:	46004d72 			; <UNDEFINED> instruction: 0x46004d72
     57c:	6f746361 	svcvs	0x00746361
     580:	41004e72 	tstmi	r0, r2, ror lr
     584:	44326270 	ldrtmi	r6, [r2], #-624	; 0x270
     588:	46007669 	strmi	r7, [r0], -r9, ror #12
     58c:	6f746361 	svcvs	0x00746361
     590:	72005072 	andvc	r5, r0, #114	; 0x72
     594:	72657365 	rsbvc	r7, r5, #-1811939327	; 0x94000001
     598:	32646576 	rsbcc	r6, r4, #494927872	; 0x1d800000
     59c:	72003230 	andvc	r3, r0, #3
     5a0:	72657365 	rsbvc	r7, r5, #-1811939327	; 0x94000001
     5a4:	32646576 	rsbcc	r6, r4, #494927872	; 0x1d800000
     5a8:	72003330 	andvc	r3, r0, #-1073741824	; 0xc0000000
     5ac:	72657365 	rsbvc	r7, r5, #-1811939327	; 0x94000001
     5b0:	32646576 	rsbcc	r6, r4, #494927872	; 0x1d800000
     5b4:	72003430 	andvc	r3, r0, #805306368	; 0x30000000
     5b8:	72657365 	rsbvc	r7, r5, #-1811939327	; 0x94000001
     5bc:	32646576 	rsbcc	r6, r4, #494927872	; 0x1d800000
     5c0:	69003530 	stmdbvs	r0, {r4, r5, r8, sl, ip, sp}
     5c4:	7865646e 	stmdavc	r5!, {r1, r2, r3, r5, r6, sl, sp, lr}^
     5c8:	73657200 	cmnvc	r5, #0
     5cc:	65767265 	ldrbvs	r7, [r6, #-613]!	; 0x265
     5d0:	38303264 	ldmdacc	r0!, {r2, r5, r6, r9, ip, sp}
     5d4:	6c6c5000 	stclvs	0, cr5, [ip], #-0
     5d8:	42757047 	rsbsmi	r7, r5, #71	; 0x47
     5dc:	00736169 	rsbseq	r6, r3, r9, ror #2
     5e0:	70737573 	rsbsvc	r7, r3, r3, ror r5
     5e4:	5f646e65 	svcpl	0x00646e65
     5e8:	616c6564 	cmnvs	ip, r4, ror #10
     5ec:	736d5f79 	cmnvc	sp, #484	; 0x1e4
     5f0:	43314300 	teqmi	r1, #0
     5f4:	72536b6c 	subsvc	r6, r3, #110592	; 0x1b000
     5f8:	70470063 	subvc	r0, r7, r3, rrx
     5fc:	6d654d75 	stclvs	13, cr4, [r5, #-468]!	; 0xfffffe2c
     600:	6b6c6300 	blvs	1b19208 <__bss_end+0x1b15c54>
     604:	7669645f 			; <UNDEFINED> instruction: 0x7669645f
     608:	76694400 	strbtvc	r4, [r9], -r0, lsl #8
     60c:	6944004d 	stmdbvs	r4, {r0, r2, r3, r6}^
     610:	73004e76 	movwvc	r4, #3702	; 0xe76
     614:	64657661 	strbtvs	r7, [r5], #-1633	; 0x661
     618:	6365735f 	cmnvs	r5, #2080374785	; 0x7c000001
     61c:	5f657275 	svcpl	0x00657275
     620:	5f756d6d 	svcpl	0x00756d6d
     624:	74617473 	strbtvc	r7, [r1], #-1139	; 0x473
     628:	70410065 	subvc	r0, r1, r5, rrx
     62c:	65523262 	ldrbvs	r3, [r2, #-610]	; 0x262
     630:	00746573 	rsbseq	r6, r4, r3, ror r5
     634:	5f626861 	svcpl	0x00626861
     638:	5f627061 	svcpl	0x00627061
     63c:	00766964 	rsbseq	r6, r6, r4, ror #18
     640:	535f4d50 	cmppl	pc, #5120	; 0x1400
     644:	444e4154 	strbmi	r4, [lr], #-340	; 0x154
     648:	505f5942 	subspl	r5, pc, r2, asr #18
     64c:	544e4952 	strbpl	r4, [lr], #-2386	; 0x952
     650:	5f4f495f 	svcpl	0x004f495f
     654:	54415453 	strbpl	r5, [r1], #-1107	; 0x453
     658:	72005355 	andvc	r5, r0, #1409286145	; 0x54000001
     65c:	72657365 	rsbvc	r7, r5, #-1811939327	; 0x94000001
     660:	31646576 	smccc	18006	; 0x4656
     664:	72003137 	andvc	r3, r0, #-1073741811	; 0xc000000d
     668:	72657365 	rsbvc	r7, r5, #-1811939327	; 0x94000001
     66c:	31646576 	smccc	18006	; 0x4656
     670:	72003237 	andvc	r3, r0, #1879048195	; 0x70000003
     674:	72657365 	rsbvc	r7, r5, #-1811939327	; 0x94000001
     678:	31646576 	smccc	18006	; 0x4656
     67c:	50003337 	andpl	r3, r0, r7, lsr r3
     680:	6f4c6c6c 	svcvs	0x004c6c6c
     684:	70006b63 	andvc	r6, r0, r3, ror #22
     688:	5f316c6c 	svcpl	0x00316c6c
     68c:	006e7574 	rsbeq	r7, lr, r4, ror r5
     690:	43757047 	cmnmi	r5, #71	; 0x47
     694:	0065726f 	rsbeq	r7, r5, pc, ror #4
     698:	43757043 	cmnmi	r5, #67	; 0x43
     69c:	72536b6c 	subsvc	r6, r3, #110592	; 0x1b000
     6a0:	6c500063 	mrrcvs	0, 6, r0, r0, cr3	; <UNPREDICTABLE>
     6a4:	6469566c 	strbtvs	r5, [r9], #-1644	; 0x66c
     6a8:	52306f65 	eorspl	r6, r0, #404	; 0x194
     6ac:	50306765 	eorspl	r6, r0, r5, ror #14
     6b0:	65747461 	ldrbvs	r7, [r4, #-1121]!	; 0x461
     6b4:	6e006e72 	mcrvs	14, 0, r6, cr0, cr2, {3}
     6b8:	00727272 	rsbseq	r7, r2, r2, ror r2
     6bc:	73625f5f 	cmnvc	r2, #380	; 0x17c
     6c0:	74735f73 	ldrbtvc	r5, [r3], #-3955	; 0xf73
     6c4:	00747261 	rsbseq	r7, r4, r1, ror #4
     6c8:	72636164 	rsbvc	r6, r3, #25
     6cc:	6c6c5000 	stclvs	0, cr5, [ip], #-0
     6d0:	42726444 	rsbsmi	r6, r2, #1140850688	; 0x44000000
     6d4:	00736169 	rsbseq	r6, r3, r9, ror #2
     6d8:	65736552 	ldrbvs	r6, [r3, #-1362]!	; 0x552
     6dc:	64657672 	strbtvs	r7, [r5], #-1650	; 0x672
     6e0:	31323032 	teqcc	r2, r2, lsr r0
     6e4:	73657200 	cmnvc	r5, #0
     6e8:	65767265 	ldrbvs	r7, [r6, #-613]!	; 0x265
     6ec:	31383164 	teqcc	r8, r4, ror #2
     6f0:	73657200 	cmnvc	r5, #0
     6f4:	65767265 	ldrbvs	r7, [r6, #-613]!	; 0x265
     6f8:	32383164 	eorscc	r3, r8, #25
     6fc:	63726100 	cmnvs	r2, #0
     700:	72612f68 	rsbvc	r2, r1, #416	; 0x1a0
     704:	616d2f6d 	cmnvs	sp, sp, ror #30
     708:	732d6863 	teqvc	sp, #6488064	; 0x630000
     70c:	69786e75 	ldmdbvs	r8!, {r0, r2, r4, r5, r6, r9, sl, fp, sp, lr}^
     710:	2f6d702f 	svccs	0x006d702f
     714:	6e617473 	mcrvs	4, 3, r7, cr1, cr3, {3}
     718:	2f796264 	svccs	0x00796264
     71c:	65707573 	ldrbvs	r7, [r0, #-1395]!	; 0x573
     720:	65722f72 	ldrbvs	r2, [r2, #-3954]!	; 0xf72
     724:	656d7573 	strbvs	r7, [sp, #-1395]!	; 0x573
     728:	7365722f 	cmnvc	r5, #-268435454	; 0xf0000002
     72c:	31656d75 	smccc	22229	; 0x56d5
     730:	705f635f 	subsvc	r6, pc, pc, asr r3	; <UNPREDICTABLE>
     734:	2e747261 	cdpcs	2, 7, cr7, cr4, cr1, {3}
     738:	68410063 	stmdavs	r1, {r0, r1, r5, r6}^
     73c:	74614762 	strbtvc	r4, [r1], #-1890	; 0x762
     740:	50003165 	andpl	r3, r0, r5, ror #2
     744:	54535f4d 	ldrbpl	r5, [r3], #-3917	; 0xf4d
     748:	42444e41 	submi	r4, r4, #1040	; 0x410
     74c:	52505f59 	subspl	r5, r0, #356	; 0x164
     750:	5f544e49 	svcpl	0x00544e49
     754:	55425447 	strbpl	r5, [r2, #-1095]	; 0x447
     758:	45525f53 	ldrbmi	r5, [r2, #-3923]	; 0xf53
     75c:	4d500047 	ldclmi	0, cr0, [r0, #-284]	; 0xfffffee4
     760:	4154535f 	cmpmi	r4, pc, asr r3
     764:	5942444e 	stmdbpl	r2, {r1, r2, r3, r6, sl, lr}^
     768:	4952505f 	ldmdbmi	r2, {r0, r1, r2, r3, r4, r6, ip, lr}^
     76c:	535f544e 	cmppl	pc, #1308622848	; 0x4e000000
     770:	444e4154 	strbmi	r4, [lr], #-340	; 0x154
     774:	4c005942 	stcmi	9, cr5, [r0], {66}	; 0x42
     778:	746b636f 	strbtvc	r6, [fp], #-879	; 0x36f
     77c:	00656d69 	rsbeq	r6, r5, r9, ror #26
     780:	316c6c50 	cmncc	ip, r0, asr ip
     784:	006c7443 	rsbeq	r7, ip, r3, asr #8
     788:	65736572 	ldrbvs	r6, [r3, #-1394]!	; 0x572
     78c:	64657672 	strbtvs	r7, [r5], #-1650	; 0x672
     790:	00323231 	eorseq	r3, r2, r1, lsr r2
     794:	436c6c50 	cmnmi	ip, #20480	; 0x5000
     798:	6c744331 	ldclvs	3, cr4, [r4], #-196	; 0xffffff3c
     79c:	73657200 	cmnvc	r5, #0
     7a0:	65767265 	ldrbvs	r7, [r6, #-613]!	; 0x265
     7a4:	31393164 	teqcc	r9, r4, ror #2
     7a8:	6c6c5000 	stclvs	0, cr5, [ip], #-0
     7ac:	6c744338 	ldclvs	3, cr4, [r4], #-224	; 0xffffff20
     7b0:	435f5f00 	cmpmi	pc, #0
     7b4:	5f554d43 	svcpl	0x00554d43
     7b8:	4c4c4c50 	mcrrmi	12, 5, r4, ip, cr0
     7bc:	5f4b434f 	svcpl	0x004b434f
     7c0:	30474552 	subcc	r4, r7, r2, asr r5
     7c4:	00303032 	eorseq	r3, r0, r2, lsr r0
     7c8:	65736572 	ldrbvs	r6, [r3, #-1394]!	; 0x572
     7cc:	64657672 	strbtvs	r7, [r5], #-1650	; 0x672
     7d0:	64003231 	strvs	r3, [r0], #-561	; 0x231
     7d4:	32636463 	rsbcc	r6, r3, #1660944384	; 0x63000000
     7d8:	73657200 	cmnvc	r5, #0
     7dc:	65767265 	ldrbvs	r7, [r6, #-613]!	; 0x265
     7e0:	00343164 	eorseq	r3, r4, r4, ror #2
     7e4:	65736572 	ldrbvs	r6, [r3, #-1394]!	; 0x572
     7e8:	64657672 	strbtvs	r7, [r5], #-1650	; 0x672
     7ec:	72003531 	andvc	r3, r0, #205520896	; 0xc400000
     7f0:	72657365 	rsbvc	r7, r5, #-1811939327	; 0x94000001
     7f4:	31646576 	smccc	18006	; 0x4656
     7f8:	65720036 	ldrbvs	r0, [r2, #-54]!	; 0x36
     7fc:	76726573 			; <UNDEFINED> instruction: 0x76726573
     800:	37316465 	ldrcc	r6, [r1, -r5, ror #8]!
     804:	73657200 	cmnvc	r5, #0
     808:	65767265 	ldrbvs	r7, [r6, #-613]!	; 0x265
     80c:	00383164 	eorseq	r3, r8, r4, ror #2
     810:	5f6b6c63 	svcpl	0x006b6c63
     814:	6373696d 	cmnvs	r3, #1785856	; 0x1b4000
     818:	62684100 	rsbvs	r4, r8, #0
     81c:	65725031 	ldrbvs	r5, [r2, #-49]!	; 0x31
     820:	00766944 	rsbseq	r6, r6, r4, asr #18
     824:	63646364 	cmnvs	r4, #-1879048191	; 0x90000001
     828:	74740033 	ldrbtvc	r0, [r4], #-51	; 0x33
     82c:	00726362 	rsbseq	r6, r2, r2, ror #6
     830:	33755f5f 	cmncc	r5, #380	; 0x17c
     834:	58410032 	stmdapl	r1, {r1, r4, r5}^
     838:	6c433149 	stfvse	f3, [r3], {73}	; 0x49
     83c:	7669446b 	strbtvc	r4, [r9], -fp, ror #8
     840:	73657200 	cmnvc	r5, #0
     844:	31656d75 	smccc	22229	; 0x56d5
     848:	705f635f 	subsvc	r6, pc, pc, asr r3	; <UNPREDICTABLE>
     84c:	00747261 	rsbseq	r7, r4, r1, ror #4
     850:	786c6c50 	stmdavc	ip!, {r4, r6, sl, fp, sp, lr}^
     854:	73616942 	cmnvc	r1, #1081344	; 0x108000
     858:	74696200 	strbtvc	r6, [r9], #-512	; 0x200
     85c:	65720073 	ldrbvs	r0, [r2, #-115]!	; 0x73
     860:	76726573 			; <UNDEFINED> instruction: 0x76726573
     864:	31326465 	teqcc	r2, r5, ror #8
     868:	73657200 	cmnvc	r5, #0
     86c:	65767265 	ldrbvs	r7, [r6, #-613]!	; 0x265
     870:	00323264 	eorseq	r3, r2, r4, ror #4
     874:	566c6c50 			; <UNDEFINED> instruction: 0x566c6c50
     878:	61694265 	cmnvs	r9, r5, ror #4
     87c:	6c700073 	ldclvs	0, cr0, [r0], #-460	; 0xfffffe34
     880:	61665f6c 	cmnvs	r6, ip, ror #30
     884:	726f7463 	rsbvc	r7, pc, #1660944384	; 0x63000000
     888:	7200745f 	andvc	r7, r0, #1593835520	; 0x5f000000
     88c:	72657365 	rsbvc	r7, r5, #-1811939327	; 0x94000001
     890:	31646576 	smccc	18006	; 0x4656
     894:	64480031 	strbvs	r0, [r8], #-49	; 0x31
     898:	6c43696d 	mcrrvs	9, 6, r6, r3, cr13
     89c:	6572006b 	ldrbvs	r0, [r2, #-107]!	; 0x6b
     8a0:	656d7573 	strbvs	r7, [sp, #-1395]!	; 0x573
     8a4:	696f705f 	stmdbvs	pc!, {r0, r1, r2, r3, r4, r6, ip, sp, lr}^	; <UNPREDICTABLE>
     8a8:	7265746e 	rsbvc	r7, r5, #1845493760	; 0x6e000000
     8ac:	62684100 	rsbvs	r4, r8, #0
     8b0:	76694431 			; <UNDEFINED> instruction: 0x76694431
     8b4:	73657200 	cmnvc	r5, #0
     8b8:	65767265 	ldrbvs	r7, [r6, #-613]!	; 0x265
     8bc:	00393164 	eorseq	r3, r9, r4, ror #2
     8c0:	336c6c50 	cmncc	ip, #20480	; 0x5000
     8c4:	006c7443 	rsbeq	r7, ip, r3, asr #8
     8c8:	43737953 	cmnmi	r3, #1359872	; 0x14c000
     8cc:	69446b6c 	stmdbvs	r4, {r2, r3, r5, r6, r8, r9, fp, sp, lr}^
     8d0:	5f5f0076 	svcpl	0x005f0076
     8d4:	756d6363 	strbvc	r6, [sp, #-867]!	; 0x363
     8d8:	6270615f 	rsbsvs	r6, r0, #-1073741801	; 0xc0000017
     8dc:	61725f32 	cmnvs	r2, r2, lsr pc
     8e0:	5f6f6974 	svcpl	0x006f6974
     8e4:	30676572 	rsbcc	r6, r7, r2, ror r5
     8e8:	5f383530 	svcpl	0x00383530
     8ec:	70470074 	subvc	r0, r7, r4, ror r0
     8f0:	64794875 	ldrbtvs	r4, [r9], #-2165	; 0x875
     8f4:	75706300 	ldrbvc	r6, [r0, #-768]!	; 0x300
     8f8:	0064695f 	rsbeq	r6, r4, pc, asr r9
     8fc:	52626841 	rsbpl	r6, r2, #4259840	; 0x410000
     900:	74657365 	strbtvc	r7, [r5], #-869	; 0x365
     904:	68410030 	stmdavs	r1, {r4, r5}^
     908:	73655262 	cmnvc	r5, #536870918	; 0x20000006
     90c:	00317465 	eorseq	r7, r1, r5, ror #8
     910:	52626841 	rsbpl	r6, r2, #4259840	; 0x410000
     914:	74657365 	strbtvc	r7, [r5], #-869	; 0x365
     918:	65720032 	ldrbvs	r0, [r2, #-50]!	; 0x32
     91c:	76726573 			; <UNDEFINED> instruction: 0x76726573
     920:	30326465 	eorscc	r6, r2, r5, ror #8
     924:	00363136 	eorseq	r3, r6, r6, lsr r1
     928:	32757063 	rsbscc	r7, r5, #99	; 0x63
     92c:	7365725f 	cmnvc	r5, #-268435451	; 0xf0000005
     930:	66007465 	strvs	r7, [r0], -r5, ror #8
     934:	5f636e75 	svcpl	0x00636e75
     938:	72746e65 	rsbsvc	r6, r4, #1616	; 0x650
     93c:	70530079 	subsvc	r0, r3, r9, ror r0
     940:	43666964 	cmnmi	r6, #1638400	; 0x190000
     944:	41006b6c 	tstmi	r0, ip, ror #22
     948:	47326270 			; <UNDEFINED> instruction: 0x47326270
     94c:	00657461 	rsbeq	r7, r5, r1, ror #8
     950:	416c6c50 	cmnmi	ip, r0, asr ip
     954:	6f696475 	svcvs	0x00696475
     958:	31676552 	cmncc	r7, r2, asr r5
     95c:	74746150 	ldrbtvc	r6, [r4], #-336	; 0x150
     960:	006e7265 	rsbeq	r7, lr, r5, ror #4
     964:	316c6c50 	cmncc	ip, r0, asr ip
     968:	6b636f4c 	blvs	18dc6a0 <__bss_end+0x18d90ec>
     96c:	73657200 	cmnvc	r5, #0
     970:	65767265 	ldrbvs	r7, [r6, #-613]!	; 0x265
     974:	37303264 	ldrcc	r3, [r0, -r4, ror #4]!
     978:	78610031 	stmdavc	r1!, {r0, r4, r5}^
     97c:	76655f70 	uqsub16vc	r5, r5, r0
     980:	00746e65 	rsbseq	r6, r4, r5, ror #28
     984:	65736572 	ldrbvs	r6, [r3, #-1394]!	; 0x572
     988:	64657672 	strbtvs	r7, [r5], #-1650	; 0x672
     98c:	31323431 	teqcc	r2, r1, lsr r4
     990:	61724400 	cmnvs	r2, r0, lsl #8
     994:	7461476d 	strbtvc	r4, [r1], #-1901	; 0x76d
     998:	68410065 	stmdavs	r1, {r0, r2, r5, r6}^
     99c:	6c433162 	stfvse	f3, [r3], {98}	; 0x62
     9a0:	6372536b 	cmnvs	r2, #-1409286143	; 0xac000001
     9a4:	6c6c5000 	stclvs	0, cr5, [ip], #-0
     9a8:	75543143 	ldrbvc	r3, [r4, #-323]	; 0x143
     9ac:	6c50006e 	mrrcvs	0, 6, r0, r0, cr14	; <UNPREDICTABLE>
     9b0:	4265446c 	rsbmi	r4, r5, #1811939328	; 0x6c000000
     9b4:	00736169 	rsbseq	r6, r3, r9, ror #2
     9b8:	31627041 	cmncc	r2, r1, asr #32
     9bc:	00766944 	rsbseq	r6, r6, r4, asr #18
     9c0:	7375624d 	cmnvc	r5, #-805306364	; 0xd0000004
     9c4:	65736552 	ldrbvs	r6, [r3, #-1362]!	; 0x552
     9c8:	67655274 			; <UNDEFINED> instruction: 0x67655274
     9cc:	6c6c5000 	stclvs	0, cr5, [ip], #-0
     9d0:	69647541 	stmdbvs	r4!, {r0, r6, r8, sl, ip, sp, lr}^
     9d4:	6765526f 	strbvs	r5, [r5, -pc, ror #4]!
     9d8:	74615030 	strbtvc	r5, [r1], #-48	; 0x30
     9dc:	6e726574 	mrcvs	5, 3, r6, cr2, cr4, {3}
     9e0:	6c6c5000 	stclvs	0, cr5, [ip], #-0
     9e4:	65646956 	strbvs	r6, [r4, #-2390]!	; 0x956
     9e8:	6942316f 	stmdbvs	r2, {r0, r1, r2, r3, r5, r6, r8, ip, sp}^
     9ec:	72007361 	andvc	r7, r0, #-2080374783	; 0x84000001
     9f0:	72657365 	rsbvc	r7, r5, #-1811939327	; 0x94000001
     9f4:	35646576 	strbcc	r6, [r4, #-1398]!	; 0x576
     9f8:	65720031 	ldrbvs	r0, [r2, #-49]!	; 0x31
     9fc:	76726573 			; <UNDEFINED> instruction: 0x76726573
     a00:	30326465 	eorscc	r6, r2, r5, ror #8
     a04:	50003233 	andpl	r3, r0, r3, lsr r2
     a08:	43356c6c 	teqmi	r5, #27648	; 0x6c00
     a0c:	63006c74 	movwvs	r6, #3188	; 0xc74
     a10:	645f6b6c 	ldrbvs	r6, [pc], #-2924	; a18 <get_cur_cluster_id+0x8>
     a14:	745f7669 	ldrbvc	r7, [pc], #-1641	; a1c <get_cur_cluster_id+0xc>
     a18:	4c4c5000 	marmi	acc0, r5, ip
     a1c:	5f006e45 	svcpl	0x00006e45
     a20:	6d63635f 	stclvs	3, cr6, [r3, #-380]!	; 0xfffffe84
     a24:	6c705f75 	ldclvs	15, cr5, [r0], #-468	; 0xfffffe2c
     a28:	725f316c 	subsvc	r3, pc, #27
     a2c:	30306765 	eorscc	r6, r0, r5, ror #14
     a30:	745f3030 	ldrbvc	r3, [pc], #-48	; a38 <inv_loop1>
     a34:	62684100 	rsbvs	r4, r8, #0
     a38:	67664332 			; <UNDEFINED> instruction: 0x67664332
     a3c:	70694d00 	rsbvc	r4, r9, r0, lsl #26
     a40:	69734369 	ldmdbvs	r3!, {r0, r3, r5, r6, r8, r9, lr}^
     a44:	74657300 	strbtvc	r7, [r5], #-768	; 0x300
     a48:	6c6c705f 	stclvs	0, cr7, [ip], #-380	; 0xfffffe84
     a4c:	62704100 	rsbsvs	r4, r0, #0
     a50:	73655231 	cmnvc	r5, #268435459	; 0x10000003
     a54:	72007465 	andvc	r7, r0, #1694498816	; 0x65000000
     a58:	72657365 	rsbvc	r7, r5, #-1811939327	; 0x94000001
     a5c:	30646576 	rsbcc	r6, r4, r6, ror r5
     a60:	73657200 	cmnvc	r5, #0
     a64:	65767265 	ldrbvs	r7, [r6, #-613]!	; 0x265
     a68:	72003164 	andvc	r3, r0, #25
     a6c:	72657365 	rsbvc	r7, r5, #-1811939327	; 0x94000001
     a70:	32646576 	rsbcc	r6, r4, #494927872	; 0x1d800000
     a74:	73657200 	cmnvc	r5, #0
     a78:	65767265 	ldrbvs	r7, [r6, #-613]!	; 0x265
     a7c:	72003364 	andvc	r3, r0, #-1879048191	; 0x90000001
     a80:	72657365 	rsbvc	r7, r5, #-1811939327	; 0x94000001
     a84:	34646576 	strbtcc	r6, [r4], #-1398	; 0x576
     a88:	73657200 	cmnvc	r5, #0
     a8c:	65767265 	ldrbvs	r7, [r6, #-613]!	; 0x265
     a90:	72003564 	andvc	r3, r0, #419430400	; 0x19000000
     a94:	72657365 	rsbvc	r7, r5, #-1811939327	; 0x94000001
     a98:	36646576 			; <UNDEFINED> instruction: 0x36646576
     a9c:	73657200 	cmnvc	r5, #0
     aa0:	65767265 	ldrbvs	r7, [r6, #-613]!	; 0x265
     aa4:	72003764 	andvc	r3, r0, #26214400	; 0x1900000
     aa8:	72657365 	rsbvc	r7, r5, #-1811939327	; 0x94000001
     aac:	39646576 	stmdbcc	r4!, {r1, r2, r4, r5, r6, r8, sl, sp, lr}^
     ab0:	63616300 	cmnvs	r1, #0
     ab4:	694d0072 	stmdbvs	sp, {r1, r4, r5, r6}^
     ab8:	73446970 	movtvc	r6, #18800	; 0x4970
     abc:	67655269 	strbvs	r5, [r5, -r9, ror #4]!
     ac0:	694d0030 	stmdbvs	sp, {r4, r5}^
     ac4:	73446970 	movtvc	r6, #18800	; 0x4970
     ac8:	67655269 	strbvs	r5, [r5, -r9, ror #4]!
     acc:	77700031 			; <UNDEFINED> instruction: 0x77700031
     ad0:	65725f72 	ldrbvs	r5, [r2, #-3954]!	; 0xf72
     ad4:	73430067 	movtvc	r0, #12391	; 0x3067
     ad8:	6d003069 	stcvs	0, cr3, [r0, #-420]	; 0xfffffe5c
     adc:	615f6176 	cmpvs	pc, r6, ror r1	; <UNPREDICTABLE>
     ae0:	00726464 	rsbseq	r6, r2, r4, ror #8
     ae4:	535f4d50 	cmppl	pc, #5120	; 0x1400
     ae8:	444e4154 	strbmi	r4, [lr], #-340	; 0x154
     aec:	505f5942 	subspl	r5, pc, r2, asr #18
     af0:	544e4952 	strbpl	r4, [lr], #-2386	; 0x952
     af4:	4943435f 	stmdbmi	r3, {r0, r1, r2, r3, r4, r6, r8, r9, lr}^
     af8:	5f303034 	svcpl	0x00303034
     afc:	00474552 	subeq	r4, r7, r2, asr r5
     b00:	38755f5f 	ldmdacc	r5!, {r0, r1, r2, r3, r4, r6, r8, r9, sl, fp, ip, lr}^
     b04:	62747400 	rsbsvs	r7, r4, #0
     b08:	0072305f 	rsbseq	r3, r2, pc, asr r0
     b0c:	30697053 	rsbcc	r7, r9, r3, asr r0
     b10:	69705300 	ldmdbvs	r0!, {r8, r9, ip, lr}^
     b14:	68410031 	stmdavs	r1, {r0, r4, r5}^
     b18:	74614762 	strbtvc	r4, [r1], #-1890	; 0x762
     b1c:	72003065 	andvc	r3, r0, #101	; 0x65
     b20:	72657365 	rsbvc	r7, r5, #-1811939327	; 0x94000001
     b24:	37646576 			; <UNDEFINED> instruction: 0x37646576
     b28:	6d430031 	stclvs	0, cr0, [r3, #-196]	; 0xffffff3c
     b2c:	67655275 			; <UNDEFINED> instruction: 0x67655275
     b30:	635f5f00 	cmpvs	pc, #0
     b34:	5f756d63 	svcpl	0x00756d63
     b38:	6c6c6c70 	stclvs	12, cr6, [ip], #-448	; 0xfffffe40
     b3c:	5f6b636f 	svcpl	0x006b636f
     b40:	30676572 	rsbcc	r6, r7, r2, ror r5
     b44:	5f303032 	svcpl	0x00303032
     b48:	6c500074 	mrrcvs	0, 7, r0, r0, cr4	; <UNPREDICTABLE>
     b4c:	7265506c 	rsbvc	r5, r5, #108	; 0x6c
     b50:	42687069 	rsbmi	r7, r8, #105	; 0x69
     b54:	00736169 	rsbseq	r6, r3, r9, ror #2
     b58:	535f4d50 	cmppl	pc, #5120	; 0x1400
     b5c:	444e4154 	strbmi	r4, [lr], #-340	; 0x154
     b60:	545f5942 	ldrbpl	r5, [pc], #-2370	; b68 <flush_icache>
     b64:	00545345 	subseq	r5, r4, r5, asr #6
     b68:	696d6448 	stmdbvs	sp!, {r3, r6, sl, sp, lr}^
     b6c:	776f6c53 			; <UNDEFINED> instruction: 0x776f6c53
     b70:	006b6c43 	rsbeq	r6, fp, r3, asr #24
     b74:	446c6c50 	strbtmi	r6, [ip], #-3152	; 0xc50
     b78:	61507264 	cmpvs	r0, r4, ror #4
     b7c:	72657474 	rsbvc	r7, r5, #1946157056	; 0x74000000
     b80:	6d74006e 	ldclvs	0, cr0, [r4, #-440]!	; 0xfffffe48
     b84:	72745070 	rsbsvc	r5, r4, #112	; 0x70
     b88:	6d656d00 	stclvs	13, cr6, [r5, #-0]
     b8c:	7261705f 	rsbvc	r7, r1, #95	; 0x5f
     b90:	6e695f61 	cdpvs	15, 6, cr5, cr9, cr1, {3}
     b94:	5f006f66 	svcpl	0x00006f66
     b98:	6d63635f 	stclvs	3, cr6, [r3, #-380]!	; 0xfffffe84
     b9c:	65725f75 	ldrbvs	r5, [r2, #-3957]!	; 0xf75
     ba0:	696c5f67 	stmdbvs	ip!, {r0, r1, r2, r5, r6, r8, r9, sl, fp, ip, lr}^
     ba4:	745f7473 	ldrbvc	r7, [pc], #-1139	; bac <disable_dcache>
     ba8:	6b6c6300 	blvs	1b197b0 <__bss_end+0x1b161fc>
     bac:	73696d5f 	cmnvc	r9, #6080	; 0x17c0
     bb0:	00745f63 	rsbseq	r5, r4, r3, ror #30
     bb4:	5f737973 	svcpl	0x00737973
     bb8:	6e657665 	cdpvs	6, 6, cr7, cr5, cr5, {3}
     bbc:	6c700074 	ldclvs	0, cr0, [r0], #-464	; 0xfffffe30
     bc0:	625f366c 	subsvs	r3, pc, #113246208	; 0x6c00000
     bc4:	00736169 	rsbseq	r6, r3, r9, ror #2
     bc8:	566c6c50 			; <UNDEFINED> instruction: 0x566c6c50
     bcc:	74433165 	strbvc	r3, [r3], #-357	; 0x165
     bd0:	6c50006c 	mrrcvs	0, 6, r0, r0, cr12	; <UNPREDICTABLE>
     bd4:	7264446c 	rsbvc	r4, r4, #1811939328	; 0x6c000000
     bd8:	31676552 	cmncc	r7, r2, asr r5
     bdc:	74746150 	ldrbtvc	r6, [r4], #-336	; 0x150
     be0:	006e7265 	rsbeq	r7, lr, r5, ror #4
     be4:	6d617244 	sfmvs	f7, 2, [r1, #-272]!	; 0xfffffef0
     be8:	00676643 	rsbeq	r6, r7, r3, asr #12
     bec:	63635f5f 	cmnvs	r3, #380	; 0x17c
     bf0:	615f756d 	cmpvs	pc, sp, ror #10
     bf4:	5f316268 	svcpl	0x00316268
     bf8:	69746172 	ldmdbvs	r4!, {r1, r4, r5, r6, r8, sp, lr}^
     bfc:	65725f6f 	ldrbvs	r5, [r2, #-3951]!	; 0xf6f
     c00:	35303067 	ldrcc	r3, [r0, #-103]!	; 0x67
     c04:	00745f34 	rsbseq	r5, r4, r4, lsr pc
     c08:	316c6c70 	smccc	50880	; 0xc6c0
     c0c:	6169625f 	cmnvs	r9, pc, asr r2
     c10:	74740073 	ldrbtvc	r0, [r4], #-115	; 0x73
     c14:	72315f62 	eorsvc	r5, r1, #392	; 0x188
     c18:	5f4d5000 	svcpl	0x004d5000
     c1c:	4e415453 	mcrmi	4, 2, r5, cr1, cr3, {2}
     c20:	5f594244 	svcpl	0x00594244
     c24:	4e495250 	mcrmi	2, 2, r5, cr9, cr0, {2}
     c28:	41435f54 	cmpmi	r3, r4, asr pc
     c2c:	5f454843 	svcpl	0x00454843
     c30:	5f424c54 	svcpl	0x00424c54
     c34:	5353494d 	cmppl	r3, #1261568	; 0x134000
     c38:	73657200 	cmnvc	r5, #0
     c3c:	65767265 	ldrbvs	r7, [r6, #-613]!	; 0x265
     c40:	31313164 	teqcc	r1, r4, ror #2
     c44:	6c6c5000 	stclvs	0, cr5, [ip], #-0
     c48:	62617453 	rsbvs	r7, r1, #1392508928	; 0x53000000
     c4c:	7453656c 	ldrbvc	r6, [r3], #-1388	; 0x56c
     c50:	73757461 	cmnvc	r5, #1627389952	; 0x61000000
     c54:	6c6c5000 	stclvs	0, cr5, [ip], #-0
     c58:	65646956 	strbvs	r6, [r4, #-2390]!	; 0x956
     c5c:	6552306f 	ldrbvs	r3, [r2, #-111]	; 0x6f
     c60:	61503167 	cmpvs	r0, r7, ror #2
     c64:	72657474 	rsbvc	r7, r5, #1946157056	; 0x74000000
     c68:	6f4c006e 	svcvs	0x004c006e
     c6c:	69546b63 	ldmdbvs	r4, {r0, r1, r5, r6, r8, r9, fp, sp, lr}^
     c70:	5000656d 	andpl	r6, r0, sp, ror #10
     c74:	64446c6c 	strbvs	r6, [r4], #-3180	; 0xc6c
     c78:	67664372 			; <UNDEFINED> instruction: 0x67664372
     c7c:	73657200 	cmnvc	r5, #0
     c80:	65767265 	ldrbvs	r7, [r6, #-613]!	; 0x265
     c84:	31303264 	teqcc	r0, r4, ror #4
     c88:	73657200 	cmnvc	r5, #0
     c8c:	65767265 	ldrbvs	r7, [r6, #-613]!	; 0x265
     c90:	58410064 	stmdapl	r1, {r2, r5, r6}^
     c94:	6b6c4349 	blvs	1b119c0 <__bss_end+0x1b0e40c>
     c98:	00766944 	rsbseq	r6, r6, r4, asr #18
     c9c:	31627041 	cmncc	r2, r1, asr #32
     ca0:	65746147 	ldrbvs	r6, [r4, #-327]!	; 0x147
     ca4:	73657200 	cmnvc	r5, #0
     ca8:	65767265 	ldrbvs	r7, [r6, #-613]!	; 0x265
     cac:	00313964 	eorseq	r3, r1, r4, ror #18
     cb0:	65736572 	ldrbvs	r6, [r3, #-1394]!	; 0x572
     cb4:	64657672 	strbtvs	r7, [r5], #-1650	; 0x672
     cb8:	72003239 	andvc	r3, r0, #-1879048189	; 0x90000003
     cbc:	72657365 	rsbvc	r7, r5, #-1811939327	; 0x94000001
     cc0:	39646576 	stmdbcc	r4!, {r1, r2, r4, r5, r6, r8, sl, sp, lr}^
     cc4:	65720033 	ldrbvs	r0, [r2, #-51]!	; 0x33
     cc8:	76726573 			; <UNDEFINED> instruction: 0x76726573
     ccc:	37316465 	ldrcc	r6, [r1, -r5, ror #8]!
     cd0:	63003134 	movwvs	r3, #308	; 0x134
     cd4:	00727373 	rsbseq	r7, r2, r3, ror r3
     cd8:	535f4d50 	cmppl	pc, #5120	; 0x1400
     cdc:	444e4154 	strbmi	r4, [lr], #-340	; 0x154
     ce0:	505f5942 	subspl	r5, pc, r2, asr #18
     ce4:	544e4952 	strbpl	r4, [lr], #-2386	; 0x952
     ce8:	5550435f 	ldrbpl	r4, [r0, #-863]	; 0x35f
     cec:	4f495f53 	svcmi	0x00495f53
     cf0:	4154535f 	cmpmi	r4, pc, asr r3
     cf4:	00535554 	subseq	r5, r3, r4, asr r5
     cf8:	65736572 	ldrbvs	r6, [r3, #-1394]!	; 0x572
     cfc:	64657672 	strbtvs	r7, [r5], #-1650	; 0x672
     d00:	00313231 	eorseq	r3, r1, r1, lsr r2
     d04:	326c6c50 	rsbcc	r6, ip, #20480	; 0x5000
     d08:	006c7443 	rsbeq	r7, ip, r3, asr #8
     d0c:	43435f5f 	movtmi	r5, #16223	; 0x3f5f
     d10:	525f554d 	subspl	r5, pc, #322961408	; 0x13400000
     d14:	4c5f4745 	mrrcmi	7, 4, r4, pc, cr5	; <UNPREDICTABLE>
     d18:	00545349 	subseq	r5, r4, r9, asr #6
     d1c:	535f4d50 	cmppl	pc, #5120	; 0x1400
     d20:	444e4154 	strbmi	r4, [lr], #-340	; 0x154
     d24:	505f5942 	subspl	r5, pc, r2, asr #18
     d28:	544e4952 	strbpl	r4, [lr], #-2386	; 0x952
     d2c:	5345525f 	movtpl	r5, #21087	; 0x525f
     d30:	00454d55 	subeq	r4, r5, r5, asr sp
     d34:	436c6c50 	cmnmi	ip, #20480	; 0x5000
     d38:	75704331 	ldrbvc	r4, [r0, #-817]!	; 0x331
     d3c:	61694278 	smcvs	37928	; 0x9428
     d40:	614e0073 	hvcvs	57347	; 0xe003
     d44:	0030646e 	eorseq	r6, r0, lr, ror #8
     d48:	535f4d50 	cmppl	pc, #5120	; 0x1400
     d4c:	444e4154 	strbmi	r4, [lr], #-340	; 0x154
     d50:	505f5942 	subspl	r5, pc, r2, asr #18
     d54:	544e4952 	strbpl	r4, [lr], #-2386	; 0x952
     d58:	5257505f 	subspl	r5, r7, #95	; 0x5f
     d5c:	4154535f 	cmpmi	r4, pc, asr r3
     d60:	00535554 	subseq	r5, r3, r4, asr r5
     d64:	6d5f7761 	ldclvs	7, cr7, [pc, #-388]	; be8 <disable_l2cache+0x4>
     d68:	705f6d65 	subsvc	r6, pc, r5, ror #26
     d6c:	00617261 	rsbeq	r7, r1, r1, ror #4
     d70:	72727270 	rsbsvc	r7, r2, #7
     d74:	69634300 	stmdbvs	r3!, {r8, r9, lr}^
     d78:	43303034 	teqmi	r0, #52	; 0x34
     d7c:	50006b6c 	andpl	r6, r0, ip, ror #22
     d80:	43396c6c 	teqmi	r9, #27648	; 0x6c00
     d84:	73006c74 	movwvc	r6, #3188	; 0xc74
     d88:	61625f70 	smcvs	9712	; 0x25f0
     d8c:	70756b63 	rsbsvc	r6, r5, r3, ror #22
     d90:	67657200 	strbvs	r7, [r5, -r0, lsl #4]!
     d94:	6c65735f 	stclvs	3, cr7, [r5], #-380	; 0xfffffe84
     d98:	5f6f6900 	svcpl	0x006f6900
     d9c:	74696e69 	strbtvc	r6, [r9], #-3689	; 0xe69
     da0:	6769685f 			; <UNDEFINED> instruction: 0x6769685f
     da4:	6f6c0068 	svcvs	0x006c0068
     da8:	665f706f 	ldrbvs	r7, [pc], -pc, rrx
     dac:	0067616c 	rsbeq	r6, r7, ip, ror #2
     db0:	74617473 	strbtvc	r7, [r1], #-1139	; 0x473
     db4:	725f7375 	subsvc	r7, pc, #-738197503	; 0xd4000001
     db8:	73006765 	movwvc	r6, #1893	; 0x765
     dbc:	75746174 	ldrbvc	r6, [r4, #-372]!	; 0x174
     dc0:	65725f73 	ldrbvs	r5, [r2, #-3955]!	; 0xf73
     dc4:	6d745f67 	ldclvs	15, cr5, [r4, #-412]!	; 0xfffffe64
     dc8:	61730070 	cmnvs	r3, r0, ror r0
     dcc:	6d5f6576 	cfldr64vs	mvdx6, [pc, #-472]	; bfc <disable_l2cache+0x18>
     dd0:	735f6d65 	cmpvc	pc, #6464	; 0x1940
     dd4:	75746174 	ldrbvc	r6, [r4, #-372]!	; 0x174
     dd8:	6f6e5f73 	svcvs	0x006e5f73
     ddc:	00756d6d 	rsbseq	r6, r5, sp, ror #26
     de0:	685f6f69 	ldmdavs	pc, {r0, r3, r5, r6, r8, r9, sl, fp, sp, lr}^	; <UNPREDICTABLE>
     de4:	00686769 	rsbeq	r6, r8, r9, ror #14
     de8:	61746164 	cmnvs	r4, r4, ror #2
     dec:	0064725f 	rsbeq	r7, r4, pc, asr r2
     df0:	5f6d656d 	svcpl	0x006d656d
     df4:	74617473 	strbtvc	r7, [r1], #-1139	; 0x473
     df8:	695f7375 	ldmdbvs	pc, {r0, r2, r4, r5, r6, r8, r9, ip, sp, lr}^	; <UNPREDICTABLE>
     dfc:	5f74696e 	svcpl	0x0074696e
     e00:	6d6d6f6e 	stclvs	15, cr6, [sp, #-440]!	; 0xfffffe48
     e04:	61730075 	cmnvs	r3, r5, ror r0
     e08:	6d5f6576 	cfldr64vs	mvdx6, [pc, #-472]	; c38 <enable_icache+0x18>
     e0c:	665f6d65 	ldrbvs	r6, [pc], -r5, ror #26
     e10:	0067616c 	rsbeq	r6, r7, ip, ror #2
     e14:	5f6d656d 	svcpl	0x006d656d
     e18:	74617473 	strbtvc	r7, [r1], #-1139	; 0x473
     e1c:	635f7375 	cmpvs	pc, #-738197503	; 0xd4000001
     e20:	7261656c 	rsbvc	r6, r1, #452984832	; 0x1b000000
     e24:	69727000 	ldmdbvs	r2!, {ip, sp, lr}^
     e28:	665f746e 	ldrbvs	r7, [pc], -lr, ror #8
     e2c:	0067616c 	rsbeq	r6, r7, ip, ror #2
     e30:	68637261 	stmdavs	r3!, {r0, r5, r6, r9, ip, sp, lr}^
     e34:	6d72612f 	ldfvse	f6, [r2, #-188]!	; 0xffffff44
     e38:	63616d2f 	cmnvs	r1, #3008	; 0xbc0
     e3c:	75732d68 	ldrbvc	r2, [r3, #-3432]!	; 0xd68
     e40:	2f69786e 	svccs	0x0069786e
     e44:	732f6d70 	teqvc	pc, #7168	; 0x1c00
     e48:	646e6174 	strbtvs	r6, [lr], #-372	; 0x174
     e4c:	2e2f7962 	cdpcs	9, 2, cr7, cr15, cr2, {3}
     e50:	6d702f2e 	ldclvs	15, cr2, [r0, #-184]!	; 0xffffff48
     e54:	6265645f 	rsbvs	r6, r5, #1593835520	; 0x5f000000
     e58:	632e6775 	teqvs	lr, #30670848	; 0x1d40000
     e5c:	5f6f6900 	svcpl	0x006f6900
     e60:	74696e69 	strbtvc	r6, [r9], #-3689	; 0xe69
     e64:	6d656d00 	stclvs	13, cr6, [r5, #-0]
     e68:	6174735f 	cmnvs	r4, pc, asr r3
     e6c:	5f737574 	svcpl	0x00737574
     e70:	74696e69 	strbtvc	r6, [r9], #-3689	; 0xe69
     e74:	74656700 	strbtvc	r6, [r5], #-1792	; 0x700
     e78:	6d656d5f 	stclvs	13, cr6, [r5, #-380]!	; 0xfffffe84
     e7c:	6174735f 	cmnvs	r4, pc, asr r3
     e80:	00737574 	rsbseq	r7, r3, r4, ror r5
     e84:	695f6f69 	ldmdbvs	pc, {r0, r3, r5, r6, r8, r9, sl, fp, sp, lr}^	; <UNPREDICTABLE>
     e88:	5f74696e 	svcpl	0x0074696e
     e8c:	00776f6c 	rsbseq	r6, r7, ip, ror #30
     e90:	61746164 	cmnvs	r4, r4, ror #2
     e94:	0072775f 	rsbseq	r7, r2, pc, asr r7
     e98:	776f6873 			; <UNDEFINED> instruction: 0x776f6873
     e9c:	6d656d5f 	stclvs	13, cr6, [r5, #-380]!	; 0xfffffe84
     ea0:	6174735f 	cmnvs	r4, pc, asr r3
     ea4:	00737574 	rsbseq	r7, r3, r4, ror r5
     ea8:	61746164 	cmnvs	r4, r4, ror #2
     eac:	61747300 	cmnvs	r4, r0, lsl #6
     eb0:	5f737574 	svcpl	0x00737574
     eb4:	5f676572 	svcpl	0x00676572
     eb8:	745f6170 	ldrbvc	r6, [pc], #-368	; ec0 <jump_to_resume0_nommu+0x40>
     ebc:	6300706d 	movwvs	r7, #109	; 0x6d
     ec0:	7261656c 	rsbvc	r6, r1, #452984832	; 0x1b000000
     ec4:	6d656d5f 	stclvs	13, cr6, [r5, #-380]!	; 0xfffffe84
     ec8:	616c665f 	cmnvs	ip, pc, asr r6
     ecc:	656d0067 	strbvs	r0, [sp, #-103]!	; 0x67
     ed0:	74735f6d 	ldrbtvc	r5, [r3], #-3949	; 0xf6d
     ed4:	73757461 	cmnvc	r5, #1627389952	; 0x61000000
     ed8:	6978655f 	ldmdbvs	r8!, {r0, r1, r2, r3, r4, r6, r8, sl, sp, lr}^
     edc:	74730074 	ldrbtvc	r0, [r3], #-116	; 0x74
     ee0:	73757461 	cmnvc	r5, #1627389952	; 0x61000000
     ee4:	6765725f 			; <UNDEFINED> instruction: 0x6765725f
     ee8:	0061705f 	rsbeq	r7, r1, pc, asr r0
     eec:	5f725f5f 	svcpl	0x00725f5f
     ef0:	5f6f6970 	svcpl	0x006f6970
     ef4:	5f646170 	svcpl	0x00646170
     ef8:	646c6f68 	strbtvs	r6, [ip], #-3944	; 0xf68
     efc:	73756200 	cmnvc	r5, #0
     f00:	61775f79 	cmnvs	r7, r9, ror pc
     f04:	6e697469 	cdpvs	4, 6, cr7, cr9, cr9, {3}
     f08:	61730067 	cmnvs	r3, r7, rrx
     f0c:	6d5f6576 	cfldr64vs	mvdx6, [pc, #-472]	; d3c <mem_preload_tlb+0x8c>
     f10:	735f6d65 	cmpvc	pc, #6464	; 0x1940
     f14:	75746174 	ldrbvc	r6, [r4, #-372]!	; 0x174
     f18:	5f5f0073 	svcpl	0x005f0073
     f1c:	72705f72 	rsbsvc	r5, r0, #456	; 0x1c8
     f20:	705f6d63 	subsvc	r6, pc, r3, ror #26
     f24:	705f6f69 	subsvc	r6, pc, r9, ror #30
     f28:	685f6461 	ldmdavs	pc, {r0, r5, r6, sl, sp, lr}^	; <UNPREDICTABLE>
     f2c:	00646c6f 	rsbeq	r6, r4, pc, ror #24
     f30:	705f7277 	subsvc	r7, pc, r7, ror r2	; <UNPREDICTABLE>
     f34:	65736c75 	ldrbvs	r6, [r3, #-3189]!	; 0xc75
     f38:	756f6300 	strbvc	r6, [pc, #-768]!	; c40 <invalidate_branch_predictor+0x4>
     f3c:	7265746e 	rsbvc	r7, r5, #1845493760	; 0x6e000000
     f40:	616e655f 	cmnvs	lr, pc, asr r5
     f44:	00656c62 	rsbeq	r6, r5, r2, ror #24
     f48:	67726174 			; <UNDEFINED> instruction: 0x67726174
     f4c:	63007465 	movwvs	r7, #1125	; 0x465
     f50:	676e6168 	strbvs	r6, [lr, -r8, ror #2]!
     f54:	75725f65 	ldrbvc	r5, [r2, #-3941]!	; 0xf65
     f58:	6d69746e 	cfstrdvs	mvd7, [r9, #-440]!	; 0xfffffe48
     f5c:	6e655f65 	cdpvs	15, 6, cr5, cr5, cr5, {3}
     f60:	65720076 	ldrbvs	r0, [r2, #-118]!	; 0x76
     f64:	726f7473 	rsbvc	r7, pc, #1929379840	; 0x73000000
     f68:	65705f65 	ldrbvs	r5, [r0, #-3941]!	; 0xf65
     f6c:	6f636672 	svcvs	0x00636672
     f70:	65746e75 	ldrbvs	r6, [r4, #-3701]!	; 0xe75
     f74:	65640072 	strbvs	r0, [r4, #-114]!	; 0x72
     f78:	5f79616c 	svcpl	0x0079616c
     f7c:	6f007375 	svcvs	0x00007375
     f80:	68726576 	ldmdavs	r2!, {r1, r2, r4, r5, r6, r8, sl, sp, lr}^
     f84:	00646165 	rsbeq	r6, r4, r5, ror #2
     f88:	5f746567 	svcpl	0x00746567
     f8c:	6e657665 	cdpvs	6, 6, cr7, cr5, cr5, {3}
     f90:	6f635f74 	svcvs	0x00635f74
     f94:	65746e75 	ldrbvs	r6, [r4, #-3701]!	; 0xe75
     f98:	6e650072 	mcrvs	0, 3, r0, cr5, cr2, {3}
     f9c:	656c6261 	strbvs	r6, [ip, #-609]!	; 0x261
     fa0:	7669645f 			; <UNDEFINED> instruction: 0x7669645f
     fa4:	72656469 	rsbvc	r6, r5, #1761607680	; 0x69000000
     fa8:	73657200 	cmnvc	r5, #0
     fac:	635f7465 	cmpvs	pc, #1694498816	; 0x65000000
     fb0:	746e756f 	strbtvc	r7, [lr], #-1391	; 0x56f
     fb4:	63007265 	movwvs	r7, #613	; 0x265
     fb8:	7265746e 	rsbvc	r7, r5, #1845493760	; 0x6e000000
     fbc:	63616200 	cmnvs	r1, #0
     fc0:	5f70756b 	svcpl	0x0070756b
     fc4:	66726570 			; <UNDEFINED> instruction: 0x66726570
     fc8:	756f635f 	strbvc	r6, [pc, #-863]!	; c71 <enable_program_flow_prediction+0x1>
     fcc:	7265746e 	rsbvc	r7, r5, #1845493760	; 0x6e000000
     fd0:	616e655f 	cmnvs	lr, pc, asr r5
     fd4:	5f656c62 	svcpl	0x00656c62
     fd8:	00676572 	rsbeq	r6, r7, r2, ror r5
     fdc:	41435f49 	cmpmi	r3, r9, asr #30
     fe0:	5f454843 	svcpl	0x00454843
     fe4:	5353494d 	cmppl	r3, #1261568	; 0x134000
     fe8:	5f737500 	svcpl	0x00737500
     fec:	00746e63 	rsbseq	r6, r4, r3, ror #28
     ff0:	725f6f64 	subsvc	r6, pc, #400	; 0x190
     ff4:	74657365 	strbtvc	r7, [r5], #-869	; 0x365
     ff8:	545f4400 	ldrbpl	r4, [pc], #-1024	; 1000 <__save_processor_state+0xc0>
     ffc:	4d5f424c 	lfmmi	f4, 2, [pc, #-304]	; ed4 <jump_to_resume0_nommu+0x54>
    1000:	00535349 	subseq	r5, r3, r9, asr #6
    1004:	6b636162 	blvs	18d9594 <__bss_end+0x18d5fe0>
    1008:	705f7075 	subsvc	r7, pc, r5, ror r0	; <UNPREDICTABLE>
    100c:	63667265 	cmnvs	r6, #1342177286	; 0x50000006
    1010:	746e756f 	strbtvc	r7, [lr], #-1391	; 0x56f
    1014:	5f007265 	svcpl	0x00007265
    1018:	3233735f 	eorscc	r7, r3, #2080374785	; 0x7c000001
    101c:	65766500 	ldrbvs	r6, [r6, #-1280]!	; 0x500
    1020:	635f746e 	cmpvs	pc, #1845493760	; 0x6e000000
    1024:	6200746e 	andvs	r7, r0, #1845493760	; 0x6e000000
    1028:	756b6361 	strbvc	r6, [fp, #-865]!	; 0x361
    102c:	65705f70 	ldrbvs	r5, [r0, #-3952]!	; 0xf70
    1030:	635f6672 	cmpvs	pc, #119537664	; 0x7200000
    1034:	746e756f 	strbtvc	r7, [lr], #-1391	; 0x56f
    1038:	635f7265 	cmpvs	pc, #1342177286	; 0x50000006
    103c:	5f6c7274 	svcpl	0x006c7274
    1040:	00676572 	rsbeq	r6, r7, r2, ror r5
    1044:	65707974 	ldrbvs	r7, [r0, #-2420]!	; 0x974
    1048:	63726100 	cmnvs	r2, #0
    104c:	72612f68 	rsbvc	r2, r1, #416	; 0x1a0
    1050:	616d2f6d 	cmnvs	sp, sp, ror #30
    1054:	732d6863 	teqvc	sp, #6488064	; 0x630000
    1058:	69786e75 	ldmdbvs	r8!, {r0, r2, r4, r5, r6, r9, sl, fp, sp, lr}^
    105c:	2f6d702f 	svccs	0x006d702f
    1060:	6e617473 	mcrvs	4, 3, r7, cr1, cr3, {3}
    1064:	2f796264 	svccs	0x00796264
    1068:	6d2f2e2e 	stcvs	14, cr2, [pc, #-184]!	; fb8 <__save_processor_state+0x78>
    106c:	745f6d65 	ldrbvc	r6, [pc], #-3429	; 1074 <__save_processor_state+0x134>
    1070:	6e696d69 	cdpvs	13, 6, cr6, cr9, cr9, {3}
    1074:	00632e67 	rsbeq	r2, r3, r7, ror #28
    1078:	41435f44 	cmpmi	r3, r4, asr #30
    107c:	5f454843 	svcpl	0x00454843
    1080:	5353494d 	cmppl	r3, #1261568	; 0x134000
    1084:	74656700 	strbtvc	r6, [r5], #-1792	; 0x700
    1088:	6379635f 	cmnvs	r9, #2080374785	; 0x7c000001
    108c:	6f63656c 	svcvs	0x0063656c
    1090:	00746e75 	rsbseq	r6, r4, r5, ror lr
    1094:	74696e69 	strbtvc	r6, [r9], #-3689	; 0xe69
    1098:	7265705f 	rsbvc	r7, r5, #95	; 0x5f
    109c:	756f6366 	strbvc	r6, [pc, #-870]!	; d3e <mem_preload_tlb+0x8e>
    10a0:	7265746e 	rsbvc	r7, r5, #1845493760	; 0x6e000000
    10a4:	65730073 	ldrbvs	r0, [r3, #-115]!	; 0x73
    10a8:	76655f74 	uqsub16vc	r5, r5, r4
    10ac:	5f746e65 	svcpl	0x00746e65
    10b0:	6e756f63 	cdpvs	15, 7, cr6, cr5, cr3, {3}
    10b4:	00726574 	rsbseq	r6, r2, r4, ror r5
    10b8:	74696e69 	strbtvc	r6, [r9], #-3689	; 0xe69
    10bc:	6576655f 	ldrbvs	r6, [r6, #-1375]!	; 0x55f
    10c0:	635f746e 	cmpvs	pc, #1845493760	; 0x6e000000
    10c4:	746e756f 	strbtvc	r7, [lr], #-1391	; 0x56f
    10c8:	63007265 	movwvs	r7, #613	; 0x265
    10cc:	746e756f 	strbtvc	r7, [lr], #-1391	; 0x56f
    10d0:	745f7265 	ldrbvc	r7, [pc], #-613	; 10d8 <__save_processor_state+0x198>
    10d4:	5f657079 	svcpl	0x00657079
    10d8:	616d0065 	cmnvs	sp, r5, rrx
    10dc:	5f686374 	svcpl	0x00686374
    10e0:	6e657665 	cdpvs	6, 6, cr7, cr5, cr5, {3}
    10e4:	6f635f74 	svcvs	0x00635f74
    10e8:	65746e75 	ldrbvs	r6, [r4, #-3701]!	; 0xe75
    10ec:	5f490072 	svcpl	0x00490072
    10f0:	5f424c54 	svcpl	0x00424c54
    10f4:	5353494d 	cmppl	r3, #1261568	; 0x134000
    10f8:	63726100 	cmnvs	r2, #0
    10fc:	72612f68 	rsbvc	r2, r1, #416	; 0x1a0
    1100:	616d2f6d 	cmnvs	sp, sp, ror #30
    1104:	732d6863 	teqvc	sp, #6488064	; 0x630000
    1108:	69786e75 	ldmdbvs	r8!, {r0, r2, r4, r5, r6, r9, sl, fp, sp, lr}^
    110c:	2f6d702f 	svccs	0x006d702f
    1110:	6e617473 	mcrvs	4, 3, r7, cr1, cr3, {3}
    1114:	2f796264 	svccs	0x00796264
    1118:	6d2f2e2e 	stcvs	14, cr2, [pc, #-184]!	; 1068 <__save_processor_state+0x128>
    111c:	6d5f6d65 	ldclvs	13, cr6, [pc, #-404]	; f90 <__save_processor_state+0x50>
    1120:	705f756d 	subsvc	r7, pc, sp, ror #10
    1124:	00632e63 	rsbeq	r2, r3, r3, ror #28
    1128:	74736572 	ldrbtvc	r6, [r3], #-1394	; 0x572
    112c:	5f65726f 	svcpl	0x0065726f
    1130:	5f756d6d 	svcpl	0x00756d6d
    1134:	74617473 	strbtvc	r7, [r1], #-1139	; 0x473
    1138:	61730065 	cmnvs	r3, r5, rrx
    113c:	6d5f6576 	cfldr64vs	mvdx6, [pc, #-472]	; f6c <__save_processor_state+0x2c>
    1140:	735f756d 	cmpvc	pc, #457179136	; 0x1b400000
    1144:	65746174 	ldrbvs	r6, [r4, #-372]!	; 0x174
    1148:	73657200 	cmnvc	r5, #0
    114c:	65726f74 	ldrbvs	r6, [r2, #-3956]!	; 0xf74
    1150:	6365735f 	cmnvs	r5, #2080374785	; 0x7c000001
    1154:	5f657275 	svcpl	0x00657275
    1158:	5f756d6d 	svcpl	0x00756d6d
    115c:	74617473 	strbtvc	r7, [r1], #-1139	; 0x473
    1160:	6f700065 	svcvs	0x00700065
    1164:	64697074 	strbtvs	r7, [r9], #-116	; 0x74
    1168:	665f6900 	ldrbvs	r6, [pc], -r0, lsl #18
    116c:	73007261 	movwvc	r7, #609	; 0x261
    1170:	67666363 	strbvs	r6, [r6, -r3, ror #6]!
    1174:	65690072 	strbvs	r0, [r9, #-114]!	; 0x72
    1178:	64007263 	strvs	r7, [r0], #-611	; 0x263
    117c:	7273665f 	rsbsvc	r6, r3, #99614720	; 0x5f00000
    1180:	76617300 	strbtvc	r7, [r1], -r0, lsl #6
    1184:	735f6465 	cmpvc	pc, #1694498816	; 0x65000000
    1188:	5f727370 	svcpl	0x00727370
    118c:	00746261 	rsbseq	r6, r4, r1, ror #4
    1190:	74777275 	ldrbtvc	r7, [r7], #-629	; 0x275
    1194:	00646970 	rsbeq	r6, r4, r0, ror r9
    1198:	65766173 	ldrbvs	r6, [r6, #-371]!	; 0x173
    119c:	70735f64 	rsbsvc	r5, r3, r4, ror #30
    11a0:	6d5f7273 	lfmvs	f7, 2, [pc, #-460]	; fdc <__save_processor_state+0x9c>
    11a4:	73006e6f 	movwvc	r6, #3695	; 0xe6f
    11a8:	67626463 	strbvs	r6, [r2, -r3, ror #8]!
    11ac:	6c626e65 	stclvs	14, cr6, [r2], #-404	; 0xfffffe6c
    11b0:	61730072 	cmnvs	r3, r2, ror r0
    11b4:	5f646576 	svcpl	0x00646576
    11b8:	746e6f63 	strbtvc	r6, [lr], #-3939	; 0xf63
    11bc:	5f747865 	svcpl	0x00747865
    11c0:	5f333172 	svcpl	0x00333172
    11c4:	00716966 	rsbseq	r6, r1, r6, ror #18
    11c8:	65766173 	ldrbvs	r6, [r6, #-371]!	; 0x173
    11cc:	6f635f64 	svcvs	0x00635f64
    11d0:	7865746e 	stmdavc	r5!, {r1, r2, r3, r5, r6, sl, ip, sp, lr}^
    11d4:	31725f74 	cmncc	r2, r4, ror pc
    11d8:	72695f33 	rsbvc	r5, r9, #204	; 0xcc
    11dc:	65720071 	ldrbvs	r0, [r2, #-113]!	; 0x71
    11e0:	726f7473 	rsbvc	r7, pc, #1929379840	; 0x73000000
    11e4:	72705f65 	rsbsvc	r5, r0, #404	; 0x194
    11e8:	7365636f 	cmnvc	r5, #-1140850687	; 0xbc000001
    11ec:	5f726f73 	svcpl	0x00726f73
    11f0:	72627474 	rsbvc	r7, r2, #1946157056	; 0x74000000
    11f4:	61730030 	cmnvs	r3, r0, lsr r0
    11f8:	5f646576 	svcpl	0x00646576
    11fc:	72737073 	rsbsvc	r7, r3, #115	; 0x73
    1200:	6376735f 	cmnvs	r6, #2080374785	; 0x7c000001
    1204:	73696400 	cmnvc	r9, #0
    1208:	656c6261 	strbvs	r6, [ip, #-609]!	; 0x261
    120c:	6361635f 	cmnvs	r1, #2080374785	; 0x7c000001
    1210:	695f6568 	ldmdbvs	pc, {r3, r5, r6, r8, sl, sp, lr}^	; <UNPREDICTABLE>
    1214:	6c61766e 	stclvs	6, cr7, [r1], #-440	; 0xfffffe48
    1218:	74616469 	strbtvc	r6, [r1], #-1129	; 0x469
    121c:	5f5f0065 	svcpl	0x005f0065
    1220:	74736572 	ldrbtvc	r6, [r3], #-1394	; 0x572
    1224:	5f65726f 	svcpl	0x0065726f
    1228:	636f7270 	cmnvs	pc, #7
    122c:	6f737365 	svcvs	0x00737365
    1230:	74735f72 	ldrbtvc	r5, [r3], #-3954	; 0xf72
    1234:	00657461 	rsbeq	r7, r5, r1, ror #8
    1238:	72736569 	rsbsvc	r6, r3, #440401920	; 0x1a400000
    123c:	76617300 	strbtvc	r7, [r1], -r0, lsl #6
    1240:	735f6465 	cmpvc	pc, #1694498816	; 0x65000000
    1244:	5f727370 	svcpl	0x00727370
    1248:	00716966 	rsbseq	r6, r1, r6, ror #18
    124c:	72736370 	rsbsvc	r6, r3, #-1073741823	; 0xc0000001
    1250:	78746300 	ldmdavc	r4!, {r8, r9, sp, lr}^
    1254:	61730074 	cmnvs	r3, r4, ror r0
    1258:	5f646576 	svcpl	0x00646576
    125c:	72737073 	rsbsvc	r7, r3, #115	; 0x73
    1260:	7172695f 	cmnvc	r2, pc, asr r9
    1264:	615f6400 	cmpvs	pc, r0, lsl #8
    1268:	00727366 	rsbseq	r7, r2, r6, ror #6
    126c:	65766173 	ldrbvs	r6, [r6, #-371]!	; 0x173
    1270:	6f635f64 	svcvs	0x00635f64
    1274:	7865746e 	stmdavc	r5!, {r1, r2, r3, r5, r6, sl, ip, sp, lr}^
    1278:	65730074 	ldrbvs	r0, [r3, #-116]!	; 0x74
    127c:	6f635f74 	svcvs	0x00635f74
    1280:	5f6f7270 	svcpl	0x006f7270
    1284:	61666564 	cmnvs	r6, r4, ror #10
    1288:	00746c75 	rsbseq	r6, r4, r5, ror ip
    128c:	736e6f6e 	cmnvc	lr, #440	; 0x1b8
    1290:	63636163 	cmnvs	r3, #-1073741800	; 0xc0000018
    1294:	726c7274 	rsbvc	r7, ip, #1073741831	; 0x40000007
    1298:	63656300 	cmnvs	r5, #0
    129c:	65730072 	ldrbvs	r0, [r3, #-114]!	; 0x72
    12a0:	74745f74 	ldrbtvc	r5, [r4], #-3956	; 0xf74
    12a4:	00307262 	eorseq	r7, r0, r2, ror #4
    12a8:	746f7275 	strbtvc	r7, [pc], #-629	; 12b0 <__save_processor_state+0x370>
    12ac:	00646970 	rsbeq	r6, r4, r0, ror r9
    12b0:	68637261 	stmdavs	r3!, {r0, r5, r6, r9, ip, sp, lr}^
    12b4:	6d72612f 	ldfvse	f6, [r2, #-188]!	; 0xffffff44
    12b8:	63616d2f 	cmnvs	r1, #3008	; 0xbc0
    12bc:	75732d68 	ldrbvc	r2, [r3, #-3432]!	; 0xd68
    12c0:	2f69786e 	svccs	0x0069786e
    12c4:	732f6d70 	teqvc	pc, #7168	; 0x1c00
    12c8:	646e6174 	strbtvs	r6, [lr], #-372	; 0x174
    12cc:	2e2f7962 	cdpcs	9, 2, cr7, cr15, cr2, {3}
    12d0:	656d2f2e 	strbvs	r2, [sp, #-3886]!	; 0xf2e
    12d4:	70635f6d 	rsbvc	r5, r3, sp, ror #30
    12d8:	00632e75 	rsbeq	r2, r3, r5, ror lr
    12dc:	61735f5f 	cmnvs	r3, pc, asr pc
    12e0:	705f6576 	subsvc	r6, pc, r6, ror r5	; <UNPREDICTABLE>
    12e4:	65636f72 	strbvs	r6, [r3, #-3954]!	; 0xf72
    12e8:	726f7373 	rsbvc	r7, pc, #-872415231	; 0xcc000001
    12ec:	6174735f 	cmnvs	r4, pc, asr r3
    12f0:	73006574 	movwvc	r6, #1396	; 0x574
    12f4:	64657661 	strbtvs	r7, [r5], #-1633	; 0x661
    12f8:	7370735f 	cmnvc	r0, #2080374785	; 0x7c000001
    12fc:	6e755f72 	mrcvs	15, 3, r5, cr5, cr2, {3}
    1300:	63660064 	cmnvs	r6, #100	; 0x64
    1304:	73006573 	movwvc	r6, #1395	; 0x573
    1308:	64657661 	strbtvs	r7, [r5], #-1633	; 0x661
    130c:	6e6f635f 	mcrvs	3, 3, r6, cr15, cr15, {2}
    1310:	74786574 	ldrbtvc	r6, [r8], #-1396	; 0x574
    1314:	3331725f 	teqcc	r1, #-268435451	; 0xf0000005
    1318:	646e755f 	strbtvs	r7, [lr], #-1375	; 0x55f
    131c:	76617300 	strbtvc	r7, [r1], -r0, lsl #6
    1320:	635f6465 	cmpvs	pc, #1694498816	; 0x65000000
    1324:	65746e6f 	ldrbvs	r6, [r4, #-3695]!	; 0xe6f
    1328:	725f7478 	subsvc	r7, pc, #2013265920	; 0x78000000
    132c:	735f3231 	cmpvc	pc, #268435459	; 0x10000003
    1330:	73006376 	movwvc	r6, #886	; 0x376
    1334:	64657661 	strbtvs	r7, [r5], #-1633	; 0x661
    1338:	7370635f 	cmnvc	r0, #2080374785	; 0x7c000001
    133c:	76735f72 	uhsub16vc	r5, r3, r2
    1340:	666f0063 	strbtvs	r0, [pc], -r3, rrx
    1344:	70007273 	andvc	r7, r0, r3, ror r2
    1348:	6e6f636d 	cdpvs	3, 6, cr6, cr15, cr13, {3}
    134c:	6c6f7274 	sfmvs	f7, 2, [pc], #-464	; 1184 <__save_processor_state+0x244>
    1350:	65630072 	strbvs	r0, [r3, #-114]!	; 0x72
    1354:	64007273 	strvs	r7, [r0], #-627	; 0x273
    1358:	75616665 	strbvc	r6, [r1, #-1637]!	; 0x665
    135c:	635f746c 	cmpvs	pc, #1811939328	; 0x6c000000
    1360:	6f72706f 	svcvs	0x0072706f
    1364:	6c61765f 	stclvs	6, cr7, [r1], #-380	; 0xfffffe84
    1368:	69006575 	stmdbvs	r0, {r0, r2, r4, r5, r6, r8, sl, sp, lr}
    136c:	7273665f 	rsbsvc	r6, r3, #99614720	; 0x5f00000
    1370:	665f6400 	ldrbvs	r6, [pc], -r0, lsl #8
    1374:	6d007261 	sfmvs	f7, 4, [r0, #-388]	; 0xfffffe7c
    1378:	72616276 	rsbvc	r6, r1, #1610612743	; 0x60000007
    137c:	636d7000 	cmnvs	sp, #0
    1380:	746e756f 	strbtvc	r7, [lr], #-1391	; 0x56f
    1384:	5f690072 	svcpl	0x00690072
    1388:	72736661 	rsbsvc	r6, r3, #101711872	; 0x6100000
    138c:	76617300 	strbtvc	r7, [r1], -r0, lsl #6
    1390:	635f6465 	cmpvs	pc, #1694498816	; 0x65000000
    1394:	65746e6f 	ldrbvs	r6, [r4, #-3695]!	; 0xe6f
    1398:	725f7478 	subsvc	r7, pc, #2013265920	; 0x78000000
    139c:	615f3331 	cmpvs	pc, r1, lsr r3	; <UNPREDICTABLE>
    13a0:	73007462 	movwvc	r7, #1122	; 0x462
    13a4:	64657661 	strbtvs	r7, [r5], #-1633	; 0x661
    13a8:	706d655f 	rsbvc	r6, sp, pc, asr r5
    13ac:	635f7974 	cmpvs	pc, #1900544	; 0x1d0000
    13b0:	65746e6f 	ldrbvs	r6, [r4, #-3695]!	; 0xe6f
    13b4:	735f7478 	cmpvc	pc, #2013265920	; 0x78000000
    13b8:	73006376 	movwvc	r6, #886	; 0x376
    13bc:	64657661 	strbtvs	r7, [r5], #-1633	; 0x661
    13c0:	6e6f635f 	mcrvs	3, 3, r6, cr15, cr15, {2}
    13c4:	74786574 	ldrbtvc	r6, [r8], #-1396	; 0x574
    13c8:	3331725f 	teqcc	r1, #-268435451	; 0xf0000005
    13cc:	7379735f 	cmnvc	r9, #2080374785	; 0x7c000001
    13d0:	76617300 	strbtvc	r7, [r1], -r0, lsl #6
    13d4:	635f6465 	cmpvs	pc, #1694498816	; 0x65000000
    13d8:	65746e6f 	ldrbvs	r6, [r4, #-3695]!	; 0xe6f
    13dc:	725f7478 	subsvc	r7, pc, #2013265920	; 0x78000000
    13e0:	6d5f3331 	ldclvs	3, cr3, [pc, #-196]	; 1324 <__save_processor_state+0x3e4>
    13e4:	73006e6f 	movwvc	r6, #3695	; 0xe6f
    13e8:	735f7465 	cmpvc	pc, #1694498816	; 0x65000000
    13ec:	61697265 	cmnvs	r9, r5, ror #4
    13f0:	6c635f6c 	stclvs	15, cr5, [r3], #-432	; 0xfffffe50
    13f4:	6175006b 	cmnvs	r5, fp, rrx
    13f8:	675f7472 			; <UNDEFINED> instruction: 0x675f7472
    13fc:	5f6f6970 	svcpl	0x006f6970
    1400:	666e6f63 	strbtvs	r6, [lr], -r3, ror #30
    1404:	765f6769 	ldrbvc	r6, [pc], -r9, ror #14
    1408:	73006c61 	movwvc	r6, #3169	; 0xc61
    140c:	735f7465 	cmpvc	pc, #1694498816	; 0x65000000
    1410:	61697265 	cmnvs	r9, r5, ror #4
    1414:	70675f6c 	rsbvc	r5, r7, ip, ror #30
    1418:	73006f69 	movwvc	r6, #3945	; 0xf69
    141c:	61697265 	cmnvs	r9, r5, ror #4
    1420:	65675f6c 	strbvs	r5, [r7, #-3948]!	; 0xf6c
    1424:	73007374 	movwvc	r7, #884	; 0x374
    1428:	61697265 	cmnvs	r9, r5, ror #4
    142c:	6e695f6c 	cdpvs	15, 6, cr5, cr9, cr12, {3}
    1430:	62007469 	andvs	r7, r0, #1761607680	; 0x69000000
    1434:	756b6361 	strbvc	r6, [fp, #-865]!	; 0x361
    1438:	70675f70 	rsbvc	r5, r7, r0, ror pc
    143c:	755f6f69 	ldrbvc	r6, [pc, #-3945]	; 4db <save_mem_status+0x53>
    1440:	00747261 	rsbseq	r7, r4, r1, ror #4
    1444:	69726573 	ldmdbvs	r2!, {r0, r1, r4, r5, r6, r8, sl, sp, lr}^
    1448:	675f6c61 	ldrbvs	r6, [pc, -r1, ror #24]
    144c:	635f7465 	cmpvs	pc, #1694498816	; 0x65000000
    1450:	00726168 	rsbseq	r6, r2, r8, ror #2
    1454:	69726573 	ldmdbvs	r2!, {r0, r1, r4, r5, r6, r8, sl, sp, lr}^
    1458:	695f6c61 	ldmdbvs	pc, {r0, r5, r6, sl, fp, sp, lr}^	; <UNPREDICTABLE>
    145c:	5f74696e 	svcpl	0x0074696e
    1460:	6d6d6f6e 	stclvs	15, cr6, [sp, #-440]!	; 0xfffffe48
    1464:	72730075 	rsbsvc	r0, r3, #117	; 0x75
    1468:	72665f63 	rsbvc	r5, r6, #396	; 0x18c
    146c:	73007165 	movwvc	r7, #357	; 0x165
    1470:	61697265 	cmnvs	r9, r5, ror #4
    1474:	75705f6c 	ldrbvc	r5, [r0, #-3948]!	; 0xf6c
    1478:	6e5f7374 	mrcvs	3, 2, r7, cr15, cr4, {3}
    147c:	756d6d6f 	strbvc	r6, [sp, #-3439]!	; 0xd6f
    1480:	72657300 	rsbvc	r7, r5, #0
    1484:	5f6c6169 	svcpl	0x006c6169
    1488:	5f747570 	svcpl	0x00747570
    148c:	72616863 	rsbvc	r6, r1, #6488064	; 0x630000
    1490:	6d6f6e5f 	stclvs	14, cr6, [pc, #-380]!	; 131c <__save_processor_state+0x3dc>
    1494:	7500756d 	strvc	r7, [r0, #-1389]	; 0x56d
    1498:	5f747261 	svcpl	0x00747261
    149c:	6f697067 	svcvs	0x00697067
    14a0:	73616d5f 	cmnvc	r1, #6080	; 0x17c0
    14a4:	6573006b 	ldrbvs	r0, [r3, #-107]!	; 0x6b
    14a8:	6c616972 	stclvs	9, cr6, [r1], #-456	; 0xfffffe38
    14ac:	7475705f 	ldrbtvc	r7, [r5], #-95	; 0x5f
    14b0:	6168635f 	cmnvs	r8, pc, asr r3
    14b4:	32700072 	rsbscc	r0, r0, #114	; 0x72
    14b8:	006b6c63 	rsbeq	r6, fp, r3, ror #24
    14bc:	6b636162 	blvs	18d9a4c <__bss_end+0x18d6498>
    14c0:	705f7075 	subsvc	r7, pc, r5, ror r0	; <UNPREDICTABLE>
    14c4:	5f74726f 	svcpl	0x0074726f
    14c8:	73006469 	movwvc	r6, #1129	; 0x469
    14cc:	61697265 	cmnvs	r9, r5, ror #4
    14d0:	6e695f6c 	cdpvs	15, 6, cr5, cr9, cr12, {3}
    14d4:	64657469 	strbtvs	r7, [r5], #-1129	; 0x469
    14d8:	616c665f 	cmnvs	ip, pc, asr r6
    14dc:	63630067 	cmnvs	r3, #103	; 0x67
    14e0:	65725f75 	ldrbvs	r5, [r2, #-3957]!	; 0xf75
    14e4:	65730067 	ldrbvs	r0, [r3, #-103]!	; 0x67
    14e8:	6c616972 	stclvs	9, cr6, [r1], #-456	; 0xfffffe38
    14ec:	696e695f 	stmdbvs	lr!, {r0, r1, r2, r3, r4, r6, r8, fp, sp, lr}^
    14f0:	616d5f74 	smcvs	54772	; 0xd5f4
    14f4:	6567616e 	strbvs	r6, [r7, #-366]!	; 0x16e
    14f8:	6d6d0072 	stclvs	0, cr0, [sp, #-456]!	; 0xfffffe38
    14fc:	6c665f75 	stclvs	15, cr5, [r6], #-468	; 0xfffffe2c
    1500:	73006761 	movwvc	r6, #1889	; 0x761
    1504:	61697265 	cmnvs	r9, r5, ror #4
    1508:	78655f6c 	stmdavc	r5!, {r2, r3, r5, r6, r8, r9, sl, fp, ip, lr}^
    150c:	6d5f7469 	cfldrdvs	mvd7, [pc, #-420]	; 1370 <__restore_processor_state+0x2c>
    1510:	67616e61 	strbvs	r6, [r1, -r1, ror #28]!
    1514:	73007265 	movwvc	r7, #613	; 0x265
    1518:	61697265 	cmnvs	r9, r5, ror #4
    151c:	65675f6c 	strbvs	r5, [r7, #-3948]!	; 0xf6c
    1520:	6e5f7374 	mrcvs	3, 2, r7, cr15, cr4, {3}
    1524:	756d6d6f 	strbvc	r6, [sp, #-3439]!	; 0xd6f
    1528:	63616200 	cmnvs	r1, #0
    152c:	5f70756b 	svcpl	0x0070756b
    1530:	5f756363 	svcpl	0x00756363
    1534:	74726175 	ldrbtvc	r6, [r2], #-373	; 0x175
    1538:	7365725f 	cmnvc	r5, #-268435451	; 0xf0000005
    153c:	73007465 	movwvc	r7, #1125	; 0x465
    1540:	61697265 	cmnvs	r9, r5, ror #4
    1544:	75705f6c 	ldrbvc	r5, [r0, #-3948]!	; 0xf6c
    1548:	61007374 	tstvs	r0, r4, ror r3
    154c:	2f686372 	svccs	0x00686372
    1550:	2f6d7261 	svccs	0x006d7261
    1554:	6863616d 	stmdavs	r3!, {r0, r2, r3, r5, r6, r8, sp, lr}^
    1558:	6e75732d 	cdpvs	3, 7, cr7, cr5, cr13, {1}
    155c:	702f6978 	eorvc	r6, pc, r8, ror r9	; <UNPREDICTABLE>
    1560:	74732f6d 	ldrbtvc	r2, [r3], #-3949	; 0xf6d
    1564:	62646e61 	rsbvs	r6, r4, #1552	; 0x610
    1568:	2e2e2f79 	mcrcs	15, 1, r2, cr14, cr9, {3}
    156c:	6d656d2f 	stclvs	13, cr6, [r5, #-188]!	; 0xffffff44
    1570:	7265735f 	rsbvc	r7, r5, #2080374785	; 0x7c000001
    1574:	2e6c6169 	powcsez	f6, f4, #1.0
    1578:	70610063 	rsbvc	r0, r1, r3, rrx
    157c:	725f3262 	subsvc	r3, pc, #536870918	; 0x20000006
    1580:	73006765 	movwvc	r6, #1893	; 0x765
    1584:	61697265 	cmnvs	r9, r5, ror #4
    1588:	65675f6c 	strbvs	r5, [r7, #-3948]!	; 0xf6c
    158c:	68635f74 	stmdavs	r3!, {r2, r4, r5, r6, r8, r9, sl, fp, ip, lr}^
    1590:	6e5f7261 	cdpvs	2, 5, cr7, cr15, cr1, {3}
    1594:	756d6d6f 	strbvc	r6, [sp, #-3439]!	; 0xd6f
    1598:	726f7000 	rsbvc	r7, pc, #0
    159c:	65730074 	ldrbvs	r0, [r3, #-116]!	; 0x74
    15a0:	6c616972 	stclvs	9, cr6, [r1], #-456	; 0xfffffe38
    15a4:	6978655f 	ldmdbvs	r8!, {r0, r1, r2, r3, r4, r6, r8, sl, sp, lr}^
    15a8:	61620074 	smcvs	8196	; 0x2004
    15ac:	70756b63 	rsbsvc	r6, r5, r3, ror #22
    15b0:	7563635f 	strbvc	r6, [r3, #-863]!	; 0x35f
    15b4:	7261755f 	rsbvc	r7, r1, #398458880	; 0x17c00000
    15b8:	74750074 	ldrbtvc	r0, [r5], #-116	; 0x74
    15bc:	7300616f 	movwvc	r6, #367	; 0x16f
    15c0:	5f657a69 	svcpl	0x00657a69
    15c4:	73700074 	cmnvc	r0, #116	; 0x74
    15c8:	66006372 			; <UNDEFINED> instruction: 0x66006372
    15cc:	616d726f 	cmnvs	sp, pc, ror #4
    15d0:	69660074 	stmdbvs	r6!, {r2, r4, r5, r6}^
    15d4:	635f6c6c 	cmpvs	pc, #27648	; 0x6c00
    15d8:	5f5f0068 	svcpl	0x005f0068
    15dc:	6c5f6176 	ldfvse	f6, [pc], {118}	; 0x76
    15e0:	00747369 	rsbseq	r7, r4, r9, ror #6
    15e4:	75626564 	strbvc	r6, [r2, #-1380]!	; 0x564
    15e8:	72656767 	rsbvc	r6, r5, #27000832	; 0x19c0000
    15ec:	6675625f 			; <UNDEFINED> instruction: 0x6675625f
    15f0:	00726566 	rsbseq	r6, r2, r6, ror #10
    15f4:	6167656e 	cmnvs	r7, lr, ror #10
    15f8:	65766974 	ldrbvs	r6, [r6, #-2420]!	; 0x974
    15fc:	69727000 	ldmdbvs	r2!, {ip, sp, lr}^
    1600:	006b746e 	rsbeq	r7, fp, lr, ror #8
    1604:	616f7469 	cmnvs	pc, r9, ror #8
    1608:	63726100 	cmnvs	r2, #0
    160c:	72612f68 	rsbvc	r2, r1, #416	; 0x1a0
    1610:	616d2f6d 	cmnvs	sp, sp, ror #30
    1614:	732d6863 	teqvc	sp, #6488064	; 0x630000
    1618:	69786e75 	ldmdbvs	r8!, {r0, r2, r4, r5, r6, r9, sl, fp, sp, lr}^
    161c:	2f6d702f 	svccs	0x006d702f
    1620:	6e617473 	mcrvs	4, 3, r7, cr1, cr3, {3}
    1624:	2f796264 	svccs	0x00796264
    1628:	6d2f2e2e 	stcvs	14, cr2, [pc, #-184]!	; 1578 <__restore_processor_state+0x234>
    162c:	705f6d65 	subsvc	r6, pc, r5, ror #26
    1630:	746e6972 	strbtvc	r6, [lr], #-2418	; 0x972
    1634:	00632e6b 	rsbeq	r2, r3, fp, ror #28
    1638:	63617473 	cmnvs	r1, #1929379840	; 0x73000000
    163c:	7261006b 	rsbvc	r0, r1, #107	; 0x6b
    1640:	72007367 	andvc	r7, r0, #-1677721599	; 0x9c000001
    1644:	78696461 	stmdavc	r9!, {r0, r5, r6, sl, sp, lr}^
    1648:	615f5f00 	cmpvs	pc, r0, lsl #30
    164c:	74730070 	ldrbtvc	r0, [r3], #-112	; 0x70
    1650:	6e656c72 	mcrvs	12, 3, r6, cr5, cr2, {3}
    1654:	67696400 	strbvs	r6, [r9, -r0, lsl #8]!
    1658:	735f7469 	cmpvc	pc, #1761607680	; 0x69000000
    165c:	6e697274 	mcrvs	2, 3, r7, cr9, cr4, {3}
    1660:	74730067 	ldrbtvc	r0, [r3], #-103	; 0x67
    1664:	79706372 	ldmdbvc	r0!, {r1, r4, r5, r6, r8, r9, sp, lr}^
    1668:	65647000 	strbvs	r7, [r4, #-0]!
    166c:	70007473 	andvc	r7, r0, r3, ror r4
    1670:	746e6972 	strbtvc	r6, [lr], #-2418	; 0x972
    1674:	696c615f 	stmdbvs	ip!, {r0, r1, r2, r3, r4, r6, r8, sp, lr}^
    1678:	70006e67 	andvc	r6, r0, r7, ror #28
    167c:	746e6972 	strbtvc	r6, [lr], #-2418	; 0x972
    1680:	6f6e5f6b 	svcvs	0x006e5f6b
    1684:	00756d6d 	rsbseq	r6, r5, sp, ror #26
    1688:	6e675f5f 	mcrvs	15, 3, r5, cr7, cr15, {2}
    168c:	765f6375 			; <UNDEFINED> instruction: 0x765f6375
    1690:	696c5f61 	stmdbvs	ip!, {r0, r5, r6, r8, r9, sl, fp, ip, lr}^
    1694:	73007473 	movwvc	r7, #1139	; 0x473
    1698:	636e7274 	cmnvs	lr, #1073741831	; 0x40000007
    169c:	5f007461 	svcpl	0x00007461
    16a0:	6d656d5f 	stclvs	13, cr6, [r5, #-380]!	; 0xfffffe84
    16a4:	7669645f 			; <UNDEFINED> instruction: 0x7669645f
    16a8:	6d740030 	ldclvs	0, cr0, [r4, #-192]!	; 0xffffff40
    16ac:	6f755170 	svcvs	0x00755170
    16b0:	69640074 	stmdbvs	r4!, {r2, r4, r5, r6}^
    16b4:	69736976 	ldmdbvs	r3!, {r1, r2, r4, r5, r6, r8, fp, sp, lr}^
    16b8:	6400726f 	strvs	r7, [r0], #-623	; 0x26f
    16bc:	64697669 	strbtvs	r7, [r9], #-1641	; 0x669
    16c0:	00646e65 	rsbeq	r6, r4, r5, ror #28
    16c4:	5f776172 	svcpl	0x00776172
    16c8:	5f62696c 	svcpl	0x0062696c
    16cc:	76696475 			; <UNDEFINED> instruction: 0x76696475
    16d0:	706d7400 	rsbvc	r7, sp, r0, lsl #8
    16d4:	00766944 	rsbseq	r6, r6, r4, asr #18
    16d8:	68637261 	stmdavs	r3!, {r0, r5, r6, r9, ip, sp, lr}^
    16dc:	6d72612f 	ldfvse	f6, [r2, #-188]!	; 0xffffff44
    16e0:	63616d2f 	cmnvs	r1, #3008	; 0xbc0
    16e4:	75732d68 	ldrbvc	r2, [r3, #-3432]!	; 0xd68
    16e8:	2f69786e 	svccs	0x0069786e
    16ec:	732f6d70 	teqvc	pc, #7168	; 0x1c00
    16f0:	646e6174 	strbtvs	r6, [lr], #-372	; 0x174
    16f4:	2e2f7962 	cdpcs	9, 2, cr7, cr15, cr2, {3}
    16f8:	656d2f2e 	strbvs	r2, [sp, #-3886]!	; 0xf2e
    16fc:	69645f6d 	stmdbvs	r4!, {r0, r2, r3, r5, r6, r8, r9, sl, fp, ip, lr}^
    1700:	62696c76 	rsbvs	r6, r9, #30208	; 0x7600
    1704:	00632e63 	rsbeq	r2, r3, r3, ror #28
    1708:	66696873 			; <UNDEFINED> instruction: 0x66696873
    170c:	65720074 	ldrbvs	r0, [r2, #-116]!	; 0x74
    1710:	746c7573 	strbtvc	r7, [ip], #-1395	; 0x573
    1714:	6d656d00 	stclvs	13, cr6, [r5, #-0]
    1718:	746e695f 	strbtvc	r6, [lr], #-2399	; 0x95f
    171c:	6978655f 	ldmdbvs	r8!, {r0, r1, r2, r3, r4, r6, r8, sl, sp, lr}^
    1720:	72610074 	rsbvc	r0, r1, #116	; 0x74
    1724:	612f6863 	teqvs	pc, r3, ror #16
    1728:	6d2f6d72 	stcvs	13, cr6, [pc, #-456]!	; 1568 <__restore_processor_state+0x224>
    172c:	2d686361 	stclcs	3, cr6, [r8, #-388]!	; 0xfffffe7c
    1730:	786e7573 	stmdavc	lr!, {r0, r1, r4, r5, r6, r8, sl, ip, sp, lr}^
    1734:	6d702f69 	ldclvs	15, cr2, [r0, #-420]!	; 0xfffffe5c
    1738:	6174732f 	cmnvs	r4, pc, lsr #6
    173c:	7962646e 	stmdbvc	r2!, {r1, r2, r3, r5, r6, sl, sp, lr}^
    1740:	2f2e2e2f 	svccs	0x002e2e2f
    1744:	5f6d656d 	svcpl	0x006d656d
    1748:	2e746e69 	cdpcs	14, 7, cr6, cr4, cr9, {3}
    174c:	4e490063 	cdpmi	0, 4, cr0, cr9, cr3, {3}
    1750:	4f535f54 	svcmi	0x00535f54
    1754:	45435255 	strbmi	r5, [r3, #-597]	; 0x255
    1758:	4253555f 	subsmi	r5, r3, #398458880	; 0x17c00000
    175c:	49434845 	stmdbmi	r3, {r0, r2, r6, fp, lr}^
    1760:	4e490030 	mcrmi	0, 2, r0, cr9, cr0, {1}
    1764:	4f535f54 	svcmi	0x00535f54
    1768:	45435255 	strbmi	r5, [r3, #-597]	; 0x255
    176c:	4253555f 	subsmi	r5, r3, #398458880	; 0x17c00000
    1770:	49434845 	stmdbmi	r3, {r0, r2, r6, fp, lr}^
    1774:	4e490031 	mcrmi	0, 2, r0, cr9, cr1, {1}
    1778:	4f535f54 	svcmi	0x00535f54
    177c:	45435255 	strbmi	r5, [r3, #-597]	; 0x255
    1780:	4253555f 	subsmi	r5, r3, #398458880	; 0x17c00000
    1784:	49434845 	stmdbmi	r3, {r0, r2, r6, fp, lr}^
    1788:	4e490032 	mcrmi	0, 2, r0, cr9, cr2, {1}
    178c:	4f535f54 	svcmi	0x00535f54
    1790:	45435255 	strbmi	r5, [r3, #-597]	; 0x255
    1794:	554f545f 	strbpl	r5, [pc, #-1119]	; 133d <__save_processor_state+0x3fd>
    1798:	4e504843 	cdpmi	8, 5, cr4, cr0, cr3, {2}
    179c:	656d004c 	strbvs	r0, [sp, #-76]!	; 0x4c
    17a0:	6e695f6d 	cdpvs	15, 6, cr5, cr9, cr13, {3}
    17a4:	6e695f74 	mcrvs	15, 3, r5, cr9, cr4, {3}
    17a8:	6d007469 	cfstrsvs	mvf7, [r0, #-420]	; 0xfffffe5c
    17ac:	655f6d65 	ldrbvs	r6, [pc, #-3429]	; a4f <inv_loop1+0x17>
    17b0:	6c62616e 	stfvse	f6, [r2], #-440	; 0xfffffe48
    17b4:	6e695f65 	cdpvs	15, 6, cr5, cr9, cr5, {3}
    17b8:	6e690074 	mcrvs	0, 3, r0, cr9, cr4, {3}
    17bc:	72726574 	rsbsvc	r6, r2, #486539264	; 0x1d000000
    17c0:	5f747075 	svcpl	0x00747075
    17c4:	72756f73 	rsbsvc	r6, r5, #460	; 0x1cc
    17c8:	655f6563 	ldrbvs	r6, [pc, #-1379]	; 126d <__save_processor_state+0x32d>
    17cc:	544e4900 	strbpl	r4, [lr], #-2304	; 0x900
    17d0:	554f535f 	strbpl	r5, [pc, #-863]	; 1479 <__restore_processor_state+0x135>
    17d4:	5f454352 	svcpl	0x00454352
    17d8:	4f495047 	svcmi	0x00495047
    17dc:	4e490041 	cdpmi	0, 4, cr0, cr9, cr1, {2}
    17e0:	4f535f54 	svcmi	0x00535f54
    17e4:	45435255 	strbmi	r5, [r3, #-597]	; 0x255
    17e8:	4950475f 	ldmdbmi	r0, {r0, r1, r2, r3, r4, r6, r8, r9, sl, lr}^
    17ec:	4900424f 	stmdbmi	r0, {r0, r1, r2, r3, r6, r9, lr}
    17f0:	535f544e 	cmppl	pc, #1308622848	; 0x4e000000
    17f4:	4352554f 	cmpmi	r2, #331350016	; 0x13c00000
    17f8:	50475f45 	subpl	r5, r7, r5, asr #30
    17fc:	00434f49 	subeq	r4, r3, r9, asr #30
    1800:	5f544e49 	svcpl	0x00544e49
    1804:	52554f53 	subspl	r4, r5, #332	; 0x14c
    1808:	475f4543 	ldrbmi	r4, [pc, -r3, asr #10]
    180c:	444f4950 	strbmi	r4, [pc], #-2384	; 1814 <set_serial_clk+0x7c>
    1810:	544e4900 	strbpl	r4, [lr], #-2304	; 0x900
    1814:	554f535f 	strbpl	r5, [pc, #-863]	; 14bd <__restore_processor_state+0x179>
    1818:	5f454352 	svcpl	0x00454352
    181c:	4f495047 	svcmi	0x00495047
    1820:	4e490045 	cdpmi	0, 4, cr0, cr9, cr5, {2}
    1824:	4f535f54 	svcmi	0x00535f54
    1828:	45435255 	strbmi	r5, [r3, #-597]	; 0x255
    182c:	4950475f 	ldmdbmi	r0, {r0, r1, r2, r3, r4, r6, r8, r9, sl, lr}^
    1830:	4900464f 	stmdbmi	r0, {r0, r1, r2, r3, r6, r9, sl, lr}
    1834:	535f544e 	cmppl	pc, #1308622848	; 0x4e000000
    1838:	4352554f 	cmpmi	r2, #331350016	; 0x13c00000
    183c:	50475f45 	subpl	r5, r7, r5, asr #30
    1840:	00474f49 	subeq	r4, r7, r9, asr #30
    1844:	5f544e49 	svcpl	0x00544e49
    1848:	52554f53 	subspl	r4, r5, #332	; 0x14c
    184c:	475f4543 	ldrbmi	r4, [pc, -r3, asr #10]
    1850:	484f4950 	stmdami	pc, {r4, r6, r8, fp, lr}^	; <UNPREDICTABLE>
    1854:	544e4900 	strbpl	r4, [lr], #-2304	; 0x900
    1858:	554f535f 	strbpl	r5, [pc, #-863]	; 1501 <__restore_processor_state+0x1bd>
    185c:	5f454352 	svcpl	0x00454352
    1860:	4f495047 	svcmi	0x00495047
    1864:	4e490049 	cdpmi	0, 4, cr0, cr9, cr9, {2}
    1868:	4f535f54 	svcmi	0x00535f54
    186c:	45435255 	strbmi	r5, [r3, #-597]	; 0x255
    1870:	4950475f 	ldmdbmi	r0, {r0, r1, r2, r3, r4, r6, r8, r9, sl, lr}^
    1874:	49004a4f 	stmdbmi	r0, {r0, r1, r2, r3, r6, r9, fp, lr}
    1878:	535f544e 	cmppl	pc, #1308622848	; 0x4e000000
    187c:	4352554f 	cmpmi	r2, #331350016	; 0x13c00000
    1880:	53555f45 	cmppl	r5, #276	; 0x114
    1884:	47544f42 	ldrbmi	r4, [r4, -r2, asr #30]
    1888:	63694700 	cmnvs	r9, #0
    188c:	73694443 	cmnvc	r9, #1124073472	; 0x43000000
    1890:	4e490063 	cdpmi	0, 4, cr0, cr9, cr3, {3}
    1894:	4f535f54 	svcmi	0x00535f54
    1898:	45435255 	strbmi	r5, [r3, #-597]	; 0x255
    189c:	41524c5f 	cmpmi	r2, pc, asr ip
    18a0:	49004344 	stmdbmi	r0, {r2, r6, r8, r9, lr}
    18a4:	535f544e 	cmppl	pc, #1308622848	; 0x4e000000
    18a8:	4352554f 	cmpmi	r2, #331350016	; 0x13c00000
    18ac:	53555f45 	cmppl	r5, #276	; 0x114
    18b0:	43484f42 	movtmi	r4, #36674	; 0x8f42
    18b4:	49003049 	stmdbmi	r0, {r0, r3, r6, ip, sp}
    18b8:	535f544e 	cmppl	pc, #1308622848	; 0x4e000000
    18bc:	4352554f 	cmpmi	r2, #331350016	; 0x13c00000
    18c0:	53555f45 	cmppl	r5, #276	; 0x114
    18c4:	43484f42 	movtmi	r4, #36674	; 0x8f42
    18c8:	49003149 	stmdbmi	r0, {r0, r3, r6, r8, ip, sp}
    18cc:	535f544e 	cmppl	pc, #1308622848	; 0x4e000000
    18d0:	4352554f 	cmpmi	r2, #331350016	; 0x13c00000
    18d4:	53555f45 	cmppl	r5, #276	; 0x114
    18d8:	43484f42 	movtmi	r4, #36674	; 0x8f42
    18dc:	49003249 	stmdbmi	r0, {r0, r3, r6, r9, ip, sp}
    18e0:	535f544e 	cmppl	pc, #1308622848	; 0x4e000000
    18e4:	4352554f 	cmpmi	r2, #331350016	; 0x13c00000
    18e8:	58455f45 	stmdapl	r5, {r0, r2, r6, r8, r9, sl, fp, ip, lr}^
    18ec:	494d4e54 	stmdbmi	sp, {r2, r4, r6, r9, sl, fp, lr}^
    18f0:	616e6500 	cmnvs	lr, r0, lsl #10
    18f4:	5f656c62 	svcpl	0x00656c62
    18f8:	00746962 	rsbseq	r6, r4, r2, ror #18
    18fc:	53706d74 	cmnpl	r0, #7424	; 0x1d00
    1900:	49006372 	stmdbmi	r0, {r1, r4, r5, r6, r8, r9, sp, lr}
    1904:	535f544e 	cmppl	pc, #1308622848	; 0x4e000000
    1908:	4352554f 	cmpmi	r2, #331350016	; 0x13c00000
    190c:	49545f45 	ldmdbmi	r4, {r0, r2, r6, r8, r9, sl, fp, ip, lr}^
    1910:	3052454d 	subscc	r4, r2, sp, asr #10
    1914:	544e4900 	strbpl	r4, [lr], #-2304	; 0x900
    1918:	554f535f 	strbpl	r5, [pc, #-863]	; 15c1 <__restore_processor_state+0x27d>
    191c:	5f454352 	svcpl	0x00454352
    1920:	454d4954 	strbmi	r4, [sp, #-2388]	; 0x954
    1924:	47003152 	smlsdmi	r0, r2, r1, r3
    1928:	44446369 	strbmi	r6, [r4], #-873	; 0x369
    192c:	00637369 	rsbeq	r7, r3, r9, ror #6
    1930:	5f6d656d 	svcpl	0x006d656d
    1934:	72657571 	rsbvc	r7, r5, #473956352	; 0x1c400000
    1938:	6e695f79 	mcrvs	15, 3, r5, cr9, cr9, {3}
    193c:	4e490074 	mcrmi	0, 2, r0, cr9, cr4, {3}
    1940:	4f535f54 	svcmi	0x00535f54
    1944:	45435255 	strbmi	r5, [r3, #-597]	; 0x255
    1948:	3052495f 	subscc	r4, r2, pc, asr r9
    194c:	544e4900 	strbpl	r4, [lr], #-2304	; 0x900
    1950:	554f535f 	strbpl	r5, [pc, #-863]	; 15f9 <__restore_processor_state+0x2b5>
    1954:	5f454352 	svcpl	0x00454352
    1958:	00315249 	eorseq	r5, r1, r9, asr #4
    195c:	5f544e49 	svcpl	0x00544e49
    1960:	52554f53 	subspl	r4, r5, #332	; 0x14c
    1964:	4d5f4543 	cfldr64mi	mvdx4, [pc, #-268]	; 1860 <serial_exit+0x1c>
    1968:	425f4753 	subsmi	r4, pc, #21757952	; 0x14c0000
    196c:	7400584f 	strvc	r5, [r0], #-2127	; 0x84f
    1970:	7247706d 	subvc	r7, r7, #109	; 0x6d
    1974:	4e490070 	mcrmi	0, 2, r0, cr9, cr0, {3}
    1978:	4f535f54 	svcmi	0x00535f54
    197c:	45435255 	strbmi	r5, [r3, #-597]	; 0x255
    1980:	414c415f 	cmpmi	ip, pc, asr r1
    1984:	6d004d52 	stcvs	13, cr4, [r0, #-328]	; 0xfffffeb8
    1988:	675f6d65 	ldrbvs	r6, [pc, -r5, ror #26]
    198c:	5f6f6970 	svcpl	0x006f6970
    1990:	74736572 	ldrbtvc	r6, [r3], #-1394	; 0x572
    1994:	0065726f 	rsbeq	r7, r5, pc, ror #4
    1998:	69706770 	ldmdbvs	r0!, {r4, r5, r6, r8, r9, sl, sp, lr}^
    199c:	74735f6f 	ldrbtvc	r5, [r3], #-3951	; 0xf6f
    19a0:	00657461 	rsbeq	r7, r5, r1, ror #8
    19a4:	666e6f63 	strbtvs	r6, [lr], -r3, ror #30
    19a8:	675f6769 	ldrbvs	r6, [pc, -r9, ror #14]
    19ac:	5f6f6970 	svcpl	0x006f6970
    19b0:	006b6c63 	rsbeq	r6, fp, r3, ror #24
    19b4:	6f697067 	svcvs	0x00697067
    19b8:	6b6c635f 	blvs	1b1a73c <__bss_end+0x1b17188>
    19bc:	696e695f 	stmdbvs	lr!, {r0, r1, r2, r3, r4, r6, r8, fp, sp, lr}^
    19c0:	00646574 	rsbeq	r6, r4, r4, ror r5
    19c4:	6f697067 	svcvs	0x00697067
    19c8:	6765725f 			; <UNDEFINED> instruction: 0x6765725f
    19cc:	6361625f 	cmnvs	r1, #-268435451	; 0xf0000005
    19d0:	7261006b 	rsbvc	r0, r1, #107	; 0x6b
    19d4:	612f6863 	teqvs	pc, r3, ror #16
    19d8:	6d2f6d72 	stcvs	13, cr6, [pc, #-456]!	; 1818 <set_serial_clk+0x80>
    19dc:	2d686361 	stclcs	3, cr6, [r8, #-388]!	; 0xfffffe7c
    19e0:	786e7573 	stmdavc	lr!, {r0, r1, r4, r5, r6, r8, sl, ip, sp, lr}^
    19e4:	6d702f69 	ldclvs	15, cr2, [r0, #-420]!	; 0xfffffe5c
    19e8:	6174732f 	cmnvs	r4, pc, lsr #6
    19ec:	7962646e 	stmdbvc	r2!, {r1, r2, r3, r5, r6, sl, sp, lr}^
    19f0:	2f2e2e2f 	svccs	0x002e2e2f
    19f4:	5f6d656d 	svcpl	0x006d656d
    19f8:	6f697067 	svcvs	0x00697067
    19fc:	6d00632e 	stcvs	3, cr6, [r0, #-184]	; 0xffffff48
    1a00:	675f6d65 	ldrbvs	r6, [pc, -r5, ror #26]
    1a04:	5f6f6970 	svcpl	0x006f6970
    1a08:	65766173 	ldrbvs	r6, [r6, #-371]!	; 0x173
    1a0c:	69706700 	ldmdbvs	r0!, {r8, r9, sl, sp, lr}^
    1a10:	70615f6f 	rsbvc	r5, r1, pc, ror #30
    1a14:	675f3062 	ldrbvs	r3, [pc, -r2, rrx]
    1a18:	6e697461 	cdpvs	4, 6, cr7, cr9, cr1, {3}
    1a1c:	65725f67 	ldrbvs	r5, [r2, #-3943]!	; 0xf67
    1a20:	44570067 	ldrbmi	r0, [r7], #-103	; 0x67
    1a24:	5f31676f 	svcpl	0x0031676f
    1a28:	5f717249 	svcpl	0x00717249
    1a2c:	00617453 	rsbeq	r7, r1, r3, asr r4
    1a30:	31737641 	cmncc	r3, r1, asr #12
    1a34:	00746e43 	rsbseq	r6, r4, r3, asr #28
    1a38:	43746e49 	cmnmi	r4, #1168	; 0x490
    1a3c:	54006c74 	strpl	r6, [r0], #-3188	; 0xc74
    1a40:	4930726d 	ldmdbmi	r0!, {r0, r2, r3, r5, r6, r9, ip, sp, lr}
    1a44:	6156746e 	cmpvs	r6, lr, ror #8
    1a48:	4457006c 	ldrbmi	r0, [r7], #-108	; 0x6c
    1a4c:	5f31676f 	svcpl	0x0031676f
    1a50:	6c727443 	cfldrdvs	mvd7, [r2], #-268	; 0xfffffef4
    1a54:	6765525f 			; <UNDEFINED> instruction: 0x6765525f
    1a58:	6d656d00 	stclvs	13, cr6, [r5, #-0]
    1a5c:	726d745f 	rsbvc	r7, sp, #1593835520	; 0x5f000000
    1a60:	7465735f 	strbtvc	r7, [r5], #-863	; 0x35f
    1a64:	726d5400 	rsbvc	r5, sp, #0
    1a68:	6c744331 	ldclvs	3, cr4, [r4], #-196	; 0xffffff3c
    1a6c:	726d5400 	rsbvc	r5, sp, #0
    1a70:	746e4330 	strbtvc	r4, [lr], #-816	; 0x330
    1a74:	006c6156 	rsbeq	r6, ip, r6, asr r1
    1a78:	35726d54 	ldrbcc	r6, [r2, #-3412]!	; 0xd54
    1a7c:	006c7443 	rsbeq	r7, ip, r3, asr #8
    1a80:	32726d54 	rsbscc	r6, r2, #5376	; 0x1500
    1a84:	56746e49 	ldrbtpl	r6, [r4], -r9, asr #28
    1a88:	5f006c61 	svcpl	0x00006c61
    1a8c:	6d656d5f 	stclvs	13, cr6, [r5, #-380]!	; 0xfffffe84
    1a90:	726d745f 	rsbvc	r7, sp, #1593835520	; 0x5f000000
    1a94:	6765725f 			; <UNDEFINED> instruction: 0x6765725f
    1a98:	5400745f 	strpl	r7, [r0], #-1119	; 0x45f
    1a9c:	4332726d 	teqmi	r2, #-805306362	; 0xd0000006
    1aa0:	6156746e 	cmpvs	r6, lr, ror #8
    1aa4:	6157006c 	cmpvs	r7, ip, rrx
    1aa8:	44686374 	strbtmi	r6, [r8], #-884	; 0x374
    1aac:	5f31676f 	svcpl	0x0031676f
    1ab0:	5f717249 	svcpl	0x00717249
    1ab4:	425f6e45 	subsmi	r6, pc, #1104	; 0x450
    1ab8:	6d006b61 	vstrvs	d6, [r0, #-388]	; 0xfffffe7c
    1abc:	745f6d65 	ldrbvc	r6, [pc], #-3429	; 1ac4 <serial_init+0x58>
    1ac0:	655f726d 	ldrbvs	r7, [pc, #-621]	; 185b <serial_exit+0x17>
    1ac4:	00746978 	rsbseq	r6, r4, r8, ror r9
    1ac8:	68637261 	stmdavs	r3!, {r0, r5, r6, r9, ip, sp, lr}^
    1acc:	6d72612f 	ldfvse	f6, [r2, #-188]!	; 0xffffff44
    1ad0:	63616d2f 	cmnvs	r1, #3008	; 0xbc0
    1ad4:	75732d68 	ldrbvc	r2, [r3, #-3432]!	; 0xd68
    1ad8:	2f69786e 	svccs	0x0069786e
    1adc:	732f6d70 	teqvc	pc, #7168	; 0x1c00
    1ae0:	646e6174 	strbtvs	r6, [lr], #-372	; 0x174
    1ae4:	2e2f7962 	cdpcs	9, 2, cr7, cr15, cr2, {3}
    1ae8:	656d2f2e 	strbvs	r2, [sp, #-3886]!	; 0xf2e
    1aec:	6d745f6d 	ldclvs	15, cr5, [r4, #-436]!	; 0xfffffe4c
    1af0:	00632e72 	rsbeq	r2, r3, r2, ror lr
    1af4:	34726d54 	ldrbtcc	r6, [r2], #-3412	; 0xd54
    1af8:	56746e49 	ldrbtpl	r6, [r4], -r9, asr #28
    1afc:	54006c61 	strpl	r6, [r0], #-3169	; 0xc61
    1b00:	4334726d 	teqmi	r4, #-805306362	; 0xd0000006
    1b04:	6156746e 	cmpvs	r6, lr, ror #8
    1b08:	6157006c 	cmpvs	r7, ip, rrx
    1b0c:	44686374 	strbtmi	r6, [r8], #-884	; 0x374
    1b10:	5f31676f 	svcpl	0x0031676f
    1b14:	666e6f43 	strbtvs	r6, [lr], -r3, asr #30
    1b18:	525f6769 	subspl	r6, pc, #27525120	; 0x1a40000
    1b1c:	425f6765 	subsmi	r6, pc, #26476544	; 0x1940000
    1b20:	72006b61 	andvc	r6, r0, #99328	; 0x18400
    1b24:	72657365 	rsbvc	r7, r5, #-1811939327	; 0x94000001
    1b28:	38646576 	stmdacc	r4!, {r1, r2, r4, r5, r6, r8, sl, sp, lr}^
    1b2c:	726d5400 	rsbvc	r5, sp, #0
    1b30:	6c744332 	ldclvs	3, cr4, [r4], #-200	; 0xffffff38
    1b34:	6f445700 	svcvs	0x00445700
    1b38:	4d5f3167 	ldfmie	f3, [pc, #-412]	; 19a4 <serial_puts_nommu+0x9c>
    1b3c:	5f65646f 	svcpl	0x0065646f
    1b40:	00676552 	rsbeq	r6, r7, r2, asr r5
    1b44:	63746157 	cmnvs	r4, #-1073741803	; 0xc0000015
    1b48:	676f4468 	strbvs	r4, [pc, -r8, ror #8]!
    1b4c:	6f4d5f31 	svcvs	0x004d5f31
    1b50:	65525f64 	ldrbvs	r5, [r2, #-3940]	; 0xf64
    1b54:	61425f67 	cmpvs	r2, r7, ror #30
    1b58:	656d006b 	strbvs	r0, [sp, #-107]!	; 0x6b
    1b5c:	6d745f6d 	ldclvs	15, cr5, [r4, #-436]!	; 0xfffffe4c
    1b60:	6e655f72 	mcrvs	15, 3, r5, cr5, cr2, {3}
    1b64:	656c6261 	strbvs	r6, [ip, #-609]!	; 0x261
    1b68:	7461775f 	strbtvc	r7, [r1], #-1887	; 0x75f
    1b6c:	6f646863 	svcvs	0x00646863
    1b70:	656d0067 	strbvs	r0, [sp, #-103]!	; 0x67
    1b74:	6d745f6d 	ldclvs	15, cr5, [r4, #-436]!	; 0xfffffe4c
    1b78:	6e695f72 	mcrvs	15, 3, r5, cr9, cr2, {3}
    1b7c:	57007469 	strpl	r7, [r0, -r9, ror #8]
    1b80:	31676f44 	cmncc	r7, r4, asr #30
    1b84:	7172495f 	cmnvc	r2, pc, asr r9
    1b88:	006e455f 	rsbeq	r4, lr, pc, asr r5
    1b8c:	6f636573 	svcvs	0x00636573
    1b90:	6d00646e 	cfstrsvs	mvf6, [r0, #-440]	; 0xfffffe48
    1b94:	745f6d65 	ldrbvc	r6, [pc], #-3429	; 1b9c <serial_puts+0xa4>
    1b98:	725f726d 	subsvc	r7, pc, #-805306362	; 0xd0000006
    1b9c:	6f747365 	svcvs	0x00747365
    1ba0:	5f006572 	svcpl	0x00006572
    1ba4:	4d454d5f 	stclmi	13, cr4, [r5, #-380]	; 0xfffffe84
    1ba8:	524d545f 	subpl	r5, sp, #1593835520	; 0x5f000000
    1bac:	4745525f 	smlsldmi	r5, r5, pc, r2	; <UNPREDICTABLE>
    1bb0:	6d656d00 	stclvs	13, cr6, [r5, #-0]
    1bb4:	726d745f 	rsbvc	r7, sp, #1593835520	; 0x5f000000
    1bb8:	7369645f 	cmnvc	r9, #1593835520	; 0x5f000000
    1bbc:	656c6261 	strbvs	r6, [ip, #-609]!	; 0x261
    1bc0:	7461775f 	strbtvc	r7, [r1], #-1887	; 0x75f
    1bc4:	6f646863 	svcvs	0x00646863
    1bc8:	6d540067 	ldclvs	0, cr0, [r4, #-412]	; 0xfffffe64
    1bcc:	6e493572 	mcrvs	5, 2, r3, cr9, cr2, {3}
    1bd0:	6c615674 	stclvs	6, cr5, [r1], #-464	; 0xfffffe30
    1bd4:	726d5400 	rsbvc	r5, sp, #0
    1bd8:	746e4931 	strbtvc	r4, [lr], #-2353	; 0x931
    1bdc:	006c6156 	rsbeq	r6, ip, r6, asr r1
    1be0:	726d7470 	rsbvc	r7, sp, #1879048192	; 0x70000000
    1be4:	6174735f 	cmnvs	r4, pc, asr r3
    1be8:	41006574 	tstmi	r0, r4, ror r5
    1bec:	69447376 	stmdbvs	r4, {r1, r2, r4, r5, r6, r8, r9, ip, sp, lr}^
    1bf0:	6d540076 	ldclvs	0, cr0, [r4, #-472]	; 0xfffffe28
    1bf4:	74433372 	strbvc	r3, [r3], #-882	; 0x372
    1bf8:	7641006c 	strbvc	r0, [r1], -ip, rrx
    1bfc:	6c744373 	ldclvs	3, cr4, [r4], #-460	; 0xfffffe34
    1c00:	746e4900 	strbtvc	r4, [lr], #-2304	; 0x900
    1c04:	00617453 	rsbeq	r7, r1, r3, asr r4
    1c08:	31726d54 	cmncc	r2, r4, asr sp
    1c0c:	56746e43 	ldrbtpl	r6, [r4], -r3, asr #28
    1c10:	54006c61 	strpl	r6, [r0], #-3169	; 0xc61
    1c14:	4933726d 	ldmdbmi	r3!, {r0, r2, r3, r5, r6, r9, ip, sp, lr}
    1c18:	6156746e 	cmpvs	r6, lr, ror #8
    1c1c:	4457006c 	ldrbmi	r0, [r7], #-108	; 0x6c
    1c20:	5f31676f 	svcpl	0x0031676f
    1c24:	5f676643 	svcpl	0x00676643
    1c28:	00676552 	rsbeq	r6, r7, r2, asr r5
    1c2c:	30737641 	rsbscc	r7, r3, r1, asr #12
    1c30:	00746e43 	rsbseq	r6, r4, r3, asr #28
    1c34:	35726d54 	ldrbcc	r6, [r2, #-3412]!	; 0xd54
    1c38:	56746e43 	ldrbtpl	r6, [r4], -r3, asr #28
    1c3c:	54006c61 	strpl	r6, [r0], #-3169	; 0xc61
    1c40:	6552726d 	ldrbvs	r7, [r2, #-621]	; 0x26d
    1c44:	6d540067 	ldclvs	0, cr0, [r4, #-412]	; 0xfffffe64
    1c48:	74433072 	strbvc	r3, [r3], #-114	; 0x72
    1c4c:	6d54006c 	ldclvs	0, cr0, [r4, #-432]	; 0xfffffe50
    1c50:	74433472 	strbvc	r3, [r3], #-1138	; 0x472
    1c54:	656d006c 	strbvs	r0, [sp, #-108]!	; 0x6c
    1c58:	6d745f6d 	ldclvs	15, cr5, [r4, #-436]!	; 0xfffffe4c
    1c5c:	61735f72 	cmnvs	r3, r2, ror pc
    1c60:	43006576 	movwmi	r6, #1398	; 0x576
    1c64:	7473756c 	ldrbtvc	r7, [r3], #-1388	; 0x56c
    1c68:	43307265 	teqmi	r0, #1342177286	; 0x50000006
    1c6c:	526c7274 	rsbpl	r7, ip, #1073741831	; 0x40000007
    1c70:	00316765 	eorseq	r6, r1, r5, ror #14
    1c74:	5f6d656d 	svcpl	0x006d656d
    1c78:	74736d74 	ldrbtvc	r6, [r3], #-3444	; 0xd74
    1c7c:	735f706d 	cmpvc	pc, #109	; 0x6d
    1c80:	00657661 	rsbeq	r7, r5, r1, ror #12
    1c84:	5f6d656d 	svcpl	0x006d656d
    1c88:	74736d74 	ldrbtvc	r6, [r3], #-3444	; 0xd74
    1c8c:	725f706d 	subsvc	r7, pc, #109	; 0x6d
    1c90:	6f747365 	svcvs	0x00747365
    1c94:	54006572 	strpl	r6, [r0], #-1394	; 0x572
    1c98:	6d74736d 	ldclvs	3, cr7, [r4, #-436]!	; 0xfffffe4c
    1c9c:	67655270 			; <UNDEFINED> instruction: 0x67655270
    1ca0:	6d5f5f00 	ldclvs	15, cr5, [pc, #-0]	; 1ca8 <utoa+0x74>
    1ca4:	745f6d65 	ldrbvc	r6, [pc], #-3429	; 1cac <utoa+0x78>
    1ca8:	6d74736d 	ldclvs	3, cr7, [r4, #-436]!	; 0xfffffe4c
    1cac:	65725f70 	ldrbvs	r5, [r2, #-3952]!	; 0xf70
    1cb0:	00745f67 	rsbseq	r5, r4, r7, ror #30
    1cb4:	68637261 	stmdavs	r3!, {r0, r5, r6, r9, ip, sp, lr}^
    1cb8:	6d72612f 	ldfvse	f6, [r2, #-188]!	; 0xffffff44
    1cbc:	63616d2f 	cmnvs	r1, #3008	; 0xbc0
    1cc0:	75732d68 	ldrbvc	r2, [r3, #-3432]!	; 0xd68
    1cc4:	2f69786e 	svccs	0x0069786e
    1cc8:	732f6d70 	teqvc	pc, #7168	; 0x1c00
    1ccc:	646e6174 	strbtvs	r6, [lr], #-372	; 0x174
    1cd0:	2e2f7962 	cdpcs	9, 2, cr7, cr15, cr2, {3}
    1cd4:	656d2f2e 	strbvs	r2, [sp, #-3886]!	; 0xf2e
    1cd8:	6d745f6d 	ldclvs	15, cr5, [r4, #-436]!	; 0xfffffe4c
    1cdc:	706d7473 	rsbvc	r7, sp, r3, ror r4
    1ce0:	7000632e 	andvc	r6, r0, lr, lsr #6
    1ce4:	74736d74 	ldrbtvc	r6, [r3], #-3444	; 0xd74
    1ce8:	735f706d 	cmpvc	pc, #109	; 0x6d
    1cec:	65746174 	ldrbvs	r6, [r4, #-372]!	; 0x174
    1cf0:	4d5f5f00 	ldclmi	15, cr5, [pc, #-0]	; 1cf8 <print_align+0x8>
    1cf4:	545f4d45 	ldrbpl	r4, [pc], #-3397	; 1cfc <print_align+0xc>
    1cf8:	4d54534d 	ldclmi	3, cr5, [r4, #-308]	; 0xfffffecc
    1cfc:	45525f50 	ldrbmi	r5, [r2, #-3920]	; 0xf50
    1d00:	70630047 	rsbvc	r0, r3, r7, asr #32
    1d04:	625f7273 	subsvs	r7, pc, #805306375	; 0x30000007
    1d08:	756b6361 	strbvc	r6, [fp, #-865]!	; 0x361
    1d0c:	77680070 			; <UNDEFINED> instruction: 0x77680070
    1d10:	6e697073 	mcrvs	0, 3, r7, cr9, cr3, {3}
    1d14:	6b636f6c 	blvs	18ddacc <__bss_end+0x18da518>
    1d18:	696e695f 	stmdbvs	lr!, {r0, r1, r2, r3, r4, r6, r8, fp, sp, lr}^
    1d1c:	72610074 	rsbvc	r0, r1, #116	; 0x74
    1d20:	612f6863 	teqvs	pc, r3, ror #16
    1d24:	6d2f6d72 	stcvs	13, cr6, [pc, #-456]!	; 1b64 <serial_puts+0x6c>
    1d28:	2d686361 	stclcs	3, cr6, [r8, #-388]!	; 0xfffffe7c
    1d2c:	786e7573 	stmdavc	lr!, {r0, r1, r4, r5, r6, r8, sl, ip, sp, lr}^
    1d30:	6d702f69 	ldclvs	15, cr2, [r0, #-420]!	; 0xfffffe5c
    1d34:	6174732f 	cmnvs	r4, pc, lsr #6
    1d38:	7962646e 	stmdbvc	r2!, {r1, r2, r3, r5, r6, sl, sp, lr}^
    1d3c:	2f2e2e2f 	svccs	0x002e2e2f
    1d40:	5f6d656d 	svcpl	0x006d656d
    1d44:	70737768 	rsbsvc	r7, r3, r8, ror #14
    1d48:	6f6c6e69 	svcvs	0x006c6e69
    1d4c:	632e6b63 	teqvs	lr, #101376	; 0x18c00
    1d50:	73776800 	cmnvc	r7, #0
    1d54:	5f6e6970 	svcpl	0x006e6970
    1d58:	6b636f6c 	blvs	18ddb10 <__bss_end+0x18da55c>
    1d5c:	6d69745f 	cfstrdvs	mvd7, [r9, #-380]!	; 0xfffffe84
    1d60:	74756f65 	ldrbtvc	r6, [r5], #-3941	; 0xf65
    1d64:	6d6f6e5f 	stclvs	14, cr6, [pc, #-380]!	; 1bf0 <serial_gets+0x48>
    1d68:	6800756d 	stmdavs	r0, {r0, r2, r3, r5, r6, r8, sl, ip, sp, lr}
    1d6c:	69707377 	ldmdbvs	r0!, {r0, r1, r2, r4, r5, r6, r8, r9, ip, sp, lr}^
    1d70:	6e755f6e 	cdpvs	15, 7, cr5, cr5, cr14, {3}
    1d74:	6b636f6c 	blvs	18ddb2c <__bss_end+0x18da578>
    1d78:	6d656d00 	stclvs	13, cr6, [r5, #-0]
    1d7c:	636f6c5f 	cmnvs	pc, #24320	; 0x5f00
    1d80:	695f6c61 	ldmdbvs	pc, {r0, r5, r6, sl, fp, sp, lr}^	; <UNPREDICTABLE>
    1d84:	725f7172 	subsvc	r7, pc, #-2147483620	; 0x8000001c
    1d88:	6f747365 	svcvs	0x00747365
    1d8c:	65006572 	strvs	r6, [r0, #-1394]	; 0x572
    1d90:	72697078 	rsbvc	r7, r9, #120	; 0x78
    1d94:	6c660065 	stclvs	0, cr0, [r6], #-404	; 0xfffffe6c
    1d98:	00736761 	rsbseq	r6, r3, r1, ror #14
    1d9c:	70737768 	rsbsvc	r7, r3, r8, ror #14
    1da0:	6c5f6e69 	mrrcvs	14, 6, r6, pc, cr9	; <UNPREDICTABLE>
    1da4:	5f6b636f 	svcpl	0x006b636f
    1da8:	656d6974 	strbvs	r6, [sp, #-2420]!	; 0x974
    1dac:	0074756f 	rsbseq	r7, r4, pc, ror #10
    1db0:	5f6d656d 	svcpl	0x006d656d
    1db4:	61636f6c 	cmnvs	r3, ip, ror #30
    1db8:	72695f6c 	rsbvc	r5, r9, #432	; 0x1b0
    1dbc:	61735f71 	cmnvs	r3, r1, ror pc
    1dc0:	68006576 	stmdavs	r0, {r1, r2, r4, r5, r6, r8, sl, sp, lr}
    1dc4:	69707377 	ldmdbvs	r0!, {r0, r1, r2, r4, r5, r6, r8, r9, ip, sp, lr}^
    1dc8:	6e755f6e 	cdpvs	15, 7, cr5, cr5, cr14, {3}
    1dcc:	6b636f6c 	blvs	18ddb84 <__bss_end+0x18da5d0>
    1dd0:	6d6f6e5f 	stclvs	14, cr6, [pc, #-380]!	; 1c5c <utoa+0x28>
    1dd4:	6800756d 	stmdavs	r0, {r0, r2, r3, r5, r6, r8, sl, ip, sp, lr}
    1dd8:	00646977 	rsbeq	r6, r4, r7, ror r9
    1ddc:	5f6d656d 	svcpl	0x006d656d
    1de0:	5f6b6c63 	svcpl	0x006b6c63
    1de4:	5f746567 	svcpl	0x00746567
    1de8:	6373696d 	cmnvs	r3, #1785856	; 0x1b4000
    1dec:	63726100 	cmnvs	r2, #0
    1df0:	72612f68 	rsbvc	r2, r1, #416	; 0x1a0
    1df4:	616d2f6d 	cmnvs	sp, sp, ror #30
    1df8:	732d6863 	teqvc	sp, #6488064	; 0x630000
    1dfc:	69786e75 	ldmdbvs	r8!, {r0, r2, r4, r5, r6, r9, sl, fp, sp, lr}^
    1e00:	2f6d702f 	svccs	0x006d702f
    1e04:	6e617473 	mcrvs	4, 3, r7, cr1, cr3, {3}
    1e08:	2f796264 	svccs	0x00796264
    1e0c:	6d2f2e2e 	stcvs	14, cr2, [pc, #-184]!	; 1d5c <print_align+0x6c>
    1e10:	635f6d65 	cmpvs	pc, #6464	; 0x1940
    1e14:	632e6b6c 	teqvs	lr, #110592	; 0x1b000
    1e18:	6d656d00 	stclvs	13, cr6, [r5, #-0]
    1e1c:	6b6c635f 	blvs	1b1aba0 <__bss_end+0x1b175ec>
    1e20:	696e695f 	stmdbvs	lr!, {r0, r1, r2, r3, r4, r6, r8, fp, sp, lr}^
    1e24:	656d0074 	strbvs	r0, [sp, #-116]!	; 0x74
    1e28:	6c635f6d 	stclvs	15, cr5, [r3], #-436	; 0xfffffe4c
    1e2c:	65735f6b 	ldrbvs	r5, [r3, #-3947]!	; 0xf6b
    1e30:	696d5f74 	stmdbvs	sp!, {r2, r4, r5, r6, r8, r9, sl, fp, ip, lr}^
    1e34:	43006373 	movwmi	r6, #883	; 0x373
    1e38:	6552756d 	ldrbvs	r7, [r2, #-1389]	; 0x56d
    1e3c:	6c505f67 	mrrcvs	15, 6, r5, r0, cr7
    1e40:	7443316c 	strbvc	r3, [r3], #-364	; 0x16c
    1e44:	6d745f6c 	ldclvs	15, cr5, [r4, #-432]!	; 0xfffffe50
    1e48:	656d0070 	strbvs	r0, [sp, #-112]!	; 0x70
    1e4c:	6c635f6d 	stclvs	15, cr5, [r3], #-436	; 0xfffffe4c
    1e50:	65735f6b 	ldrbvs	r5, [r3, #-3947]!	; 0xf6b
    1e54:	6c705f74 	ldclvs	15, cr5, [r0], #-464	; 0xfffffe30
    1e58:	61665f6c 	cmnvs	r6, ip, ror #30
    1e5c:	726f7463 	rsbvc	r7, pc, #1660944384	; 0x63000000
    1e60:	6d656d00 	stclvs	13, cr6, [r5, #-0]
    1e64:	6b6c635f 	blvs	1b1abe8 <__bss_end+0x1b17634>
    1e68:	7465675f 	strbtvc	r6, [r5], #-1887	; 0x75f
    1e6c:	7570635f 	ldrbvc	r6, [r0, #-863]!	; 0x35f
    1e70:	6572665f 	ldrbvs	r6, [r2, #-1631]!	; 0x65f
    1e74:	656d0071 	strbvs	r0, [sp, #-113]!	; 0x71
    1e78:	6c635f6d 	stclvs	15, cr5, [r3], #-436	; 0xfffffe4c
    1e7c:	65675f6b 	strbvs	r5, [r7, #-3947]!	; 0xf6b
    1e80:	76696474 			; <UNDEFINED> instruction: 0x76696474
    1e84:	75636300 	strbvc	r6, [r3, #-768]!	; 0x300
    1e88:	6765725f 			; <UNDEFINED> instruction: 0x6765725f
    1e8c:	6361625f 	cmnvs	r1, #-268435451	; 0xf0000005
    1e90:	656d006b 	strbvs	r0, [sp, #-107]!	; 0x6b
    1e94:	6c635f6d 	stclvs	15, cr5, [r3], #-436	; 0xfffffe4c
    1e98:	65675f6b 	strbvs	r5, [r7, #-3947]!	; 0xf6b
    1e9c:	6c705f74 	ldclvs	15, cr5, [r0], #-464	; 0xfffffe30
    1ea0:	61665f6c 	cmnvs	r6, ip, ror #30
    1ea4:	726f7463 	rsbvc	r7, pc, #1660944384	; 0x63000000
    1ea8:	67657200 	strbvs	r7, [r5, -r0, lsl #4]!
    1eac:	6c61765f 	stclvs	6, cr7, [r1], #-380	; 0xfffffe84
    1eb0:	6d656d00 	stclvs	13, cr6, [r5, #-0]
    1eb4:	6b6c635f 	blvs	1b1ac38 <__bss_end+0x1b17684>
    1eb8:	7661735f 			; <UNDEFINED> instruction: 0x7661735f
    1ebc:	656d0065 	strbvs	r0, [sp, #-101]!	; 0x65
    1ec0:	6c635f6d 	stclvs	15, cr5, [r3], #-436	; 0xfffffe4c
    1ec4:	65735f6b 	ldrbvs	r5, [r3, #-3947]!	; 0xf6b
    1ec8:	76696474 			; <UNDEFINED> instruction: 0x76696474
    1ecc:	6d656d00 	stclvs	13, cr6, [r5, #-0]
    1ed0:	7465675f 	strbtvc	r6, [r5], #-1887	; 0x75f
    1ed4:	0061625f 	rsbeq	r6, r1, pc, asr r2
    1ed8:	6b6c6370 	blvs	1b1aca0 <__bss_end+0x1b176ec>
    1edc:	6174735f 	cmnvs	r4, pc, asr r3
    1ee0:	6d006574 	cfstr32vs	mvfx6, [r0, #-464]	; 0xfffffe30
    1ee4:	635f6d65 	cmpvs	pc, #6464	; 0x1940
    1ee8:	725f6b6c 	subsvc	r6, pc, #110592	; 0x1b000
    1eec:	6f747365 	svcvs	0x00747365
    1ef0:	43006572 	movwmi	r6, #1394	; 0x572
    1ef4:	6552756d 	ldrbvs	r7, [r2, #-1389]	; 0x56d
    1ef8:	79535f67 	ldmdbvc	r3, {r0, r1, r2, r5, r6, r8, r9, sl, fp, ip, lr}^
    1efc:	6b6c4373 	blvs	1b12cd0 <__bss_end+0x1b0f71c>
    1f00:	5f766944 	svcpl	0x00766944
    1f04:	00706d74 	rsbseq	r6, r0, r4, ror sp

Disassembly of section .comment:

00000000 <.comment>:
   0:	3a434347 	bcc	10d0d24 <__bss_end+0x10cd770>
   4:	72632820 	rsbvc	r2, r3, #2097152	; 0x200000
   8:	7473736f 	ldrbtvc	r7, [r3], #-879	; 0x36f
   c:	2d6c6f6f 	stclcs	15, cr6, [ip, #-444]!	; 0xfffffe44
  10:	6c20474e 	stcvs	7, cr4, [r0], #-312	; 0xfffffec8
  14:	72616e69 	rsbvc	r6, r1, #1680	; 0x690
  18:	2e312d6f 	cdpcs	13, 3, cr2, cr1, cr15, {3}
  1c:	312e3331 	teqcc	lr, r1, lsr r3
  20:	3130322d 	teqcc	r0, sp, lsr #4
  24:	32302e32 	eorscc	r2, r0, #800	; 0x320
  28:	3130322d 	teqcc	r0, sp, lsr #4
  2c:	32323032 	eorscc	r3, r2, #50	; 0x32
  30:	202d2032 	eorcs	r2, sp, r2, lsr r0
  34:	616e694c 	cmnvs	lr, ip, asr #18
  38:	47206f72 			; <UNDEFINED> instruction: 0x47206f72
  3c:	32204343 	eorcc	r4, r0, #201326593	; 0xc000001
  40:	2e323130 	mrccs	1, 1, r3, cr2, cr0, {1}
  44:	20293230 	eorcs	r3, r9, r0, lsr r2
  48:	2e362e34 	mrccs	14, 1, r2, cr6, cr4, {1}
  4c:	30322033 	eorscc	r2, r2, r3, lsr r0
  50:	32303231 	eorscc	r3, r0, #268435459	; 0x10000003
  54:	28203130 	stmdacs	r0!, {r4, r5, r8, ip, sp}
  58:	72657270 	rsbvc	r7, r5, #7
  5c:	61656c65 	cmnvs	r5, r5, ror #24
  60:	00296573 	eoreq	r6, r9, r3, ror r5

Disassembly of section .ARM.attributes:

00000000 <.ARM.attributes>:
   0:	00003041 	andeq	r3, r0, r1, asr #32
   4:	61656100 	cmnvs	r5, r0, lsl #2
   8:	01006962 	tsteq	r0, r2, ror #18
   c:	00000026 	andeq	r0, r0, r6, lsr #32
  10:	412d3705 	teqmi	sp, r5, lsl #14
  14:	070a0600 	streq	r0, [sl, -r0, lsl #12]
  18:	09010841 	stmdbeq	r1, {r0, r6, fp}
  1c:	12040a02 	andne	r0, r4, #8192	; 0x2000
  20:	15011404 	strne	r1, [r1, #-1028]	; 0x404
  24:	18031701 	stmdane	r3, {r0, r8, r9, sl, ip}
  28:	1b021a01 	blne	86834 <__bss_end+0x83280>
  2c:	2c021e03 	stccs	14, cr1, [r2], {3}
  30:	Address 0x00000030 is out of bounds.


Disassembly of section .debug_aranges:

00000000 <.debug_aranges>:
   0:	0000001c 	andeq	r0, r0, ip, lsl r0
   4:	01b40002 			; <UNDEFINED> instruction: 0x01b40002
   8:	00040000 	andeq	r0, r4, r0
   c:	00000000 	andeq	r0, r0, r0
  10:	00000030 	andeq	r0, r0, r0, lsr r0
  14:	0000005c 	andeq	r0, r0, ip, asr r0
	...
  20:	0000001c 	andeq	r0, r0, ip, lsl r0
  24:	02240002 	eoreq	r0, r4, #2
  28:	00040000 	andeq	r0, r4, r0
  2c:	00000000 	andeq	r0, r0, r0
  30:	0000008c 	andeq	r0, r0, ip, lsl #1
  34:	00000028 	andeq	r0, r0, r8, lsr #32
	...
  40:	0000001c 	andeq	r0, r0, ip, lsl r0
  44:	03600002 	cmneq	r0, #2
  48:	00040000 	andeq	r0, r4, r0
  4c:	00000000 	andeq	r0, r0, r0
  50:	000000b4 	strheq	r0, [r0], -r4
  54:	00000028 	andeq	r0, r0, r8, lsr #32
	...
  60:	0000001c 	andeq	r0, r0, ip, lsl r0
  64:	05110002 	ldreq	r0, [r1, #-2]
  68:	00040000 	andeq	r0, r4, r0
  6c:	00000000 	andeq	r0, r0, r0
  70:	000000dc 	ldrdeq	r0, [r0], -ip
  74:	000002a4 	andeq	r0, r0, r4, lsr #5
	...
  80:	0000001c 	andeq	r0, r0, ip, lsl r0
  84:	15e00002 	strbne	r0, [r0, #2]!
  88:	00040000 	andeq	r0, r4, r0
  8c:	00000000 	andeq	r0, r0, r0
  90:	00000380 	andeq	r0, r0, r0, lsl #7
  94:	00000378 	andeq	r0, r0, r8, ror r3
	...
  a0:	0000001c 	andeq	r0, r0, ip, lsl r0
  a4:	19c10002 	stmibne	r1, {r1}^
  a8:	00040000 	andeq	r0, r4, r0
  ac:	00000000 	andeq	r0, r0, r0
  b0:	000006f8 	strdeq	r0, [r0], -r8
  b4:	00000200 	andeq	r0, r0, r0, lsl #4
	...
  c0:	0000001c 	andeq	r0, r0, ip, lsl r0
  c4:	1ebb0002 	cdpne	0, 11, cr0, cr11, cr2, {0}
  c8:	00040000 	andeq	r0, r4, r0
  cc:	00000000 	andeq	r0, r0, r0
  d0:	00000900 	andeq	r0, r0, r0, lsl #18
  d4:	000000e0 	andeq	r0, r0, r0, ror #1
	...
  e0:	0000001c 	andeq	r0, r0, ip, lsl r0
  e4:	20300002 	eorscs	r0, r0, r2
  e8:	00040000 	andeq	r0, r4, r0
  ec:	00000000 	andeq	r0, r0, r0
  f0:	000009e0 	andeq	r0, r0, r0, ror #19
  f4:	0000054c 	andeq	r0, r0, ip, asr #10
	...
 100:	0000001c 	andeq	r0, r0, ip, lsl r0
 104:	209d0002 	addscs	r0, sp, r2
 108:	00040000 	andeq	r0, r4, r0
 10c:	00000000 	andeq	r0, r0, r0
 110:	00000f40 	andeq	r0, r0, r0, asr #30
 114:	000007b0 			; <UNDEFINED> instruction: 0x000007b0
	...
 120:	0000001c 	andeq	r0, r0, ip, lsl r0
 124:	26310002 	ldrtcs	r0, [r1], -r2
 128:	00040000 	andeq	r0, r4, r0
 12c:	00000000 	andeq	r0, r0, r0
 130:	000016f0 	strdeq	r1, [r0], -r0
 134:	00000544 	andeq	r0, r0, r4, asr #10
	...
 140:	0000001c 	andeq	r0, r0, ip, lsl r0
 144:	37ee0002 	strbcc	r0, [lr, r2]!
 148:	00040000 	andeq	r0, r4, r0
 14c:	00000000 	andeq	r0, r0, r0
 150:	00001c34 	andeq	r1, r0, r4, lsr ip
 154:	000007ec 	andeq	r0, r0, ip, ror #15
	...
 160:	0000001c 	andeq	r0, r0, ip, lsl r0
 164:	40320002 	eorsmi	r0, r2, r2
 168:	00040000 	andeq	r0, r4, r0
 16c:	00000000 	andeq	r0, r0, r0
 170:	00002420 	andeq	r2, r0, r0, lsr #8
 174:	000001dc 	ldrdeq	r0, [r0], -ip
	...
 180:	0000001c 	andeq	r0, r0, ip, lsl r0
 184:	409b0002 	addsmi	r0, fp, r2
 188:	00040000 	andeq	r0, r4, r0
 18c:	00000000 	andeq	r0, r0, r0
 190:	000025fc 	strdeq	r2, [r0], -ip
 194:	00000058 	andeq	r0, r0, r8, asr r0
	...
 1a0:	0000001c 	andeq	r0, r0, ip, lsl r0
 1a4:	41950002 	orrsmi	r0, r5, r2
 1a8:	00040000 	andeq	r0, r4, r0
 1ac:	00000000 	andeq	r0, r0, r0
 1b0:	00002654 	andeq	r2, r0, r4, asr r6
 1b4:	0000019c 	muleq	r0, ip, r1
	...
 1c0:	0000001c 	andeq	r0, r0, ip, lsl r0
 1c4:	44660002 	strbtmi	r0, [r6], #-2
 1c8:	00040000 	andeq	r0, r4, r0
 1cc:	00000000 	andeq	r0, r0, r0
 1d0:	000027f0 	strdeq	r2, [r0], -r0
 1d4:	000000a0 	andeq	r0, r0, r0, lsr #1
	...
 1e0:	0000001c 	andeq	r0, r0, ip, lsl r0
 1e4:	45d00002 	ldrbmi	r0, [r0, #2]
 1e8:	00040000 	andeq	r0, r4, r0
 1ec:	00000000 	andeq	r0, r0, r0
 1f0:	00002890 	muleq	r0, r0, r8
 1f4:	000001e8 	andeq	r0, r0, r8, ror #3
	...
 200:	0000001c 	andeq	r0, r0, ip, lsl r0
 204:	4a5c0002 	bmi	1700214 <__bss_end+0x16fcc60>
 208:	00040000 	andeq	r0, r4, r0
 20c:	00000000 	andeq	r0, r0, r0
 210:	00002a78 	andeq	r2, r0, r8, ror sl
 214:	00000058 	andeq	r0, r0, r8, asr r0
	...
 220:	0000001c 	andeq	r0, r0, ip, lsl r0
 224:	4c160002 	ldcmi	0, cr0, [r6], {2}
 228:	00040000 	andeq	r0, r4, r0
 22c:	00000000 	andeq	r0, r0, r0
 230:	00002ad0 	ldrdeq	r2, [r0], -r0
 234:	00000178 	andeq	r0, r0, r8, ror r1
	...
 240:	0000001c 	andeq	r0, r0, ip, lsl r0
 244:	4f190002 	svcmi	0x00190002
 248:	00040000 	andeq	r0, r4, r0
 24c:	00000000 	andeq	r0, r0, r0
 250:	00002c48 	andeq	r2, r0, r8, asr #24
 254:	000003a4 	andeq	r0, r0, r4, lsr #7
	...

Disassembly of section .debug_loc:

00000000 <.debug_loc>:
       0:	00000000 	andeq	r0, r0, r0
       4:	00000010 	andeq	r0, r0, r0, lsl r0
       8:	00500001 	subseq	r0, r0, r1
	...
      14:	10000000 	andne	r0, r0, r0
      18:	01000000 	mrseq	r0, (UNDEF: 0)
      1c:	00005100 	andeq	r5, r0, r0, lsl #2
	...
      28:	00040000 	andeq	r0, r4, r0
      2c:	00010000 	andeq	r0, r1, r0
      30:	00000452 	andeq	r0, r0, r2, asr r4
      34:	00000800 	andeq	r0, r0, r0, lsl #16
      38:	72000300 	andvc	r0, r0, #0
      3c:	00089f7d 	andeq	r9, r8, sp, ror pc
      40:	00140000 	andseq	r0, r4, r0
      44:	00010000 	andeq	r0, r1, r0
      48:	00000052 	andeq	r0, r0, r2, asr r0
      4c:	00000000 	andeq	r0, r0, r0
      50:	00000800 	andeq	r0, r0, r0, lsl #16
      54:	00001400 	andeq	r1, r0, r0, lsl #8
      58:	51000100 	mrspl	r0, (UNDEF: 16)
	...
      68:	00000004 	andeq	r0, r0, r4
      6c:	007d0002 	rsbseq	r0, sp, r2
      70:	00000004 	andeq	r0, r0, r4
      74:	00000138 	andeq	r0, r0, r8, lsr r1
      78:	107d0002 	rsbsne	r0, sp, r2
	...
      84:	00000138 	andeq	r0, r0, r8, lsr r1
      88:	0000013c 	andeq	r0, r0, ip, lsr r1
      8c:	007d0002 	rsbseq	r0, sp, r2
      90:	0000013c 	andeq	r0, r0, ip, lsr r1
      94:	000002a4 	andeq	r0, r0, r4, lsr #5
      98:	107d0002 	rsbsne	r0, sp, r2
	...
      a4:	00000174 	andeq	r0, r0, r4, ror r1
      a8:	00000177 	andeq	r0, r0, r7, ror r1
      ac:	77500001 	ldrbvc	r0, [r0, -r1]
      b0:	24000001 	strcs	r0, [r0], #-1
      b4:	01000002 	tsteq	r0, r2
      b8:	02545400 	subseq	r5, r4, #0
      bc:	02a40000 	adceq	r0, r4, #0
      c0:	00010000 	andeq	r0, r1, r0
      c4:	00000054 	andeq	r0, r0, r4, asr r0
      c8:	00000000 	andeq	r0, r0, r0
      cc:	00013800 	andeq	r3, r1, r0, lsl #16
      d0:	00014000 	andeq	r4, r1, r0
      d4:	30000200 	andcc	r0, r0, r0, lsl #4
      d8:	0001409f 	muleq	r1, pc, r0	; <UNPREDICTABLE>
      dc:	00014400 	andeq	r4, r1, r0, lsl #8
      e0:	70000500 	andvc	r0, r0, r0, lsl #10
      e4:	9f1a3300 	svcls	0x001a3300
      e8:	00000144 	andeq	r0, r0, r4, asr #2
      ec:	00000168 	andeq	r0, r0, r8, ror #2
      f0:	68500001 	ldmdavs	r0, {r0}^
      f4:	6f000001 	svcvs	0x00000001
      f8:	02000001 	andeq	r0, r0, #1
      fc:	247c7300 	ldrbtcs	r7, [ip], #-768	; 0x300
     100:	54000002 	strpl	r0, [r0], #-2
     104:	01000002 	tsteq	r0, r2
     108:	00005000 	andeq	r5, r0, r0
	...
     114:	00040000 	andeq	r0, r4, r0
     118:	00020000 	andeq	r0, r2, r0
     11c:	0004007d 	andeq	r0, r4, sp, ror r0
     120:	00200000 	eoreq	r0, r0, r0
     124:	00020000 	andeq	r0, r2, r0
     128:	0000087d 	andeq	r0, r0, sp, ror r8
     12c:	00000000 	andeq	r0, r0, r0
     130:	00700000 	rsbseq	r0, r0, r0
     134:	00740000 	rsbseq	r0, r4, r0
     138:	00020000 	andeq	r0, r2, r0
     13c:	0074007d 	rsbseq	r0, r4, sp, ror r0
     140:	01040000 	mrseq	r0, (UNDEF: 4)
     144:	00020000 	andeq	r0, r2, r0
     148:	0000087d 	andeq	r0, r0, sp, ror r8
     14c:	00000000 	andeq	r0, r0, r0
     150:	00700000 	rsbseq	r0, r0, r0
     154:	00a00000 	adceq	r0, r0, r0
     158:	00020000 	andeq	r0, r2, r0
     15c:	00009f31 	andeq	r9, r0, r1, lsr pc
     160:	00000000 	andeq	r0, r0, r0
     164:	01080000 	mrseq	r0, (UNDEF: 8)
     168:	010c0000 	mrseq	r0, (UNDEF: 12)
     16c:	00020000 	andeq	r0, r2, r0
     170:	010c007d 	tsteq	ip, sp, ror r0
     174:	01100000 	tsteq	r0, r0
     178:	00020000 	andeq	r0, r2, r0
     17c:	0110087d 	tsteq	r0, sp, ror r8
     180:	019c0000 	orrseq	r0, ip, r0
     184:	00020000 	andeq	r0, r2, r0
     188:	0000107d 	andeq	r1, r0, sp, ror r0
     18c:	00000000 	andeq	r0, r0, r0
     190:	01080000 	mrseq	r0, (UNDEF: 8)
     194:	011c0000 	tsteq	ip, r0
     198:	00010000 	andeq	r0, r1, r0
     19c:	00011c50 	andeq	r1, r1, r0, asr ip
     1a0:	00019c00 	andeq	r9, r1, r0, lsl #24
     1a4:	91000200 	mrsls	r0, R8_usr
     1a8:	0000006c 	andeq	r0, r0, ip, rrx
     1ac:	00000000 	andeq	r0, r0, r0
     1b0:	00019c00 	andeq	r9, r1, r0, lsl #24
     1b4:	0001a000 	andeq	sl, r1, r0
     1b8:	7d000200 	sfmvc	f0, 4, [r0, #-0]
     1bc:	0001a000 	andeq	sl, r1, r0
     1c0:	0001f000 	andeq	pc, r1, r0
     1c4:	7d000200 	sfmvc	f0, 4, [r0, #-0]
     1c8:	00000008 	andeq	r0, r0, r8
     1cc:	00000000 	andeq	r0, r0, r0
     1d0:	00019c00 	andeq	r9, r1, r0, lsl #24
     1d4:	0001e400 	andeq	lr, r1, r0, lsl #8
     1d8:	30000200 	andcc	r0, r0, r0, lsl #4
     1dc:	0001e49f 	muleq	r1, pc, r4	; <UNPREDICTABLE>
     1e0:	0001f000 	andeq	pc, r1, r0
     1e4:	03000c00 	movweq	r0, #3072	; 0xc00
     1e8:	000031b0 			; <UNDEFINED> instruction: 0x000031b0
     1ec:	24480194 	strbcs	r0, [r8], #-404	; 0x194
     1f0:	009f2548 	addseq	r2, pc, r8, asr #10
     1f4:	00000000 	andeq	r0, r0, r0
     1f8:	f0000000 			; <UNDEFINED> instruction: 0xf0000000
     1fc:	f4000001 	vst4.8	{d0-d3}, [r0], r1
     200:	02000001 	andeq	r0, r0, #1
     204:	f4007d00 			; <UNDEFINED> instruction: 0xf4007d00
     208:	68000001 	stmdavs	r0, {r0}
     20c:	02000002 	andeq	r0, r0, #2
     210:	00107d00 	andseq	r7, r0, r0, lsl #26
     214:	00000000 	andeq	r0, r0, r0
     218:	f0000000 			; <UNDEFINED> instruction: 0xf0000000
     21c:	00000001 	andeq	r0, r0, r1
     220:	02000002 	andeq	r0, r0, #2
     224:	349f3100 	ldrcc	r3, [pc], #256	; 22c <set_pll+0x18>
     228:	40000002 	andmi	r0, r0, r2
     22c:	01000002 	tsteq	r0, r2
     230:	00005400 	andeq	r5, r0, r0, lsl #8
     234:	00000000 	andeq	r0, r0, r0
     238:	01f00000 	mvnseq	r0, r0
     23c:	02000000 	andeq	r0, r0, #0
     240:	00020000 	andeq	r0, r2, r0
     244:	02209f30 	eoreq	r9, r0, #192	; 0xc0
     248:	02330000 	eorseq	r0, r3, #0
     24c:	000c0000 	andeq	r0, ip, r0
     250:	0031b003 	eorseq	fp, r1, r3
     254:	48019400 	stmdami	r1, {sl, ip, pc}
     258:	9f254824 	svcls	0x00254824
	...
     264:	00000268 	andeq	r0, r0, r8, ror #4
     268:	0000026c 	andeq	r0, r0, ip, ror #4
     26c:	007d0002 	rsbseq	r0, sp, r2
     270:	0000026c 	andeq	r0, r0, ip, ror #4
     274:	00000270 	andeq	r0, r0, r0, ror r2
     278:	0c7d0002 	ldcleq	0, cr0, [sp], #-8
     27c:	00000270 	andeq	r0, r0, r0, ror r2
     280:	000002fc 	strdeq	r0, [r0], -ip
     284:	187d0002 	ldmdane	sp!, {r1}^
	...
     290:	00000268 	andeq	r0, r0, r8, ror #4
     294:	0000027c 	andeq	r0, r0, ip, ror r2
     298:	7c500001 	mrrcvc	0, 0, r0, r0, cr1	; <UNPREDICTABLE>
     29c:	fc000002 	stc2	0, cr0, [r0], {2}
     2a0:	02000002 	andeq	r0, r0, #2
     2a4:	00649100 	rsbeq	r9, r4, r0, lsl #2
     2a8:	00000000 	andeq	r0, r0, r0
     2ac:	44000000 	strmi	r0, [r0], #-0
     2b0:	48000003 	stmdami	r0, {r0, r1}
     2b4:	02000003 	andeq	r0, r0, #3
     2b8:	48007d00 	stmdami	r0, {r8, sl, fp, ip, sp, lr}
     2bc:	78000003 	stmdavc	r0, {r0, r1}
     2c0:	02000003 	andeq	r0, r0, #3
     2c4:	00107d00 	andseq	r7, r0, r0, lsl #26
     2c8:	00000000 	andeq	r0, r0, r0
     2cc:	44000000 	strmi	r0, [r0], #-0
     2d0:	5c000003 	stcpl	0, cr0, [r0], {3}
     2d4:	01000003 	tsteq	r0, r3
     2d8:	00005000 	andeq	r5, r0, r0
     2dc:	00000000 	andeq	r0, r0, r0
     2e0:	03600000 	cmneq	r0, #0
     2e4:	03700000 	cmneq	r0, #0
     2e8:	00010000 	andeq	r0, r1, r0
     2ec:	00037056 	andeq	r7, r3, r6, asr r0
     2f0:	00037800 	andeq	r7, r3, r0, lsl #16
     2f4:	55000100 	strpl	r0, [r0, #-256]	; 0x100
	...
     304:	00000008 	andeq	r0, r0, r8
     308:	00500001 	subseq	r0, r0, r1
	...
     314:	0c000000 	stceq	0, cr0, [r0], {-0}
     318:	02000000 	andeq	r0, r0, #0
     31c:	0c9f3100 	ldfeqs	f3, [pc], {0}
     320:	14000000 	strne	r0, [r0], #-0
     324:	01000000 	mrseq	r0, (UNDEF: 0)
     328:	00145000 	andseq	r5, r4, r0
     32c:	00180000 	andseq	r0, r8, r0
     330:	00050000 	andeq	r0, r5, r0
     334:	21400070 	hvccs	0
     338:	0000189f 	muleq	r0, pc, r8	; <UNPREDICTABLE>
     33c:	00001c00 	andeq	r1, r0, r0, lsl #24
     340:	50000100 	andpl	r0, r0, r0, lsl #2
     344:	0000001c 	andeq	r0, r0, ip, lsl r0
     348:	00000034 	andeq	r0, r0, r4, lsr r0
     34c:	049e0006 	ldreq	r0, [lr], #6
     350:	8000000f 	andhi	r0, r0, pc
	...
     35c:	0000007c 	andeq	r0, r0, ip, ror r0
     360:	00000080 	andeq	r0, r0, r0, lsl #1
     364:	9f300002 	svcls	0x00300002
     368:	00000080 	andeq	r0, r0, r0, lsl #1
     36c:	00000084 	andeq	r0, r0, r4, lsl #1
     370:	00730005 	rsbseq	r0, r3, r5
     374:	849f2134 	ldrhi	r2, [pc], #308	; 37c <set_pll+0x168>
     378:	8c000000 	stchi	0, cr0, [r0], {-0}
     37c:	01000000 	mrseq	r0, (UNDEF: 0)
     380:	00005300 	andeq	r5, r0, r0, lsl #6
     384:	00000000 	andeq	r0, r0, r0
     388:	008c0000 	addeq	r0, ip, r0
     38c:	00900000 	addseq	r0, r0, r0
     390:	00020000 	andeq	r0, r2, r0
     394:	0090007d 	addseq	r0, r0, sp, ror r0
     398:	00c00000 	sbceq	r0, r0, r0
     39c:	00020000 	andeq	r0, r2, r0
     3a0:	0000087d 	andeq	r0, r0, sp, ror r8
     3a4:	00000000 	andeq	r0, r0, r0
     3a8:	008c0000 	addeq	r0, ip, r0
     3ac:	00940000 	addseq	r0, r4, r0
     3b0:	00020000 	andeq	r0, r2, r0
     3b4:	00009f30 	andeq	r9, r0, r0, lsr pc
     3b8:	00000000 	andeq	r0, r0, r0
     3bc:	008c0000 	addeq	r0, ip, r0
     3c0:	00980000 	addseq	r0, r8, r0
     3c4:	00020000 	andeq	r0, r2, r0
     3c8:	00009f30 	andeq	r9, r0, r0, lsr pc
     3cc:	00000000 	andeq	r0, r0, r0
     3d0:	00940000 	addseq	r0, r4, r0
     3d4:	00a40000 	adceq	r0, r4, r0
     3d8:	00010000 	andeq	r0, r1, r0
     3dc:	00000052 	andeq	r0, r0, r2, asr r0
     3e0:	00000000 	andeq	r0, r0, r0
     3e4:	00009800 	andeq	r9, r0, r0, lsl #16
     3e8:	0000a800 	andeq	sl, r0, r0, lsl #16
     3ec:	53000100 	movwpl	r0, #256	; 0x100
	...
     3f8:	000000c0 	andeq	r0, r0, r0, asr #1
     3fc:	000000c4 	andeq	r0, r0, r4, asr #1
     400:	007d0002 	rsbseq	r0, sp, r2
     404:	000000c4 	andeq	r0, r0, r4, asr #1
     408:	00000148 	andeq	r0, r0, r8, asr #2
     40c:	107d0002 	rsbsne	r0, sp, r2
	...
     418:	000000c0 	andeq	r0, r0, r0, asr #1
     41c:	000000d0 	ldrdeq	r0, [r0], -r0	; <UNPREDICTABLE>
     420:	d0500001 	subsle	r0, r0, r1
     424:	d8000000 	stmdale	r0, {}	; <UNPREDICTABLE>
     428:	01000000 	mrseq	r0, (UNDEF: 0)
     42c:	00e45500 	rsceq	r5, r4, r0, lsl #10
     430:	00f80000 	rscseq	r0, r8, r0
     434:	00010000 	andeq	r0, r1, r0
     438:	00000055 	andeq	r0, r0, r5, asr r0
     43c:	00000000 	andeq	r0, r0, r0
     440:	0000c000 	andeq	ip, r0, r0
     444:	0000d800 	andeq	sp, r0, r0, lsl #16
     448:	30000200 	andcc	r0, r0, r0, lsl #4
     44c:	0000e49f 	muleq	r0, pc, r4	; <UNPREDICTABLE>
     450:	0000ec00 	andeq	lr, r0, r0, lsl #24
     454:	30000200 	andcc	r0, r0, r0, lsl #4
     458:	0000ec9f 	muleq	r0, pc, ip	; <UNPREDICTABLE>
     45c:	0000f800 	andeq	pc, r0, r0, lsl #16
     460:	70000600 	andvc	r0, r0, r0, lsl #12
     464:	1e007501 	cfsh32ne	mvfx7, mvfx0, #1
     468:	0000009f 	muleq	r0, pc, r0	; <UNPREDICTABLE>
     46c:	00000000 	andeq	r0, r0, r0
     470:	0000c000 	andeq	ip, r0, r0
     474:	0000d800 	andeq	sp, r0, r0, lsl #16
     478:	30000200 	andcc	r0, r0, r0, lsl #4
     47c:	0000e49f 	muleq	r0, pc, r4	; <UNPREDICTABLE>
     480:	0000f000 	andeq	pc, r0, r0
     484:	30000200 	andcc	r0, r0, r0, lsl #4
     488:	00012c9f 	muleq	r1, pc, ip	; <UNPREDICTABLE>
     48c:	00013000 	andeq	r3, r1, r0
     490:	53000100 	movwpl	r0, #256	; 0x100
     494:	00000134 	andeq	r0, r0, r4, lsr r1
     498:	00000138 	andeq	r0, r0, r8, lsr r1
     49c:	00530001 	subseq	r0, r3, r1
     4a0:	00000000 	andeq	r0, r0, r0
     4a4:	c0000000 	andgt	r0, r0, r0
     4a8:	d8000000 	stmdale	r0, {}	; <UNPREDICTABLE>
     4ac:	02000000 	andeq	r0, r0, #0
     4b0:	e49f3000 	ldr	r3, [pc], #0	; 4b8 <save_mem_status+0x30>
     4b4:	00000000 	andeq	r0, r0, r0
     4b8:	02000001 	andeq	r0, r0, #1
     4bc:	009f3000 	addseq	r3, pc, r0
     4c0:	48000001 	stmdami	r0, {r0}
     4c4:	01000001 	tsteq	r0, r1
     4c8:	00005500 	andeq	r5, r0, r0, lsl #10
     4cc:	00000000 	andeq	r0, r0, r0
     4d0:	00c00000 	sbceq	r0, r0, r0
     4d4:	00d80000 	sbcseq	r0, r8, r0
     4d8:	00020000 	andeq	r0, r2, r0
     4dc:	00e49f30 	rsceq	r9, r4, r0, lsr pc
     4e0:	01040000 	mrseq	r0, (UNDEF: 4)
     4e4:	00020000 	andeq	r0, r2, r0
     4e8:	01049f30 	tsteq	r4, r0, lsr pc
     4ec:	01080000 	mrseq	r0, (UNDEF: 8)
     4f0:	00010000 	andeq	r0, r1, r0
     4f4:	00000052 	andeq	r0, r0, r2, asr r0
     4f8:	00000000 	andeq	r0, r0, r0
     4fc:	00011000 	andeq	r1, r1, r0
     500:	00013000 	andeq	r3, r1, r0
     504:	30000200 	andcc	r0, r0, r0, lsl #4
     508:	0000009f 	muleq	r0, pc, r0	; <UNPREDICTABLE>
     50c:	00000000 	andeq	r0, r0, r0
     510:	00011000 	andeq	r1, r1, r0
     514:	00013000 	andeq	r3, r1, r0
     518:	31000200 	mrscc	r0, R8_usr
     51c:	0000009f 	muleq	r0, pc, r0	; <UNPREDICTABLE>
     520:	00000000 	andeq	r0, r0, r0
     524:	00011000 	andeq	r1, r1, r0
     528:	00011800 	andeq	r1, r1, r0, lsl #16
     52c:	47000200 	strmi	r0, [r0, -r0, lsl #4]
     530:	0001189f 	muleq	r1, pc, r8	; <UNPREDICTABLE>
     534:	00013000 	andeq	r3, r1, r0
     538:	9e000600 	cfmadd32ls	mvax0, mvfx0, mvfx0, mvfx0
     53c:	00000f04 	andeq	r0, r0, r4, lsl #30
     540:	00000080 	andeq	r0, r0, r0, lsl #1
     544:	00000000 	andeq	r0, r0, r0
     548:	00013400 	andeq	r3, r1, r0, lsl #8
     54c:	00013800 	andeq	r3, r1, r0, lsl #16
     550:	53000100 	movwpl	r0, #256	; 0x100
	...
     55c:	00000148 	andeq	r0, r0, r8, asr #2
     560:	00000150 	andeq	r0, r0, r0, asr r1
     564:	007d0002 	rsbseq	r0, sp, r2
     568:	00000150 	andeq	r0, r0, r0, asr r1
     56c:	0000017c 	andeq	r0, r0, ip, ror r1
     570:	087d0002 	ldmdaeq	sp!, {r1}^
	...
     57c:	00000148 	andeq	r0, r0, r8, asr #2
     580:	00000158 	andeq	r0, r0, r8, asr r1
     584:	58500001 	ldmdapl	r0, {r0}^
     588:	60000001 	andvs	r0, r0, r1
     58c:	01000001 	tsteq	r0, r1
     590:	01605400 	cmneq	r0, r0, lsl #8
     594:	01640000 	cmneq	r4, r0
     598:	00030000 	andeq	r0, r3, r0
     59c:	649f0a74 	ldrvs	r0, [pc], #2676	; 5a4 <show_mem_status+0x34>
     5a0:	7c000001 	stcvc	0, cr0, [r0], {1}
     5a4:	01000001 	tsteq	r0, r1
     5a8:	00005400 	andeq	r5, r0, r0, lsl #8
     5ac:	00000000 	andeq	r0, r0, r0
     5b0:	017c0000 	cmneq	ip, r0
     5b4:	01840000 	orreq	r0, r4, r0
     5b8:	00010000 	andeq	r0, r1, r0
     5bc:	00000050 	andeq	r0, r0, r0, asr r0
     5c0:	00000000 	andeq	r0, r0, r0
     5c4:	00017c00 	andeq	r7, r1, r0, lsl #24
     5c8:	00018800 	andeq	r8, r1, r0, lsl #16
     5cc:	31000200 	mrscc	r0, R8_usr
     5d0:	0001889f 	muleq	r1, pc, r8	; <UNPREDICTABLE>
     5d4:	00019000 	andeq	r9, r1, r0
     5d8:	50000100 	andpl	r0, r0, r0, lsl #2
     5dc:	00000190 	muleq	r0, r0, r1
     5e0:	00000194 	muleq	r0, r4, r1
     5e4:	00700005 	rsbseq	r0, r0, r5
     5e8:	949f2140 	ldrls	r2, [pc], #320	; 5f0 <save_mem_status_nommu+0x8>
     5ec:	98000001 	stmdals	r0, {r0}
     5f0:	01000001 	tsteq	r0, r1
     5f4:	01985000 	orrseq	r5, r8, r0
     5f8:	01a80000 			; <UNDEFINED> instruction: 0x01a80000
     5fc:	00060000 	andeq	r0, r6, r0
     600:	000f049e 	muleq	pc, lr, r4	; <UNPREDICTABLE>
     604:	00008000 	andeq	r8, r0, r0
     608:	00000000 	andeq	r0, r0, r0
     60c:	01a80000 			; <UNDEFINED> instruction: 0x01a80000
     610:	01b80000 			; <UNDEFINED> instruction: 0x01b80000
     614:	00020000 	andeq	r0, r2, r0
     618:	00009f30 	andeq	r9, r0, r0, lsr pc
     61c:	00000000 	andeq	r0, r0, r0
     620:	01d40000 	bicseq	r0, r4, r0
     624:	01d80000 	bicseq	r0, r8, r0
     628:	00010000 	andeq	r0, r1, r0
     62c:	0001d850 	andeq	sp, r1, r0, asr r8
     630:	00020000 	andeq	r0, r2, r0
     634:	70000300 	andvc	r0, r0, r0, lsl #6
     638:	00009f02 	andeq	r9, r0, r2, lsl #30
     63c:	00000000 	andeq	r0, r0, r0
     640:	01d40000 	bicseq	r0, r4, r0
     644:	01e80000 	mvneq	r0, r0
     648:	00020000 	andeq	r0, r2, r0
     64c:	01e89f30 	mvneq	r9, r0, lsr pc
     650:	02000000 	andeq	r0, r0, #0
     654:	00010000 	andeq	r0, r1, r0
     658:	00000053 	andeq	r0, r0, r3, asr r0
     65c:	00000000 	andeq	r0, r0, r0
     660:	0001d400 	andeq	sp, r1, r0, lsl #8
     664:	0001f000 	andeq	pc, r1, r0
     668:	30000200 	andcc	r0, r0, r0, lsl #4
     66c:	0001f09f 	muleq	r1, pc, r0	; <UNPREDICTABLE>
     670:	00020000 	andeq	r0, r2, r0
     674:	50000100 	andpl	r0, r0, r0, lsl #2
	...
     680:	000006d4 	ldrdeq	r0, [r0], -r4
     684:	000006d8 	ldrdeq	r0, [r0], -r8
     688:	00720006 	rsbseq	r0, r2, r6
     68c:	9f1afc09 	svcls	0x001afc09
     690:	000006d8 	ldrdeq	r0, [r0], -r8
     694:	000006e0 	andeq	r0, r0, r0, ror #13
     698:	00520001 	subseq	r0, r2, r1
     69c:	00000000 	andeq	r0, r0, r0
     6a0:	a0000000 	andge	r0, r0, r0
     6a4:	a4000007 	strge	r0, [r0], #-7
     6a8:	02000007 	andeq	r0, r0, #7
     6ac:	a49f3000 	ldrge	r3, [pc], #0	; 6b4 <io_init_low+0x8>
     6b0:	b0000007 	andlt	r0, r0, r7
     6b4:	01000007 	tsteq	r0, r7
     6b8:	00005300 	andeq	r5, r0, r0, lsl #6
	...
     6c4:	00040000 	andeq	r0, r4, r0
     6c8:	00020000 	andeq	r0, r2, r0
     6cc:	0004007d 	andeq	r0, r4, sp, ror r0
     6d0:	00a80000 	adceq	r0, r8, r0
     6d4:	00020000 	andeq	r0, r2, r0
     6d8:	0000107d 	andeq	r1, r0, sp, ror r0
	...
     6e4:	000f0000 	andeq	r0, pc, r0
     6e8:	00010000 	andeq	r0, r1, r0
     6ec:	00000f50 	andeq	r0, r0, r0, asr pc
     6f0:	0000a800 	andeq	sl, r0, r0, lsl #16
     6f4:	54000100 	strpl	r0, [r0], #-256	; 0x100
	...
     704:	0000000f 	andeq	r0, r0, pc
     708:	0f510001 	svceq	0x00510001
     70c:	a8000000 	stmdage	r0, {}	; <UNPREDICTABLE>
     710:	01000000 	mrseq	r0, (UNDEF: 0)
     714:	00005500 	andeq	r5, r0, r0, lsl #10
	...
     720:	00480000 	subeq	r0, r8, r0
     724:	00020000 	andeq	r0, r2, r0
     728:	00489f30 	subeq	r9, r8, r0, lsr pc
     72c:	007c0000 	rsbseq	r0, ip, r0
     730:	00010000 	andeq	r0, r1, r0
     734:	00007c53 	andeq	r7, r0, r3, asr ip
     738:	00009c00 	andeq	r9, r0, r0, lsl #24
     73c:	30000200 	andcc	r0, r0, r0, lsl #4
     740:	0000a09f 	muleq	r0, pc, r0	; <UNPREDICTABLE>
     744:	0000a800 	andeq	sl, r0, r0, lsl #16
     748:	9e000600 	cfmadd32ls	mvax0, mvfx0, mvfx0, mvfx0
     74c:	c208b404 	andgt	fp, r8, #67108864	; 0x4000000
     750:	000000f1 	strdeq	r0, [r0], -r1
	...
     75c:	00004800 	andeq	r4, r0, r0, lsl #16
     760:	30000200 	andcc	r0, r0, r0, lsl #4
     764:	00007c9f 	muleq	r0, pc, ip	; <UNPREDICTABLE>
     768:	0000a800 	andeq	sl, r0, r0, lsl #16
     76c:	30000200 	andcc	r0, r0, r0, lsl #4
     770:	0000009f 	muleq	r0, pc, r0	; <UNPREDICTABLE>
	...
     77c:	00004800 	andeq	r4, r0, r0, lsl #16
     780:	30000200 	andcc	r0, r0, r0, lsl #4
     784:	0000489f 	muleq	r0, pc, r8	; <UNPREDICTABLE>
     788:	00006c00 	andeq	r6, r0, r0, lsl #24
     78c:	52000100 	andpl	r0, r0, #0
     790:	0000007c 	andeq	r0, r0, ip, ror r0
     794:	000000a8 	andeq	r0, r0, r8, lsr #1
     798:	9f300002 	svcls	0x00300002
	...
     7a4:	000000a8 	andeq	r0, r0, r8, lsr #1
     7a8:	000000ac 	andeq	r0, r0, ip, lsr #1
     7ac:	007d0002 	rsbseq	r0, sp, r2
     7b0:	000000ac 	andeq	r0, r0, ip, lsr #1
     7b4:	00000154 	andeq	r0, r0, r4, asr r1
     7b8:	107d0002 	rsbsne	r0, sp, r2
	...
     7c4:	000000a8 	andeq	r0, r0, r8, lsr #1
     7c8:	000000b3 	strheq	r0, [r0], -r3
     7cc:	b3500001 	cmplt	r0, #1
     7d0:	e8000000 	stmda	r0, {}	; <UNPREDICTABLE>
     7d4:	01000000 	mrseq	r0, (UNDEF: 0)
     7d8:	00005400 	andeq	r5, r0, r0, lsl #8
     7dc:	00000000 	andeq	r0, r0, r0
     7e0:	00a80000 	adceq	r0, r8, r0
     7e4:	00cc0000 	sbceq	r0, ip, r0
     7e8:	00020000 	andeq	r0, r2, r0
     7ec:	00cc9f30 	sbceq	r9, ip, r0, lsr pc
     7f0:	00df0000 	sbcseq	r0, pc, r0
     7f4:	00010000 	andeq	r0, r1, r0
     7f8:	00000050 	andeq	r0, r0, r0, asr r0
     7fc:	00000000 	andeq	r0, r0, r0
     800:	0000a800 	andeq	sl, r0, r0, lsl #16
     804:	0000fc00 	andeq	pc, r0, r0, lsl #24
     808:	30000200 	andcc	r0, r0, r0, lsl #4
     80c:	0000fc9f 	muleq	r0, pc, ip	; <UNPREDICTABLE>
     810:	00012300 	andeq	r2, r1, r0, lsl #6
     814:	50000100 	andpl	r0, r0, r0, lsl #2
     818:	00000123 	andeq	r0, r0, r3, lsr #2
     81c:	00000154 	andeq	r0, r0, r4, asr r1
     820:	00550001 	subseq	r0, r5, r1
     824:	00000000 	andeq	r0, r0, r0
     828:	a8000000 	stmdage	r0, {}	; <UNPREDICTABLE>
     82c:	08000000 	stmdaeq	r0, {}	; <UNPREDICTABLE>
     830:	02000001 	andeq	r0, r0, #1
     834:	089f3000 	ldmeq	pc, {ip, sp}	; <UNPREDICTABLE>
     838:	2c000001 	stccs	0, cr0, [r0], {1}
     83c:	06000001 	streq	r0, [r0], -r1
     840:	02d80c00 	sbcseq	r0, r8, #0
     844:	2c9f01c2 	ldfcss	f0, [pc], {194}	; 0xc2
     848:	54000001 	strpl	r0, [r0], #-1
     84c:	06000001 	streq	r0, [r0], -r1
     850:	006c0c00 	rsbeq	r0, ip, r0, lsl #24
     854:	009f01c2 	addseq	r0, pc, r2, asr #3
     858:	00000000 	andeq	r0, r0, r0
     85c:	a8000000 	stmdage	r0, {}	; <UNPREDICTABLE>
     860:	b4000000 	strlt	r0, [r0], #-0
     864:	02000000 	andeq	r0, r0, #0
     868:	b49f3000 	ldrlt	r3, [pc], #0	; 870 <delay_ms+0x30>
     86c:	c8000000 	stmdagt	r0, {}	; <UNPREDICTABLE>
     870:	01000000 	mrseq	r0, (UNDEF: 0)
     874:	00005000 	andeq	r5, r0, r0
     878:	00000000 	andeq	r0, r0, r0
     87c:	00b80000 	adcseq	r0, r8, r0
     880:	00d80000 	sbcseq	r0, r8, r0
     884:	00010000 	andeq	r0, r1, r0
     888:	00000053 	andeq	r0, r0, r3, asr r0
     88c:	00000000 	andeq	r0, r0, r0
     890:	00019400 	andeq	r9, r1, r0, lsl #8
     894:	00019800 	andeq	r9, r1, r0, lsl #16
     898:	7d000200 	sfmvc	f0, 4, [r0, #-0]
     89c:	00019800 	andeq	r9, r1, r0, lsl #16
     8a0:	00021800 	andeq	r1, r2, r0, lsl #16
     8a4:	7d000200 	sfmvc	f0, 4, [r0, #-0]
     8a8:	00000010 	andeq	r0, r0, r0, lsl r0
     8ac:	00000000 	andeq	r0, r0, r0
     8b0:	00019400 	andeq	r9, r1, r0, lsl #8
     8b4:	0001a000 	andeq	sl, r1, r0
     8b8:	50000100 	andpl	r0, r0, r0, lsl #2
     8bc:	000001a0 	andeq	r0, r0, r0, lsr #3
     8c0:	000001a3 	andeq	r0, r0, r3, lsr #3
     8c4:	00510001 	subseq	r0, r1, r1
     8c8:	00000000 	andeq	r0, r0, r0
     8cc:	94000000 	strls	r0, [r0], #-0
     8d0:	c0000001 	andgt	r0, r0, r1
     8d4:	02000001 	andeq	r0, r0, #1
     8d8:	c09f3000 	addsgt	r3, pc, r0
     8dc:	e8000001 	stmda	r0, {r0}
     8e0:	05000001 	streq	r0, [r0, #-1]
     8e4:	44007300 	strmi	r7, [r0], #-768	; 0x300
     8e8:	00009f25 	andeq	r9, r0, r5, lsr #30
     8ec:	00000000 	andeq	r0, r0, r0
     8f0:	01940000 	orrseq	r0, r4, r0
     8f4:	01c80000 	biceq	r0, r8, r0
     8f8:	00020000 	andeq	r0, r2, r0
     8fc:	01c89f30 	biceq	r9, r8, r0, lsr pc
     900:	01e00000 	mvneq	r0, r0
     904:	00010000 	andeq	r0, r1, r0
     908:	00000050 	andeq	r0, r0, r0, asr r0
     90c:	00000000 	andeq	r0, r0, r0
     910:	00019400 	andeq	r9, r1, r0, lsl #8
     914:	0001ac00 	andeq	sl, r1, r0, lsl #24
     918:	30000200 	andcc	r0, r0, r0, lsl #4
     91c:	0001ac9f 	muleq	r1, pc, ip	; <UNPREDICTABLE>
     920:	0001b400 	andeq	fp, r1, r0, lsl #8
     924:	50000100 	andpl	r0, r0, r0, lsl #2
     928:	000001b4 			; <UNDEFINED> instruction: 0x000001b4
     92c:	000001c8 	andeq	r0, r0, r8, asr #3
     930:	80700005 	rsbshi	r0, r0, r5
     934:	009f47e0 	addseq	r4, pc, r0, ror #15
     938:	00000000 	andeq	r0, r0, r0
     93c:	18000000 	stmdane	r0, {}	; <UNPREDICTABLE>
     940:	20000002 	andcs	r0, r0, r2
     944:	02000002 	andeq	r0, r0, #2
     948:	20007d00 	andcs	r7, r0, r0, lsl #26
     94c:	c8000002 	stmdagt	r0, {r1}
     950:	02000002 	andeq	r0, r0, #2
     954:	00047d00 	andeq	r7, r4, r0, lsl #26
     958:	00000000 	andeq	r0, r0, r0
     95c:	18000000 	stmdane	r0, {}	; <UNPREDICTABLE>
     960:	2c000002 	stccs	0, cr0, [r0], {2}
     964:	01000002 	tsteq	r0, r2
     968:	02305000 	eorseq	r5, r0, #0
     96c:	02440000 	subeq	r0, r4, #0
     970:	00010000 	andeq	r0, r1, r0
     974:	00024450 	andeq	r4, r2, r0, asr r4
     978:	00024c00 	andeq	r4, r2, r0, lsl #24
     97c:	70000300 	andvc	r0, r0, r0, lsl #6
     980:	00009f01 	andeq	r9, r0, r1, lsl #30
     984:	00000000 	andeq	r0, r0, r0
     988:	02580000 	subseq	r0, r8, #0
     98c:	028c0000 	addeq	r0, ip, #0
     990:	00010000 	andeq	r0, r1, r0
     994:	0000005c 	andeq	r0, r0, ip, asr r0
     998:	00000000 	andeq	r0, r0, r0
     99c:	0002c800 	andeq	ip, r2, r0, lsl #16
     9a0:	0002d000 	andeq	sp, r2, r0
     9a4:	7d000200 	sfmvc	f0, 4, [r0, #-0]
     9a8:	0002d000 	andeq	sp, r2, r0
     9ac:	00035400 	andeq	r5, r3, r0, lsl #8
     9b0:	7d000200 	sfmvc	f0, 4, [r0, #-0]
     9b4:	00000004 	andeq	r0, r0, r4
     9b8:	00000000 	andeq	r0, r0, r0
     9bc:	0002c800 	andeq	ip, r2, r0, lsl #16
     9c0:	0002dc00 	andeq	sp, r2, r0, lsl #24
     9c4:	50000100 	andpl	r0, r0, r0, lsl #2
	...
     9d0:	000002c8 	andeq	r0, r0, r8, asr #5
     9d4:	000002e0 	andeq	r0, r0, r0, ror #5
     9d8:	9f300002 	svcls	0x00300002
     9dc:	000002e8 	andeq	r0, r0, r8, ror #5
     9e0:	00000300 	andeq	r0, r0, r0, lsl #6
     9e4:	9f300002 	svcls	0x00300002
     9e8:	00000344 	andeq	r0, r0, r4, asr #6
     9ec:	00000354 	andeq	r0, r0, r4, asr r3
     9f0:	00540001 	subseq	r0, r4, r1
     9f4:	00000000 	andeq	r0, r0, r0
     9f8:	c8000000 	stmdagt	r0, {}	; <UNPREDICTABLE>
     9fc:	e0000002 	and	r0, r0, r2
     a00:	02000002 	andeq	r0, r0, #2
     a04:	e89f3000 	ldm	pc, {ip, sp}	; <UNPREDICTABLE>
     a08:	00000002 	andeq	r0, r0, r2
     a0c:	02000003 	andeq	r0, r0, #3
     a10:	009f3000 	addseq	r3, pc, r0
     a14:	00000000 	andeq	r0, r0, r0
     a18:	08000000 	stmdaeq	r0, {}	; <UNPREDICTABLE>
     a1c:	0c000003 	stceq	0, cr0, [r0], {3}
     a20:	01000003 	tsteq	r0, r3
     a24:	030c5300 	movweq	r5, #49920	; 0xc300
     a28:	03100000 	tsteq	r0, #0
     a2c:	00030000 	andeq	r0, r3, r0
     a30:	109f0173 	addsne	r0, pc, r3, ror r1	; <UNPREDICTABLE>
     a34:	24000003 	strcs	r0, [r0], #-3
     a38:	01000003 	tsteq	r0, r3
     a3c:	00005300 	andeq	r5, r0, r0, lsl #6
     a40:	00000000 	andeq	r0, r0, r0
     a44:	037c0000 	cmneq	ip, #0
     a48:	03800000 	orreq	r0, r0, #0
     a4c:	00020000 	andeq	r0, r2, r0
     a50:	0380007d 	orreq	r0, r0, #125	; 0x7d
     a54:	04080000 	streq	r0, [r8], #-0
     a58:	00020000 	andeq	r0, r2, r0
     a5c:	0000107d 	andeq	r1, r0, sp, ror r0
     a60:	00000000 	andeq	r0, r0, r0
     a64:	037c0000 	cmneq	ip, #0
     a68:	03940000 	orrseq	r0, r4, #0
     a6c:	00010000 	andeq	r0, r1, r0
     a70:	00039450 	andeq	r9, r3, r0, asr r4
     a74:	00039b00 	andeq	r9, r3, r0, lsl #22
     a78:	51000100 	mrspl	r0, (UNDEF: 16)
	...
     a84:	0000037c 	andeq	r0, r0, ip, ror r3
     a88:	000003a4 	andeq	r0, r0, r4, lsr #7
     a8c:	9f300002 	svcls	0x00300002
     a90:	000003a4 	andeq	r0, r0, r4, lsr #7
     a94:	000003ac 	andeq	r0, r0, ip, lsr #7
     a98:	ac500001 	mrrcge	0, 0, r0, r0, cr1	; <UNPREDICTABLE>
     a9c:	c0000003 	andgt	r0, r0, r3
     aa0:	05000003 	streq	r0, [r0, #-3]
     aa4:	e0807000 	add	r7, r0, r0
     aa8:	00009f47 	andeq	r9, r0, r7, asr #30
     aac:	00000000 	andeq	r0, r0, r0
     ab0:	037c0000 	cmneq	ip, #0
     ab4:	03b80000 			; <UNDEFINED> instruction: 0x03b80000
     ab8:	00020000 	andeq	r0, r2, r0
     abc:	03b89f30 			; <UNDEFINED> instruction: 0x03b89f30
     ac0:	03d80000 	bicseq	r0, r8, #0
     ac4:	00050000 	andeq	r0, r5, r0
     ac8:	25440073 	strbcs	r0, [r4, #-115]	; 0x73
     acc:	0000009f 	muleq	r0, pc, r0	; <UNPREDICTABLE>
     ad0:	00000000 	andeq	r0, r0, r0
     ad4:	00037c00 	andeq	r7, r3, r0, lsl #24
     ad8:	0003c000 	andeq	ip, r3, r0
     adc:	30000200 	andcc	r0, r0, r0, lsl #4
     ae0:	0003c09f 	muleq	r3, pc, r0	; <UNPREDICTABLE>
     ae4:	0003d000 	andeq	sp, r3, r0
     ae8:	50000100 	andpl	r0, r0, r0, lsl #2
	...
     af4:	00000408 	andeq	r0, r0, r8, lsl #8
     af8:	00000410 	andeq	r0, r0, r0, lsl r4
     afc:	007d0002 	rsbseq	r0, sp, r2
     b00:	00000410 	andeq	r0, r0, r0, lsl r4
     b04:	000004b8 			; <UNDEFINED> instruction: 0x000004b8
     b08:	047d0002 	ldrbteq	r0, [sp], #-2
	...
     b14:	00000408 	andeq	r0, r0, r8, lsl #8
     b18:	0000041c 	andeq	r0, r0, ip, lsl r4
     b1c:	20500001 	subscs	r0, r0, r1
     b20:	34000004 	strcc	r0, [r0], #-4
     b24:	01000004 	tsteq	r0, r4
     b28:	04345000 	ldrteq	r5, [r4], #-0
     b2c:	043c0000 	ldrteq	r0, [ip], #-0
     b30:	00030000 	andeq	r0, r3, r0
     b34:	009f0170 	addseq	r0, pc, r0, ror r1	; <UNPREDICTABLE>
     b38:	00000000 	andeq	r0, r0, r0
     b3c:	48000000 	stmdami	r0, {}	; <UNPREDICTABLE>
     b40:	7c000004 	stcvc	0, cr0, [r0], {4}
     b44:	01000004 	tsteq	r0, r4
     b48:	00005c00 	andeq	r5, r0, r0, lsl #24
     b4c:	00000000 	andeq	r0, r0, r0
     b50:	04b80000 	ldrteq	r0, [r8], #0
     b54:	04c00000 	strbeq	r0, [r0], #0
     b58:	00020000 	andeq	r0, r2, r0
     b5c:	04c0007d 	strbeq	r0, [r0], #125	; 0x7d
     b60:	05440000 	strbeq	r0, [r4, #-0]
     b64:	00020000 	andeq	r0, r2, r0
     b68:	0000047d 	andeq	r0, r0, sp, ror r4
     b6c:	00000000 	andeq	r0, r0, r0
     b70:	04b80000 	ldrteq	r0, [r8], #0
     b74:	04cc0000 	strbeq	r0, [ip], #0
     b78:	00010000 	andeq	r0, r1, r0
     b7c:	00000050 	andeq	r0, r0, r0, asr r0
     b80:	00000000 	andeq	r0, r0, r0
     b84:	0004b800 	andeq	fp, r4, r0, lsl #16
     b88:	0004d000 	andeq	sp, r4, r0
     b8c:	30000200 	andcc	r0, r0, r0, lsl #4
     b90:	0004d89f 	muleq	r4, pc, r8	; <UNPREDICTABLE>
     b94:	0004f000 	andeq	pc, r4, r0
     b98:	30000200 	andcc	r0, r0, r0, lsl #4
     b9c:	0005349f 	muleq	r5, pc, r4	; <UNPREDICTABLE>
     ba0:	00054400 	andeq	r4, r5, r0, lsl #8
     ba4:	54000100 	strpl	r0, [r0], #-256	; 0x100
	...
     bb0:	000004b8 			; <UNDEFINED> instruction: 0x000004b8
     bb4:	000004d0 	ldrdeq	r0, [r0], -r0	; <UNPREDICTABLE>
     bb8:	9f300002 	svcls	0x00300002
     bbc:	000004d8 	ldrdeq	r0, [r0], -r8
     bc0:	000004f0 	strdeq	r0, [r0], -r0	; <UNPREDICTABLE>
     bc4:	9f300002 	svcls	0x00300002
	...
     bd0:	000004f8 	strdeq	r0, [r0], -r8
     bd4:	000004fc 	strdeq	r0, [r0], -ip
     bd8:	fc530001 	mrrc2	0, 0, r0, r3, cr1
     bdc:	00000004 	andeq	r0, r0, r4
     be0:	03000005 	movweq	r0, #5
     be4:	9f017300 	svcls	0x00017300
     be8:	00000500 	andeq	r0, r0, r0, lsl #10
     bec:	00000514 	andeq	r0, r0, r4, lsl r5
     bf0:	00530001 	subseq	r0, r3, r1
	...
     bfc:	04000000 	streq	r0, [r0], #-0
     c00:	02000000 	andeq	r0, r0, #0
     c04:	04007d00 	streq	r7, [r0], #-3328	; 0xd00
     c08:	1c000000 	stcne	0, cr0, [r0], {-0}
     c0c:	02000000 	andeq	r0, r0, #0
     c10:	1c1c7d00 	ldcne	13, cr7, [ip], {-0}
     c14:	bc000000 	stclt	0, cr0, [r0], {-0}
     c18:	03000000 	movweq	r0, #0
     c1c:	00c87d00 	sbceq	r7, r8, r0, lsl #26
	...
     c2c:	0000002c 	andeq	r0, r0, ip, lsr #32
     c30:	2c500001 	mrrccs	0, 0, r0, r0, cr1	; <UNPREDICTABLE>
     c34:	4c000000 	stcmi	0, cr0, [r0], {-0}
     c38:	01000000 	mrseq	r0, (UNDEF: 0)
     c3c:	004c5400 	subeq	r5, ip, r0, lsl #8
     c40:	00500000 	subseq	r0, r0, r0
     c44:	00010000 	andeq	r0, r1, r0
     c48:	00007850 	andeq	r7, r0, r0, asr r8
     c4c:	0000ac00 	andeq	sl, r0, r0, lsl #24
     c50:	50000100 	andpl	r0, r0, r0, lsl #2
	...
     c60:	0000002c 	andeq	r0, r0, ip, lsr #32
     c64:	2c510001 	mrrccs	0, 0, r0, r1, cr1
     c68:	bc000000 	stclt	0, cr0, [r0], {-0}
     c6c:	01000000 	mrseq	r0, (UNDEF: 0)
     c70:	00005700 	andeq	r5, r0, r0, lsl #14
	...
     c7c:	002c0000 	eoreq	r0, ip, r0
     c80:	00010000 	andeq	r0, r1, r0
     c84:	00002c52 	andeq	r2, r0, r2, asr ip
     c88:	0000bc00 	andeq	fp, r0, r0, lsl #24
     c8c:	55000100 	strpl	r0, [r0, #-256]	; 0x100
	...
     c98:	0000004c 	andeq	r0, r0, ip, asr #32
     c9c:	00000050 	andeq	r0, r0, r0, asr r0
     ca0:	80530001 	subshi	r0, r3, r1
     ca4:	84000000 	strhi	r0, [r0], #-0
     ca8:	01000000 	mrseq	r0, (UNDEF: 0)
     cac:	00845300 	addeq	r5, r4, r0, lsl #6
     cb0:	00900000 	addseq	r0, r0, r0
     cb4:	00010000 	andeq	r0, r1, r0
     cb8:	00000058 	andeq	r0, r0, r8, asr r0
     cbc:	00000000 	andeq	r0, r0, r0
     cc0:	00008400 	andeq	r8, r0, r0, lsl #8
     cc4:	00009000 	andeq	r9, r0, r0
     cc8:	30000200 	andcc	r0, r0, r0, lsl #4
     ccc:	0000009f 	muleq	r0, pc, r0	; <UNPREDICTABLE>
     cd0:	00000000 	andeq	r0, r0, r0
     cd4:	0000bc00 	andeq	fp, r0, r0, lsl #24
     cd8:	0000c000 	andeq	ip, r0, r0
     cdc:	7d000200 	sfmvc	f0, 4, [r0, #-0]
     ce0:	0000c000 	andeq	ip, r0, r0
     ce4:	0000d800 	andeq	sp, r0, r0, lsl #16
     ce8:	7d000200 	sfmvc	f0, 4, [r0, #-0]
     cec:	0000d810 	andeq	sp, r0, r0, lsl r8
     cf0:	00016400 	andeq	r6, r1, r0, lsl #8
     cf4:	7d000200 	sfmvc	f0, 4, [r0, #-0]
     cf8:	00000028 	andeq	r0, r0, r8, lsr #32
     cfc:	00000000 	andeq	r0, r0, r0
     d00:	0000bc00 	andeq	fp, r0, r0, lsl #24
     d04:	0000e000 	andeq	lr, r0, r0
     d08:	50000100 	andpl	r0, r0, r0, lsl #2
     d0c:	000000e0 	andeq	r0, r0, r0, ror #1
     d10:	00000114 	andeq	r0, r0, r4, lsl r1
     d14:	00550001 	subseq	r0, r5, r1
     d18:	00000000 	andeq	r0, r0, r0
     d1c:	bc000000 	stclt	0, cr0, [r0], {-0}
     d20:	e0000000 	and	r0, r0, r0
     d24:	01000000 	mrseq	r0, (UNDEF: 0)
     d28:	00e05100 	rsceq	r5, r0, r0, lsl #2
     d2c:	01640000 	cmneq	r4, r0
     d30:	00010000 	andeq	r0, r1, r0
     d34:	00000057 	andeq	r0, r0, r7, asr r0
     d38:	00000000 	andeq	r0, r0, r0
     d3c:	0000bc00 	andeq	fp, r0, r0, lsl #24
     d40:	0000e000 	andeq	lr, r0, r0
     d44:	52000100 	andpl	r0, r0, #0
     d48:	000000e0 	andeq	r0, r0, r0, ror #1
     d4c:	00000164 	andeq	r0, r0, r4, ror #2
     d50:	00560001 	subseq	r0, r6, r1
	...
     d5c:	30000001 	andcc	r0, r0, r1
     d60:	01000001 	tsteq	r0, r1
     d64:	01305000 	teqeq	r0, r0
     d68:	01480000 	mrseq	r0, (UNDEF: 72)
     d6c:	00010000 	andeq	r0, r1, r0
     d70:	00014851 	andeq	r4, r1, r1, asr r8
     d74:	00014c00 	andeq	r4, r1, r0, lsl #24
     d78:	71000300 	mrsvc	r0, LR_irq
     d7c:	014c9f7f 	hvceq	51711	; 0xc9ff
     d80:	01540000 	cmpeq	r4, r0
     d84:	00010000 	andeq	r0, r1, r0
     d88:	00000051 	andeq	r0, r0, r1, asr r0
     d8c:	00000000 	andeq	r0, r0, r0
     d90:	00010000 	andeq	r0, r1, r0
     d94:	00012c00 	andeq	r2, r1, r0, lsl #24
     d98:	7c000300 	stcvc	3, cr0, [r0], {-0}
     d9c:	012c9f70 	teqeq	ip, r0, ror pc
     da0:	01300000 	teqeq	r0, r0
     da4:	00030000 	andeq	r0, r3, r0
     da8:	009f5491 	umullseq	r5, pc, r1, r4	; <UNPREDICTABLE>
	...
     db4:	14000001 	strne	r0, [r0], #-1
     db8:	01000001 	tsteq	r0, r1
     dbc:	01145500 	tsteq	r4, r0, lsl #10
     dc0:	01180000 	tsteq	r8, r0
     dc4:	00010000 	andeq	r0, r1, r0
     dc8:	00011853 	andeq	r1, r1, r3, asr r8
     dcc:	00012000 	andeq	r2, r1, r0
     dd0:	55000100 	strpl	r0, [r0, #-256]	; 0x100
     dd4:	00000120 	andeq	r0, r0, r0, lsr #2
     dd8:	00000128 	andeq	r0, r0, r8, lsr #2
     ddc:	28530001 	ldmdacs	r3, {r0}^
     de0:	30000001 	andcc	r0, r0, r1
     de4:	01000001 	tsteq	r0, r1
     de8:	01305500 	teqeq	r0, r0, lsl #10
     dec:	01340000 	teqeq	r4, r0
     df0:	00010000 	andeq	r0, r1, r0
     df4:	00013453 	andeq	r3, r1, r3, asr r4
     df8:	00014400 	andeq	r4, r1, r0, lsl #8
     dfc:	55000100 	strpl	r0, [r0, #-256]	; 0x100
     e00:	00000144 	andeq	r0, r0, r4, asr #2
     e04:	00000154 	andeq	r0, r0, r4, asr r1
     e08:	00530001 	subseq	r0, r3, r1
	...
     e14:	14000001 	strne	r0, [r0], #-1
     e18:	01000001 	tsteq	r0, r1
     e1c:	00005500 	andeq	r5, r0, r0, lsl #10
     e20:	00000000 	andeq	r0, r0, r0
     e24:	01640000 	cmneq	r4, r0
     e28:	01680000 	cmneq	r8, r0
     e2c:	00020000 	andeq	r0, r2, r0
     e30:	0168007d 	smceq	32781	; 0x800d
     e34:	017c0000 	cmneq	ip, r0
     e38:	00020000 	andeq	r0, r2, r0
     e3c:	017c147d 	cmneq	ip, sp, ror r4
     e40:	024c0000 	subeq	r0, ip, #0
     e44:	00030000 	andeq	r0, r3, r0
     e48:	0000c07d 	andeq	ip, r0, sp, ror r0
     e4c:	00000000 	andeq	r0, r0, r0
     e50:	64000000 	strvs	r0, [r0], #-0
     e54:	84000001 	strhi	r0, [r0], #-1
     e58:	01000001 	tsteq	r0, r1
     e5c:	01845000 	orreq	r5, r4, r0
     e60:	01d80000 	bicseq	r0, r8, r0
     e64:	00010000 	andeq	r0, r1, r0
     e68:	0001d85c 	andeq	sp, r1, ip, asr r8
     e6c:	0001e800 	andeq	lr, r1, r0, lsl #16
     e70:	52000100 	andpl	r0, r0, #0
     e74:	000001e8 	andeq	r0, r0, r8, ror #3
     e78:	000001fc 	strdeq	r0, [r0], -ip
     e7c:	005c0001 	subseq	r0, ip, r1
     e80:	00000000 	andeq	r0, r0, r0
     e84:	64000000 	strvs	r0, [r0], #-0
     e88:	84000001 	strhi	r0, [r0], #-1
     e8c:	01000001 	tsteq	r0, r1
     e90:	01845100 	orreq	r5, r4, r0, lsl #2
     e94:	024c0000 	subeq	r0, ip, #0
     e98:	00010000 	andeq	r0, r1, r0
     e9c:	00000056 	andeq	r0, r0, r6, asr r0
     ea0:	00000000 	andeq	r0, r0, r0
     ea4:	00016400 	andeq	r6, r1, r0, lsl #8
     ea8:	0001a000 	andeq	sl, r1, r0
     eac:	30000200 	andcc	r0, r0, r0, lsl #4
     eb0:	0001a09f 	muleq	r1, pc, r0	; <UNPREDICTABLE>
     eb4:	0001b000 	andeq	fp, r1, r0
     eb8:	31000200 	mrscc	r0, R8_usr
     ebc:	0001b09f 	muleq	r1, pc, r0	; <UNPREDICTABLE>
     ec0:	00020400 	andeq	r0, r2, r0, lsl #8
     ec4:	57000100 	strpl	r0, [r0, -r0, lsl #2]
	...
     ed0:	000001b0 			; <UNDEFINED> instruction: 0x000001b0
     ed4:	000001c0 	andeq	r0, r0, r0, asr #3
     ed8:	9f300002 	svcls	0x00300002
     edc:	000001c0 	andeq	r0, r0, r0, asr #3
     ee0:	000001c4 	andeq	r0, r0, r4, asr #3
     ee4:	d8540001 	ldmdale	r4, {r0}^
     ee8:	08000001 	stmdaeq	r0, {r0}
     eec:	01000002 	tsteq	r0, r2
     ef0:	02085400 	andeq	r5, r8, #0
     ef4:	02300000 	eorseq	r0, r0, #0
     ef8:	00010000 	andeq	r0, r1, r0
     efc:	00000053 	andeq	r0, r0, r3, asr r0
     f00:	00000000 	andeq	r0, r0, r0
     f04:	0001fc00 	andeq	pc, r1, r0, lsl #24
     f08:	00020800 	andeq	r0, r2, r0, lsl #16
     f0c:	30000200 	andcc	r0, r0, r0, lsl #4
     f10:	0002089f 	muleq	r2, pc, r8	; <UNPREDICTABLE>
     f14:	00021400 	andeq	r1, r2, r0, lsl #8
     f18:	57000100 	strpl	r0, [r0, -r0, lsl #2]
	...
     f24:	0000024c 	andeq	r0, r0, ip, asr #4
     f28:	00000250 	andeq	r0, r0, r0, asr r2
     f2c:	007d0002 	rsbseq	r0, sp, r2
     f30:	00000250 	andeq	r0, r0, r0, asr r2
     f34:	00000254 	andeq	r0, r0, r4, asr r2
     f38:	107d0002 	rsbsne	r0, sp, r2
     f3c:	00000254 	andeq	r0, r0, r4, asr r2
     f40:	00000258 	andeq	r0, r0, r8, asr r2
     f44:	307d0002 	rsbscc	r0, sp, r2
     f48:	00000258 	andeq	r0, r0, r8, asr r2
     f4c:	0000051c 	andeq	r0, r0, ip, lsl r5
     f50:	c87d0003 	ldmdagt	sp!, {r0, r1}^
	...
     f5c:	00024c00 	andeq	r4, r2, r0, lsl #24
     f60:	00026400 	andeq	r6, r2, r0, lsl #8
     f64:	91000200 	mrsls	r0, R8_usr
     f68:	00026470 	andeq	r6, r2, r0, ror r4
     f6c:	00028800 	andeq	r8, r2, r0, lsl #16
     f70:	91000200 	mrsls	r0, R8_usr
     f74:	00028848 	andeq	r8, r2, r8, asr #16
     f78:	0002a400 	andeq	sl, r2, r0, lsl #8
     f7c:	54000100 	strpl	r0, [r0], #-256	; 0x100
     f80:	000002a4 	andeq	r0, r0, r4, lsr #5
     f84:	000002bc 			; <UNDEFINED> instruction: 0x000002bc
     f88:	01740003 	cmneq	r4, r3
     f8c:	0002c49f 	muleq	r2, pc, r4	; <UNPREDICTABLE>
     f90:	00051c00 	andeq	r1, r5, r0, lsl #24
     f94:	54000100 	strpl	r0, [r0], #-256	; 0x100
	...
     fa0:	0000024c 	andeq	r0, r0, ip, asr #4
     fa4:	00000288 	andeq	r0, r0, r8, lsl #5
     fa8:	80030006 	andhi	r0, r3, r6
     fac:	9f000032 	svcls	0x00000032
     fb0:	00000288 	andeq	r0, r0, r8, lsl #5
     fb4:	00000298 	muleq	r0, r8, r2
     fb8:	38550001 	ldmdacc	r5, {r0}^
     fbc:	50000003 	andpl	r0, r0, r3
     fc0:	01000003 	tsteq	r0, r3
     fc4:	03bc5500 			; <UNDEFINED> instruction: 0x03bc5500
     fc8:	03c00000 	biceq	r0, r0, #0
     fcc:	00010000 	andeq	r0, r1, r0
     fd0:	00040c55 	andeq	r0, r4, r5, asr ip
     fd4:	00041000 	andeq	r1, r4, r0
     fd8:	55000100 	strpl	r0, [r0, #-256]	; 0x100
     fdc:	0000047c 	andeq	r0, r0, ip, ror r4
     fe0:	00000480 	andeq	r0, r0, r0, lsl #9
     fe4:	9c550001 	mrrcls	0, 0, r0, r5, cr1
     fe8:	a8000004 	stmdage	r0, {r2}
     fec:	03000004 	movweq	r0, #4
     ff0:	9f017500 	svcls	0x00017500
     ff4:	000004a8 	andeq	r0, r0, r8, lsr #9
     ff8:	000004ac 	andeq	r0, r0, ip, lsr #9
     ffc:	14550001 	ldrbne	r0, [r5], #-1
    1000:	1c000005 	stcne	0, cr0, [r0], {5}
    1004:	01000005 	tsteq	r0, r5
    1008:	00005500 	andeq	r5, r0, r0, lsl #10
    100c:	00000000 	andeq	r0, r0, r0
    1010:	03d40000 	bicseq	r0, r4, #0
    1014:	04100000 	ldreq	r0, [r0], #-0
    1018:	00040000 	andeq	r0, r4, r0
    101c:	067fa491 			; <UNDEFINED> instruction: 0x067fa491
	...
    1028:	000002c0 	andeq	r0, r0, r0, asr #5
    102c:	0000032c 	andeq	r0, r0, ip, lsr #6
    1030:	50570001 	subspl	r0, r7, r1
    1034:	1c000003 	stcne	0, cr0, [r0], {3}
    1038:	01000005 	tsteq	r0, r5
    103c:	00005700 	andeq	r5, r0, r0, lsl #14
    1040:	00000000 	andeq	r0, r0, r0
    1044:	024c0000 	subeq	r0, ip, #0
    1048:	02880000 	addeq	r0, r8, #0
    104c:	00020000 	andeq	r0, r2, r0
    1050:	038c9f30 	orreq	r9, ip, #192	; 0xc0
    1054:	03a40000 			; <UNDEFINED> instruction: 0x03a40000
    1058:	00010000 	andeq	r0, r1, r0
    105c:	0003a45a 	andeq	sl, r3, sl, asr r4
    1060:	0003c000 	andeq	ip, r3, r0
    1064:	50000100 	andpl	r0, r0, r0, lsl #2
    1068:	0000044c 	andeq	r0, r0, ip, asr #8
    106c:	00000464 	andeq	r0, r0, r4, ror #8
    1070:	645a0001 	ldrbvs	r0, [sl], #-1
    1074:	80000004 	andhi	r0, r0, r4
    1078:	01000004 	tsteq	r0, r4
    107c:	04e45000 	strbteq	r5, [r4], #0
    1080:	04fc0000 	ldrbteq	r0, [ip], #0
    1084:	00010000 	andeq	r0, r1, r0
    1088:	0004fc5a 	andeq	pc, r4, sl, asr ip	; <UNPREDICTABLE>
    108c:	00051c00 	andeq	r1, r5, r0, lsl #24
    1090:	50000100 	andpl	r0, r0, r0, lsl #2
	...
    109c:	0000036c 	andeq	r0, r0, ip, ror #6
    10a0:	000003c0 	andeq	r0, r0, r0, asr #7
    10a4:	00560001 	subseq	r0, r6, r1
    10a8:	00000000 	andeq	r0, r0, r0
    10ac:	6c000000 	stcvs	0, cr0, [r0], {-0}
    10b0:	7c000003 	stcvc	0, cr0, [r0], {3}
    10b4:	01000003 	tsteq	r0, r3
    10b8:	037c5600 	cmneq	ip, #0
    10bc:	03800000 	orreq	r0, r0, #0
    10c0:	00010000 	andeq	r0, r1, r0
    10c4:	0003805a 	andeq	r8, r3, sl, asr r0
    10c8:	00038c00 	andeq	r8, r3, r0, lsl #24
    10cc:	7a000300 	bvc	1cd4 <utoa+0xa0>
    10d0:	00009f7f 	andeq	r9, r0, pc, ror pc
    10d4:	00000000 	andeq	r0, r0, r0
    10d8:	03a40000 			; <UNDEFINED> instruction: 0x03a40000
    10dc:	03a80000 			; <UNDEFINED> instruction: 0x03a80000
    10e0:	00010000 	andeq	r0, r1, r0
    10e4:	00000056 	andeq	r0, r0, r6, asr r0
    10e8:	00000000 	andeq	r0, r0, r0
    10ec:	0003a400 	andeq	sl, r3, r0, lsl #8
    10f0:	0003a800 	andeq	sl, r3, r0, lsl #16
    10f4:	55000100 	strpl	r0, [r0, #-256]	; 0x100
    10f8:	000003a8 	andeq	r0, r0, r8, lsr #7
    10fc:	000003c0 	andeq	r0, r0, r0, asr #7
    1100:	00510001 	subseq	r0, r1, r1
    1104:	00000000 	andeq	r0, r0, r0
    1108:	a4000000 	strge	r0, [r0], #-0
    110c:	bc000003 	stclt	0, cr0, [r0], {3}
    1110:	01000003 	tsteq	r0, r3
    1114:	00005500 	andeq	r5, r0, r0, lsl #10
    1118:	00000000 	andeq	r0, r0, r0
    111c:	03d40000 	bicseq	r0, r4, #0
    1120:	03d80000 	bicseq	r0, r8, #0
    1124:	00040000 	andeq	r0, r4, r0
    1128:	067fa491 			; <UNDEFINED> instruction: 0x067fa491
	...
    1134:	000003d4 	ldrdeq	r0, [r0], -r4
    1138:	000003d8 	ldrdeq	r0, [r0], -r8
    113c:	d8550001 	ldmdale	r5, {r0}^
    1140:	10000003 	andne	r0, r0, r3
    1144:	01000004 	tsteq	r0, r4
    1148:	00005100 	andeq	r5, r0, r0, lsl #2
    114c:	00000000 	andeq	r0, r0, r0
    1150:	03d40000 	bicseq	r0, r4, #0
    1154:	040c0000 	streq	r0, [ip], #-0
    1158:	00010000 	andeq	r0, r1, r0
    115c:	00000055 	andeq	r0, r0, r5, asr r0
    1160:	00000000 	andeq	r0, r0, r0
    1164:	0003e800 	andeq	lr, r3, r0, lsl #16
    1168:	0003f800 	andeq	pc, r3, r0, lsl #16
    116c:	91000400 	tstls	r0, r0, lsl #8
    1170:	f8067fa4 			; <UNDEFINED> instruction: 0xf8067fa4
    1174:	fc000003 	stc2	0, cr0, [r0], {3}
    1178:	01000003 	tsteq	r0, r3
    117c:	03fc5300 	mvnseq	r5, #0
    1180:	04080000 	streq	r0, [r8], #-0
    1184:	00030000 	andeq	r0, r3, r0
    1188:	009f7f73 	addseq	r7, pc, r3, ror pc	; <UNPREDICTABLE>
    118c:	00000000 	andeq	r0, r0, r0
    1190:	2c000000 	stccs	0, cr0, [r0], {-0}
    1194:	80000004 	andhi	r0, r0, r4
    1198:	01000004 	tsteq	r0, r4
    119c:	00005600 	andeq	r5, r0, r0, lsl #12
    11a0:	00000000 	andeq	r0, r0, r0
    11a4:	042c0000 	strteq	r0, [ip], #-0
    11a8:	043c0000 	ldrteq	r0, [ip], #-0
    11ac:	00010000 	andeq	r0, r1, r0
    11b0:	00043c56 	andeq	r3, r4, r6, asr ip
    11b4:	00044000 	andeq	r4, r4, r0
    11b8:	5a000100 	bpl	15c0 <__restore_processor_state+0x27c>
    11bc:	00000440 	andeq	r0, r0, r0, asr #8
    11c0:	0000044c 	andeq	r0, r0, ip, asr #8
    11c4:	7f7a0003 	svcvc	0x007a0003
    11c8:	0000009f 	muleq	r0, pc, r0	; <UNPREDICTABLE>
    11cc:	00000000 	andeq	r0, r0, r0
    11d0:	00046400 	andeq	r6, r4, r0, lsl #8
    11d4:	00046800 	andeq	r6, r4, r0, lsl #16
    11d8:	56000100 	strpl	r0, [r0], -r0, lsl #2
	...
    11e4:	00000464 	andeq	r0, r0, r4, ror #8
    11e8:	00000468 	andeq	r0, r0, r8, ror #8
    11ec:	68550001 	ldmdavs	r5, {r0}^
    11f0:	80000004 	andhi	r0, r0, r4
    11f4:	01000004 	tsteq	r0, r4
    11f8:	00005100 	andeq	r5, r0, r0, lsl #2
    11fc:	00000000 	andeq	r0, r0, r0
    1200:	04640000 	strbteq	r0, [r4], #-0
    1204:	047c0000 	ldrbteq	r0, [ip], #-0
    1208:	00010000 	andeq	r0, r1, r0
    120c:	00000055 	andeq	r0, r0, r5, asr r0
    1210:	00000000 	andeq	r0, r0, r0
    1214:	0004c400 	andeq	ip, r4, r0, lsl #8
    1218:	0004d400 	andeq	sp, r4, r0, lsl #8
    121c:	56000100 	strpl	r0, [r0], -r0, lsl #2
    1220:	000004d4 	ldrdeq	r0, [r0], -r4
    1224:	000004d8 	ldrdeq	r0, [r0], -r8
    1228:	d85a0001 	ldmdale	sl, {r0}^
    122c:	e4000004 	str	r0, [r0], #-4
    1230:	03000004 	movweq	r0, #4
    1234:	9f7f7a00 	svcls	0x007f7a00
	...
    1240:	000004fc 	strdeq	r0, [r0], -ip
    1244:	00000500 	andeq	r0, r0, r0, lsl #10
    1248:	00560001 	subseq	r0, r6, r1
    124c:	00000000 	andeq	r0, r0, r0
    1250:	fc000000 	stc2	0, cr0, [r0], {-0}
    1254:	00000004 	andeq	r0, r0, r4
    1258:	01000005 	tsteq	r0, r5
    125c:	05005500 	streq	r5, [r0, #-1280]	; 0x500
    1260:	051c0000 	ldreq	r0, [ip, #-0]
    1264:	00010000 	andeq	r0, r1, r0
    1268:	00000051 	andeq	r0, r0, r1, asr r0
    126c:	00000000 	andeq	r0, r0, r0
    1270:	0004fc00 	andeq	pc, r4, r0, lsl #24
    1274:	00051400 	andeq	r1, r5, r0, lsl #8
    1278:	55000100 	strpl	r0, [r0, #-256]	; 0x100
	...
    1284:	0000051c 	andeq	r0, r0, ip, lsl r5
    1288:	00000520 	andeq	r0, r0, r0, lsr #10
    128c:	007d0002 	rsbseq	r0, sp, r2
    1290:	00000520 	andeq	r0, r0, r0, lsr #10
    1294:	00000524 	andeq	r0, r0, r4, lsr #10
    1298:	107d0002 	rsbsne	r0, sp, r2
    129c:	00000524 	andeq	r0, r0, r4, lsr #10
    12a0:	00000528 	andeq	r0, r0, r8, lsr #10
    12a4:	307d0002 	rsbscc	r0, sp, r2
    12a8:	00000528 	andeq	r0, r0, r8, lsr #10
    12ac:	000007ec 	andeq	r0, r0, ip, ror #15
    12b0:	c87d0003 	ldmdagt	sp!, {r0, r1}^
	...
    12bc:	00051c00 	andeq	r1, r5, r0, lsl #24
    12c0:	00053400 	andeq	r3, r5, r0, lsl #8
    12c4:	91000200 	mrsls	r0, R8_usr
    12c8:	00053470 	andeq	r3, r5, r0, ror r4
    12cc:	00055800 	andeq	r5, r5, r0, lsl #16
    12d0:	91000200 	mrsls	r0, R8_usr
    12d4:	00055848 	andeq	r5, r5, r8, asr #16
    12d8:	00057400 	andeq	r7, r5, r0, lsl #8
    12dc:	54000100 	strpl	r0, [r0], #-256	; 0x100
    12e0:	00000574 	andeq	r0, r0, r4, ror r5
    12e4:	0000058c 	andeq	r0, r0, ip, lsl #11
    12e8:	01740003 	cmneq	r4, r3
    12ec:	0005949f 	muleq	r5, pc, r4	; <UNPREDICTABLE>
    12f0:	0007ec00 	andeq	lr, r7, r0, lsl #24
    12f4:	54000100 	strpl	r0, [r0], #-256	; 0x100
	...
    1300:	0000051c 	andeq	r0, r0, ip, lsl r5
    1304:	00000558 	andeq	r0, r0, r8, asr r5
    1308:	80030006 	andhi	r0, r3, r6
    130c:	9f000032 	svcls	0x00000032
    1310:	00000558 	andeq	r0, r0, r8, asr r5
    1314:	00000568 	andeq	r0, r0, r8, ror #10
    1318:	08550001 	ldmdaeq	r5, {r0}^
    131c:	20000006 	andcs	r0, r0, r6
    1320:	01000006 	tsteq	r0, r6
    1324:	068c5500 	streq	r5, [ip], r0, lsl #10
    1328:	06900000 	ldreq	r0, [r0], r0
    132c:	00010000 	andeq	r0, r1, r0
    1330:	0006dc55 	andeq	sp, r6, r5, asr ip
    1334:	0006e000 	andeq	lr, r6, r0
    1338:	55000100 	strpl	r0, [r0, #-256]	; 0x100
    133c:	0000074c 	andeq	r0, r0, ip, asr #14
    1340:	00000750 	andeq	r0, r0, r0, asr r7
    1344:	6c550001 	mrrcvs	0, 0, r0, r5, cr1
    1348:	78000007 	stmdavc	r0, {r0, r1, r2}
    134c:	03000007 	movweq	r0, #7
    1350:	9f017500 	svcls	0x00017500
    1354:	00000778 	andeq	r0, r0, r8, ror r7
    1358:	0000077c 	andeq	r0, r0, ip, ror r7
    135c:	e4550001 	ldrb	r0, [r5], #-1
    1360:	ec000007 	stc	0, cr0, [r0], {7}
    1364:	01000007 	tsteq	r0, r7
    1368:	00005500 	andeq	r5, r0, r0, lsl #10
    136c:	00000000 	andeq	r0, r0, r0
    1370:	06a40000 	strteq	r0, [r4], r0
    1374:	06e00000 	strbteq	r0, [r0], r0
    1378:	00040000 	andeq	r0, r4, r0
    137c:	067fa491 			; <UNDEFINED> instruction: 0x067fa491
	...
    1388:	00000590 	muleq	r0, r0, r5
    138c:	000005fc 	strdeq	r0, [r0], -ip
    1390:	20570001 	subscs	r0, r7, r1
    1394:	ec000006 	stc	0, cr0, [r0], {6}
    1398:	01000007 	tsteq	r0, r7
    139c:	00005700 	andeq	r5, r0, r0, lsl #14
    13a0:	00000000 	andeq	r0, r0, r0
    13a4:	051c0000 	ldreq	r0, [ip, #-0]
    13a8:	05580000 	ldrbeq	r0, [r8, #-0]
    13ac:	00020000 	andeq	r0, r2, r0
    13b0:	065c9f30 	uasxeq	r9, ip, r0
    13b4:	06740000 	ldrbteq	r0, [r4], -r0
    13b8:	00010000 	andeq	r0, r1, r0
    13bc:	0006745a 	andeq	r7, r6, sl, asr r4
    13c0:	00069000 	andeq	r9, r6, r0
    13c4:	50000100 	andpl	r0, r0, r0, lsl #2
    13c8:	0000071c 	andeq	r0, r0, ip, lsl r7
    13cc:	00000734 	andeq	r0, r0, r4, lsr r7
    13d0:	345a0001 	ldrbcc	r0, [sl], #-1
    13d4:	50000007 	andpl	r0, r0, r7
    13d8:	01000007 	tsteq	r0, r7
    13dc:	07b45000 	ldreq	r5, [r4, r0]!
    13e0:	07cc0000 	strbeq	r0, [ip, r0]
    13e4:	00010000 	andeq	r0, r1, r0
    13e8:	0007cc5a 	andeq	ip, r7, sl, asr ip
    13ec:	0007ec00 	andeq	lr, r7, r0, lsl #24
    13f0:	50000100 	andpl	r0, r0, r0, lsl #2
	...
    13fc:	0000063c 	andeq	r0, r0, ip, lsr r6
    1400:	00000690 	muleq	r0, r0, r6
    1404:	00560001 	subseq	r0, r6, r1
    1408:	00000000 	andeq	r0, r0, r0
    140c:	3c000000 	stccc	0, cr0, [r0], {-0}
    1410:	4c000006 	stcmi	0, cr0, [r0], {6}
    1414:	01000006 	tsteq	r0, r6
    1418:	064c5600 	strbeq	r5, [ip], -r0, lsl #12
    141c:	06500000 	ldrbeq	r0, [r0], -r0
    1420:	00010000 	andeq	r0, r1, r0
    1424:	0006505a 	andeq	r5, r6, sl, asr r0
    1428:	00065c00 	andeq	r5, r6, r0, lsl #24
    142c:	7a000300 	bvc	2034 <printk+0x1b4>
    1430:	00009f7f 	andeq	r9, r0, pc, ror pc
    1434:	00000000 	andeq	r0, r0, r0
    1438:	06740000 	ldrbteq	r0, [r4], -r0
    143c:	06780000 	ldrbteq	r0, [r8], -r0
    1440:	00010000 	andeq	r0, r1, r0
    1444:	00000056 	andeq	r0, r0, r6, asr r0
    1448:	00000000 	andeq	r0, r0, r0
    144c:	00067400 	andeq	r7, r6, r0, lsl #8
    1450:	00067800 	andeq	r7, r6, r0, lsl #16
    1454:	55000100 	strpl	r0, [r0, #-256]	; 0x100
    1458:	00000678 	andeq	r0, r0, r8, ror r6
    145c:	00000690 	muleq	r0, r0, r6
    1460:	00510001 	subseq	r0, r1, r1
    1464:	00000000 	andeq	r0, r0, r0
    1468:	74000000 	strvc	r0, [r0], #-0
    146c:	8c000006 	stchi	0, cr0, [r0], {6}
    1470:	01000006 	tsteq	r0, r6
    1474:	00005500 	andeq	r5, r0, r0, lsl #10
    1478:	00000000 	andeq	r0, r0, r0
    147c:	06a40000 	strteq	r0, [r4], r0
    1480:	06a80000 	strteq	r0, [r8], r0
    1484:	00040000 	andeq	r0, r4, r0
    1488:	067fa491 			; <UNDEFINED> instruction: 0x067fa491
	...
    1494:	000006a4 	andeq	r0, r0, r4, lsr #13
    1498:	000006a8 	andeq	r0, r0, r8, lsr #13
    149c:	a8550001 	ldmdage	r5, {r0}^
    14a0:	e0000006 	and	r0, r0, r6
    14a4:	01000006 	tsteq	r0, r6
    14a8:	00005100 	andeq	r5, r0, r0, lsl #2
    14ac:	00000000 	andeq	r0, r0, r0
    14b0:	06a40000 	strteq	r0, [r4], r0
    14b4:	06dc0000 	ldrbeq	r0, [ip], r0
    14b8:	00010000 	andeq	r0, r1, r0
    14bc:	00000055 	andeq	r0, r0, r5, asr r0
    14c0:	00000000 	andeq	r0, r0, r0
    14c4:	0006b800 	andeq	fp, r6, r0, lsl #16
    14c8:	0006c800 	andeq	ip, r6, r0, lsl #16
    14cc:	91000400 	tstls	r0, r0, lsl #8
    14d0:	c8067fa4 	stmdagt	r6, {r2, r5, r7, r8, r9, sl, fp, ip, sp, lr}
    14d4:	cc000006 	stcgt	0, cr0, [r0], {6}
    14d8:	01000006 	tsteq	r0, r6
    14dc:	06cc5300 	strbeq	r5, [ip], r0, lsl #6
    14e0:	06d80000 	ldrbeq	r0, [r8], r0
    14e4:	00030000 	andeq	r0, r3, r0
    14e8:	009f7f73 	addseq	r7, pc, r3, ror pc	; <UNPREDICTABLE>
    14ec:	00000000 	andeq	r0, r0, r0
    14f0:	fc000000 	stc2	0, cr0, [r0], {-0}
    14f4:	50000006 	andpl	r0, r0, r6
    14f8:	01000007 	tsteq	r0, r7
    14fc:	00005600 	andeq	r5, r0, r0, lsl #12
    1500:	00000000 	andeq	r0, r0, r0
    1504:	06fc0000 	ldrbteq	r0, [ip], r0
    1508:	070c0000 	streq	r0, [ip, -r0]
    150c:	00010000 	andeq	r0, r1, r0
    1510:	00070c56 	andeq	r0, r7, r6, asr ip
    1514:	00071000 	andeq	r1, r7, r0
    1518:	5a000100 	bpl	1920 <serial_puts_nommu+0x18>
    151c:	00000710 	andeq	r0, r0, r0, lsl r7
    1520:	0000071c 	andeq	r0, r0, ip, lsl r7
    1524:	7f7a0003 	svcvc	0x007a0003
    1528:	0000009f 	muleq	r0, pc, r0	; <UNPREDICTABLE>
    152c:	00000000 	andeq	r0, r0, r0
    1530:	00073400 	andeq	r3, r7, r0, lsl #8
    1534:	00073800 	andeq	r3, r7, r0, lsl #16
    1538:	56000100 	strpl	r0, [r0], -r0, lsl #2
	...
    1544:	00000734 	andeq	r0, r0, r4, lsr r7
    1548:	00000738 	andeq	r0, r0, r8, lsr r7
    154c:	38550001 	ldmdacc	r5, {r0}^
    1550:	50000007 	andpl	r0, r0, r7
    1554:	01000007 	tsteq	r0, r7
    1558:	00005100 	andeq	r5, r0, r0, lsl #2
    155c:	00000000 	andeq	r0, r0, r0
    1560:	07340000 	ldreq	r0, [r4, -r0]!
    1564:	074c0000 	strbeq	r0, [ip, -r0]
    1568:	00010000 	andeq	r0, r1, r0
    156c:	00000055 	andeq	r0, r0, r5, asr r0
    1570:	00000000 	andeq	r0, r0, r0
    1574:	00079400 	andeq	r9, r7, r0, lsl #8
    1578:	0007a400 	andeq	sl, r7, r0, lsl #8
    157c:	56000100 	strpl	r0, [r0], -r0, lsl #2
    1580:	000007a4 	andeq	r0, r0, r4, lsr #15
    1584:	000007a8 	andeq	r0, r0, r8, lsr #15
    1588:	a85a0001 	ldmdage	sl, {r0}^
    158c:	b4000007 	strlt	r0, [r0], #-7
    1590:	03000007 	movweq	r0, #7
    1594:	9f7f7a00 	svcls	0x007f7a00
	...
    15a0:	000007cc 	andeq	r0, r0, ip, asr #15
    15a4:	000007d0 	ldrdeq	r0, [r0], -r0	; <UNPREDICTABLE>
    15a8:	00560001 	subseq	r0, r6, r1
    15ac:	00000000 	andeq	r0, r0, r0
    15b0:	cc000000 	stcgt	0, cr0, [r0], {-0}
    15b4:	d0000007 	andle	r0, r0, r7
    15b8:	01000007 	tsteq	r0, r7
    15bc:	07d05500 	ldrbeq	r5, [r0, r0, lsl #10]
    15c0:	07ec0000 	strbeq	r0, [ip, r0]!
    15c4:	00010000 	andeq	r0, r1, r0
    15c8:	00000051 	andeq	r0, r0, r1, asr r0
    15cc:	00000000 	andeq	r0, r0, r0
    15d0:	0007cc00 	andeq	ip, r7, r0, lsl #24
    15d4:	0007e400 	andeq	lr, r7, r0, lsl #8
    15d8:	55000100 	strpl	r0, [r0, #-256]	; 0x100
	...
    15e4:	0000000c 	andeq	r0, r0, ip
    15e8:	00000054 	andeq	r0, r0, r4, asr r0
    15ec:	00500001 	subseq	r0, r0, r1
    15f0:	00000000 	andeq	r0, r0, r0
    15f4:	0c000000 	stceq	0, cr0, [r0], {-0}
    15f8:	10000000 	andne	r0, r0, r0
    15fc:	01000000 	mrseq	r0, (UNDEF: 0)
    1600:	00005100 	andeq	r5, r0, r0, lsl #2
    1604:	00000000 	andeq	r0, r0, r0
    1608:	000c0000 	andeq	r0, ip, r0
    160c:	00200000 	eoreq	r0, r0, r0
    1610:	00010000 	andeq	r0, r1, r0
    1614:	00002051 	andeq	r2, r0, r1, asr r0
    1618:	00002400 	andeq	r2, r0, r0, lsl #8
    161c:	71000500 	tstvc	r0, r0, lsl #10
    1620:	9f243100 	svcls	0x00243100
    1624:	00000024 	andeq	r0, r0, r4, lsr #32
    1628:	00000028 	andeq	r0, r0, r8, lsr #32
    162c:	30510001 	subscc	r0, r1, r1
    1630:	58000000 	stmdapl	r0, {}	; <UNPREDICTABLE>
    1634:	01000000 	mrseq	r0, (UNDEF: 0)
    1638:	00005100 	andeq	r5, r0, r0, lsl #2
    163c:	00000000 	andeq	r0, r0, r0
    1640:	000c0000 	andeq	r0, ip, r0
    1644:	00300000 	eorseq	r0, r0, r0
    1648:	00020000 	andeq	r0, r2, r0
    164c:	00309f30 	eorseq	r9, r0, r0, lsr pc
    1650:	00400000 	subeq	r0, r0, r0
    1654:	00010000 	andeq	r0, r1, r0
    1658:	00004452 	andeq	r4, r0, r2, asr r4
    165c:	00005000 	andeq	r5, r0, r0
    1660:	52000100 	andpl	r0, r0, #0
	...
    166c:	0000000c 	andeq	r0, r0, ip
    1670:	00000020 	andeq	r0, r0, r0, lsr #32
    1674:	9f300002 	svcls	0x00300002
    1678:	00000028 	andeq	r0, r0, r8, lsr #32
    167c:	0000002c 	andeq	r0, r0, ip, lsr #32
    1680:	30530001 	subscc	r0, r3, r1
    1684:	48000000 	stmdami	r0, {}	; <UNPREDICTABLE>
    1688:	01000000 	mrseq	r0, (UNDEF: 0)
    168c:	00005300 	andeq	r5, r0, r0, lsl #6
	...
    1698:	00100000 	andseq	r0, r0, r0
    169c:	00020000 	andeq	r0, r2, r0
    16a0:	0010007d 	andseq	r0, r0, sp, ror r0
    16a4:	00900000 	addseq	r0, r0, r0
    16a8:	00020000 	andeq	r0, r2, r0
    16ac:	0000087d 	andeq	r0, r0, sp, ror r8
	...
    16b8:	00300000 	eorseq	r0, r0, r0
    16bc:	00020000 	andeq	r0, r2, r0
    16c0:	006c9f30 	rsbeq	r9, ip, r0, lsr pc
    16c4:	007f0000 	rsbseq	r0, pc, r0
    16c8:	00010000 	andeq	r0, r1, r0
    16cc:	00000051 	andeq	r0, r0, r1, asr r0
    16d0:	00000000 	andeq	r0, r0, r0
    16d4:	00009000 	andeq	r9, r0, r0
    16d8:	00009800 	andeq	r9, r0, r0, lsl #16
    16dc:	7d000200 	sfmvc	f0, 4, [r0, #-0]
    16e0:	00009800 	andeq	r9, r0, r0, lsl #16
    16e4:	0000e400 	andeq	lr, r0, r0, lsl #8
    16e8:	7d000200 	sfmvc	f0, 4, [r0, #-0]
    16ec:	00000008 	andeq	r0, r0, r8
    16f0:	00000000 	andeq	r0, r0, r0
    16f4:	00009000 	andeq	r9, r0, r0
    16f8:	0000b000 	andeq	fp, r0, r0
    16fc:	30000200 	andcc	r0, r0, r0, lsl #4
    1700:	0000cc9f 	muleq	r0, pc, ip	; <UNPREDICTABLE>
    1704:	0000e400 	andeq	lr, r0, r0, lsl #8
    1708:	53000100 	movwpl	r0, #256	; 0x100
	...
    1714:	000000a0 	andeq	r0, r0, r0, lsr #1
    1718:	000000b4 	strheq	r0, [r0], -r4
    171c:	74910002 	ldrvc	r0, [r1], #2
    1720:	000000b4 	strheq	r0, [r0], -r4
    1724:	000000bc 	strheq	r0, [r0], -ip
    1728:	bc510001 	mrrclt	0, 0, r0, r1, cr1
    172c:	e4000000 	str	r0, [r0], #-0
    1730:	02000000 	andeq	r0, r0, #0
    1734:	00749100 	rsbseq	r9, r4, r0, lsl #2
    1738:	00000000 	andeq	r0, r0, r0
    173c:	e4000000 	str	r0, [r0], #-0
    1740:	18000000 	stmdane	r0, {}	; <UNPREDICTABLE>
    1744:	01000001 	tsteq	r0, r1
    1748:	01345000 	teqeq	r4, r0
    174c:	01380000 	teqeq	r8, r0
    1750:	00010000 	andeq	r0, r1, r0
    1754:	00000050 	andeq	r0, r0, r0, asr r0
    1758:	00000000 	andeq	r0, r0, r0
    175c:	0000e400 	andeq	lr, r0, r0, lsl #8
    1760:	00011800 	andeq	r1, r1, r0, lsl #16
    1764:	70000500 	andvc	r0, r0, r0, lsl #10
    1768:	9f253500 	svcls	0x00253500
    176c:	00000118 	andeq	r0, r0, r8, lsl r1
    1770:	0000011c 	andeq	r0, r0, ip, lsl r1
    1774:	40730003 	rsbsmi	r0, r3, r3
    1778:	0001349f 	muleq	r1, pc, r4	; <UNPREDICTABLE>
    177c:	00013800 	andeq	r3, r1, r0, lsl #16
    1780:	70000500 	andvc	r0, r0, r0, lsl #10
    1784:	9f253500 	svcls	0x00253500
	...
    1790:	000000e4 	andeq	r0, r0, r4, ror #1
    1794:	00000118 	andeq	r0, r0, r8, lsl r1
    1798:	00700005 	rsbseq	r0, r0, r5
    179c:	189f1a4f 	ldmne	pc, {r0, r1, r2, r3, r6, r9, fp, ip}	; <UNPREDICTABLE>
    17a0:	2c000001 	stccs	0, cr0, [r0], {1}
    17a4:	01000001 	tsteq	r0, r1
    17a8:	01345200 	teqeq	r4, r0, lsl #4
    17ac:	01380000 	teqeq	r8, r0
    17b0:	00050000 	andeq	r0, r5, r0
    17b4:	1a4f0070 	bne	13c197c <__bss_end+0x13be3c8>
    17b8:	0000009f 	muleq	r0, pc, r0	; <UNPREDICTABLE>
    17bc:	00000000 	andeq	r0, r0, r0
    17c0:	00014000 	andeq	r4, r1, r0
    17c4:	00015000 	andeq	r5, r1, r0
    17c8:	50000100 	andpl	r0, r0, r0, lsl #2
    17cc:	00000190 	muleq	r0, r0, r1
    17d0:	00000194 	muleq	r0, r4, r1
    17d4:	00500001 	subseq	r0, r0, r1
    17d8:	00000000 	andeq	r0, r0, r0
    17dc:	40000000 	andmi	r0, r0, r0
    17e0:	80000001 	andhi	r0, r0, r1
    17e4:	02000001 	andeq	r0, r0, #1
    17e8:	909f3000 	addsls	r3, pc, r0
    17ec:	9c000001 	stcls	0, cr0, [r0], {1}
    17f0:	02000001 	andeq	r0, r0, #1
    17f4:	009f3000 	addseq	r3, pc, r0
    17f8:	00000000 	andeq	r0, r0, r0
    17fc:	40000000 	andmi	r0, r0, r0
    1800:	6c000001 	stcvs	0, cr0, [r0], {1}
    1804:	05000001 	streq	r0, [r0, #-1]
    1808:	35007000 	strcc	r7, [r0, #-0]
    180c:	016c9f25 	cmneq	ip, r5, lsr #30
    1810:	01700000 	cmneq	r0, r0
    1814:	00010000 	andeq	r0, r1, r0
    1818:	00017053 	andeq	r7, r1, r3, asr r0
    181c:	00017400 	andeq	r7, r1, r0, lsl #8
    1820:	73000400 	movwvc	r0, #1024	; 0x400
    1824:	909f7f80 	addsls	r7, pc, r0, lsl #31
    1828:	94000001 	strls	r0, [r0], #-1
    182c:	05000001 	streq	r0, [r0, #-1]
    1830:	35007000 	strcc	r7, [r0, #-0]
    1834:	00009f25 	andeq	r9, r0, r5, lsr #30
    1838:	00000000 	andeq	r0, r0, r0
    183c:	01400000 	mrseq	r0, (UNDEF: 64)
    1840:	016c0000 	cmneq	ip, r0
    1844:	00050000 	andeq	r0, r5, r0
    1848:	1a4f0070 	bne	13c1a10 <__bss_end+0x13be45c>
    184c:	00016c9f 	muleq	r1, pc, ip	; <UNPREDICTABLE>
    1850:	00018c00 	andeq	r8, r1, r0, lsl #24
    1854:	50000100 	andpl	r0, r0, r0, lsl #2
    1858:	00000190 	muleq	r0, r0, r1
    185c:	00000194 	muleq	r0, r4, r1
    1860:	00700005 	rsbseq	r0, r0, r5
    1864:	009f1a4f 	addseq	r1, pc, pc, asr #20
	...
    1870:	0c000000 	stceq	0, cr0, [r0], {-0}
    1874:	01000000 	mrseq	r0, (UNDEF: 0)
    1878:	000c5000 	andeq	r5, ip, r0
    187c:	00140000 	andseq	r0, r4, r0
    1880:	00030000 	andeq	r0, r3, r0
    1884:	009f0470 	addseq	r0, pc, r0, ror r4	; <UNPREDICTABLE>
	...
    1890:	14000000 	strne	r0, [r0], #-0
    1894:	02000000 	andeq	r0, r0, #0
    1898:	009f3000 	addseq	r3, pc, r0
    189c:	00000000 	andeq	r0, r0, r0
    18a0:	2c000000 	stccs	0, cr0, [r0], {-0}
    18a4:	38000000 	stmdacc	r0, {}	; <UNPREDICTABLE>
    18a8:	01000000 	mrseq	r0, (UNDEF: 0)
    18ac:	00385000 	eorseq	r5, r8, r0
    18b0:	00400000 	subeq	r0, r0, r0
    18b4:	00030000 	andeq	r0, r3, r0
    18b8:	009f0470 	addseq	r0, pc, r0, ror r4	; <UNPREDICTABLE>
    18bc:	00000000 	andeq	r0, r0, r0
    18c0:	2c000000 	stccs	0, cr0, [r0], {-0}
    18c4:	40000000 	andmi	r0, r0, r0
    18c8:	02000000 	andeq	r0, r0, #0
    18cc:	009f3000 	addseq	r3, pc, r0
    18d0:	00000000 	andeq	r0, r0, r0
    18d4:	58000000 	stmdapl	r0, {}	; <UNPREDICTABLE>
    18d8:	80000000 	andhi	r0, r0, r0
    18dc:	01000000 	mrseq	r0, (UNDEF: 0)
    18e0:	00005000 	andeq	r5, r0, r0
    18e4:	00000000 	andeq	r0, r0, r0
    18e8:	00580000 	subseq	r0, r8, r0
    18ec:	00840000 	addeq	r0, r4, r0
    18f0:	00020000 	andeq	r0, r2, r0
    18f4:	00009f30 	andeq	r9, r0, r0, lsr pc
	...
    1900:	00100000 	andseq	r0, r0, r0
    1904:	00010000 	andeq	r0, r1, r0
    1908:	00001050 	andeq	r1, r0, r0, asr r0
    190c:	00006000 	andeq	r6, r0, r0
    1910:	52000100 	andpl	r0, r0, #0
	...
    191c:	00000060 	andeq	r0, r0, r0, rrx
    1920:	00000078 	andeq	r0, r0, r8, ror r0
    1924:	78500001 	ldmdavc	r0, {r0}^
    1928:	a8000000 	stmdage	r0, {}	; <UNPREDICTABLE>
    192c:	01000000 	mrseq	r0, (UNDEF: 0)
    1930:	00005200 	andeq	r5, r0, r0, lsl #4
    1934:	00000000 	andeq	r0, r0, r0
    1938:	01980000 	orrseq	r0, r8, r0
    193c:	01b40000 			; <UNDEFINED> instruction: 0x01b40000
    1940:	00010000 	andeq	r0, r1, r0
    1944:	00000050 	andeq	r0, r0, r0, asr r0
	...
    1950:	00001000 	andeq	r1, r0, r0
    1954:	50000100 	andpl	r0, r0, r0, lsl #2
    1958:	00000010 	andeq	r0, r0, r0, lsl r0
    195c:	00000030 	andeq	r0, r0, r0, lsr r0
    1960:	00520001 	subseq	r0, r2, r1
    1964:	00000000 	andeq	r0, r0, r0
    1968:	30000000 	andcc	r0, r0, r0
    196c:	48000000 	stmdami	r0, {}	; <UNPREDICTABLE>
    1970:	01000000 	mrseq	r0, (UNDEF: 0)
    1974:	00485000 	subeq	r5, r8, r0
    1978:	00500000 	subseq	r0, r0, r0
    197c:	00010000 	andeq	r0, r1, r0
    1980:	00000052 	andeq	r0, r0, r2, asr r0
	...
    198c:	00001800 	andeq	r1, r0, r0, lsl #16
    1990:	50000100 	andpl	r0, r0, r0, lsl #2
	...
    199c:	00000030 	andeq	r0, r0, r0, lsr r0
    19a0:	00000034 	andeq	r0, r0, r4, lsr r0
    19a4:	007d0002 	rsbseq	r0, sp, r2
    19a8:	00000034 	andeq	r0, r0, r4, lsr r0
    19ac:	000000ac 	andeq	r0, r0, ip, lsr #1
    19b0:	087d0002 	ldmdaeq	sp!, {r1}^
	...
    19bc:	00000030 	andeq	r0, r0, r0, lsr r0
    19c0:	00000084 	andeq	r0, r0, r4, lsl #1
    19c4:	88500001 	ldmdahi	r0, {r0}^
    19c8:	90000000 	andls	r0, r0, r0
    19cc:	01000000 	mrseq	r0, (UNDEF: 0)
    19d0:	009c5000 	addseq	r5, ip, r0
    19d4:	00a00000 	adceq	r0, r0, r0
    19d8:	00010000 	andeq	r0, r1, r0
    19dc:	00000050 	andeq	r0, r0, r0, asr r0
    19e0:	00000000 	andeq	r0, r0, r0
    19e4:	00003000 	andeq	r3, r0, r0
    19e8:	00006000 	andeq	r6, r0, r0
    19ec:	51000100 	mrspl	r0, (UNDEF: 16)
    19f0:	0000009c 	muleq	r0, ip, r0
    19f4:	000000ac 	andeq	r0, r0, ip, lsr #1
    19f8:	00510001 	subseq	r0, r1, r1
    19fc:	00000000 	andeq	r0, r0, r0
    1a00:	30000000 	andcc	r0, r0, r0
    1a04:	64000000 	strvs	r0, [r0], #-0
    1a08:	05000000 	streq	r0, [r0, #-0]
    1a0c:	3a007100 	bcc	1de14 <__bss_end+0x1a860>
    1a10:	00649f24 	rsbeq	r9, r4, r4, lsr #30
    1a14:	006c0000 	rsbeq	r0, ip, r0
    1a18:	00010000 	andeq	r0, r1, r0
    1a1c:	00006c51 	andeq	r6, r0, r1, asr ip
    1a20:	00007000 	andeq	r7, r0, r0
    1a24:	71000300 	mrsvc	r0, LR_irq
    1a28:	00709f7f 	rsbseq	r9, r0, pc, ror pc
    1a2c:	00740000 	rsbseq	r0, r4, r0
    1a30:	00010000 	andeq	r0, r1, r0
    1a34:	00007451 	andeq	r7, r0, r1, asr r4
    1a38:	00008800 	andeq	r8, r0, r0, lsl #16
    1a3c:	71000300 	mrsvc	r0, LR_irq
    1a40:	009c9f7f 	addseq	r9, ip, pc, ror pc
    1a44:	00ac0000 	adceq	r0, ip, r0
    1a48:	00050000 	andeq	r0, r5, r0
    1a4c:	243a0071 	ldrtcs	r0, [sl], #-113	; 0x71
    1a50:	0000009f 	muleq	r0, pc, r0	; <UNPREDICTABLE>
    1a54:	00000000 	andeq	r0, r0, r0
    1a58:	00003c00 	andeq	r3, r0, r0, lsl #24
    1a5c:	00009300 	andeq	r9, r0, r0, lsl #6
    1a60:	5c000100 	stfpls	f0, [r0], {-0}
    1a64:	0000009c 	muleq	r0, ip, r0
    1a68:	000000ac 	andeq	r0, r0, ip, lsr #1
    1a6c:	005c0001 	subseq	r0, ip, r1
    1a70:	00000000 	andeq	r0, r0, r0
    1a74:	88000000 	stmdahi	r0, {}	; <UNPREDICTABLE>
    1a78:	93000000 	movwls	r0, #0
    1a7c:	01000000 	mrseq	r0, (UNDEF: 0)
    1a80:	00005c00 	andeq	r5, r0, r0, lsl #24
    1a84:	00000000 	andeq	r0, r0, r0
    1a88:	00ac0000 	adceq	r0, ip, r0
    1a8c:	00d80000 	sbcseq	r0, r8, r0
    1a90:	00010000 	andeq	r0, r1, r0
    1a94:	00000050 	andeq	r0, r0, r0, asr r0
    1a98:	00000000 	andeq	r0, r0, r0
    1a9c:	0000dc00 	andeq	sp, r0, r0, lsl #24
    1aa0:	00012c00 	andeq	r2, r1, r0, lsl #24
    1aa4:	50000100 	andpl	r0, r0, r0, lsl #2
    1aa8:	00000130 	andeq	r0, r0, r0, lsr r1
    1aac:	00000138 	andeq	r0, r0, r8, lsr r1
    1ab0:	3c500001 	mrrccc	0, 0, r0, r0, cr1	; <UNPREDICTABLE>
    1ab4:	40000001 	andmi	r0, r0, r1
    1ab8:	01000001 	tsteq	r0, r1
    1abc:	00005000 	andeq	r5, r0, r0
    1ac0:	00000000 	andeq	r0, r0, r0
    1ac4:	00dc0000 	sbcseq	r0, ip, r0
    1ac8:	01080000 	mrseq	r0, (UNDEF: 8)
    1acc:	00010000 	andeq	r0, r1, r0
    1ad0:	00013c51 	andeq	r3, r1, r1, asr ip
    1ad4:	00014800 	andeq	r4, r1, r0, lsl #16
    1ad8:	51000100 	mrspl	r0, (UNDEF: 16)
	...
    1ae4:	000000dc 	ldrdeq	r0, [r0], -ip
    1ae8:	0000010c 	andeq	r0, r0, ip, lsl #2
    1aec:	00710005 	rsbseq	r0, r1, r5
    1af0:	0c9f243a 	cfldrseq	mvf2, [pc], {58}	; 0x3a
    1af4:	14000001 	strne	r0, [r0], #-1
    1af8:	01000001 	tsteq	r0, r1
    1afc:	01145100 	tsteq	r4, r0, lsl #2
    1b00:	01180000 	tsteq	r8, r0
    1b04:	00030000 	andeq	r0, r3, r0
    1b08:	189f7f71 	ldmne	pc, {r0, r4, r5, r6, r8, r9, sl, fp, ip, sp, lr}	; <UNPREDICTABLE>
    1b0c:	1c000001 	stcne	0, cr0, [r0], {1}
    1b10:	01000001 	tsteq	r0, r1
    1b14:	011c5100 	tsteq	ip, r0, lsl #2
    1b18:	01300000 	teqeq	r0, r0
    1b1c:	00030000 	andeq	r0, r3, r0
    1b20:	3c9f7f71 	ldccc	15, cr7, [pc], {113}	; 0x71
    1b24:	48000001 	stmdami	r0, {r0}
    1b28:	05000001 	streq	r0, [r0, #-1]
    1b2c:	3a007100 	bcc	1df34 <__bss_end+0x1a980>
    1b30:	00009f24 	andeq	r9, r0, r4, lsr #30
    1b34:	00000000 	andeq	r0, r0, r0
    1b38:	01300000 	teqeq	r0, r0
    1b3c:	013c0000 	teqeq	ip, r0
    1b40:	00010000 	andeq	r0, r1, r0
    1b44:	0000005c 	andeq	r0, r0, ip, asr r0
    1b48:	00000000 	andeq	r0, r0, r0
    1b4c:	00014800 	andeq	r4, r1, r0, lsl #16
    1b50:	00017400 	andeq	r7, r1, r0, lsl #8
    1b54:	50000100 	andpl	r0, r0, r0, lsl #2
	...
    1b64:	0000001c 	andeq	r0, r0, ip, lsl r0
    1b68:	00500001 	subseq	r0, r0, r1
    1b6c:	00000000 	andeq	r0, r0, r0
    1b70:	40000000 	andmi	r0, r0, r0
    1b74:	50000000 	andpl	r0, r0, r0
    1b78:	01000000 	mrseq	r0, (UNDEF: 0)
    1b7c:	00505000 	subseq	r5, r0, r0
    1b80:	007c0000 	rsbseq	r0, ip, r0
    1b84:	00010000 	andeq	r0, r1, r0
    1b88:	00000052 	andeq	r0, r0, r2, asr r0
    1b8c:	00000000 	andeq	r0, r0, r0
    1b90:	00007c00 	andeq	r7, r0, r0, lsl #24
    1b94:	00009400 	andeq	r9, r0, r0, lsl #8
    1b98:	50000100 	andpl	r0, r0, r0, lsl #2
    1b9c:	00000094 	muleq	r0, r4, r0
    1ba0:	000000a8 	andeq	r0, r0, r8, lsr #1
    1ba4:	00520001 	subseq	r0, r2, r1
    1ba8:	00000000 	andeq	r0, r0, r0
    1bac:	b0000000 	andlt	r0, r0, r0
    1bb0:	b4000000 	strlt	r0, [r0], #-0
    1bb4:	02000000 	andeq	r0, r0, #0
    1bb8:	b4007d00 	strlt	r7, [r0], #-3328	; 0xd00
    1bbc:	20000000 	andcs	r0, r0, r0
    1bc0:	02000001 	andeq	r0, r0, #1
    1bc4:	00107d00 	andseq	r7, r0, r0, lsl #26
    1bc8:	00000000 	andeq	r0, r0, r0
    1bcc:	b0000000 	andlt	r0, r0, r0
    1bd0:	d0000000 	andle	r0, r0, r0
    1bd4:	01000000 	mrseq	r0, (UNDEF: 0)
    1bd8:	00d05000 	sbcseq	r5, r0, r0
    1bdc:	01200000 	teqeq	r0, r0
    1be0:	00010000 	andeq	r0, r1, r0
    1be4:	00000054 	andeq	r0, r0, r4, asr r0
    1be8:	00000000 	andeq	r0, r0, r0
    1bec:	00012000 	andeq	r2, r1, r0
    1bf0:	00012800 	andeq	r2, r1, r0, lsl #16
    1bf4:	7d000200 	sfmvc	f0, 4, [r0, #-0]
    1bf8:	00012800 	andeq	r2, r1, r0, lsl #16
    1bfc:	00016800 	andeq	r6, r1, r0, lsl #16
    1c00:	7d000200 	sfmvc	f0, 4, [r0, #-0]
    1c04:	00000004 	andeq	r0, r0, r4
    1c08:	00000000 	andeq	r0, r0, r0
    1c0c:	00012000 	andeq	r2, r1, r0
    1c10:	00012c00 	andeq	r2, r1, r0, lsl #24
    1c14:	50000100 	andpl	r0, r0, r0, lsl #2
    1c18:	0000012c 	andeq	r0, r0, ip, lsr #2
    1c1c:	00000168 	andeq	r0, r0, r8, ror #2
    1c20:	00520001 	subseq	r0, r2, r1
    1c24:	00000000 	andeq	r0, r0, r0
    1c28:	68000000 	stmdavs	r0, {}	; <UNPREDICTABLE>
    1c2c:	80000001 	andhi	r0, r0, r1
    1c30:	02000001 	andeq	r0, r0, #1
    1c34:	80007d00 	andhi	r7, r0, r0, lsl #26
    1c38:	bc000001 	stclt	0, cr0, [r0], {1}
    1c3c:	02000001 	andeq	r0, r0, #1
    1c40:	00047d00 	andeq	r7, r4, r0, lsl #26
    1c44:	00000000 	andeq	r0, r0, r0
    1c48:	68000000 	stmdavs	r0, {}	; <UNPREDICTABLE>
    1c4c:	88000001 	stmdahi	r0, {r0}
    1c50:	01000001 	tsteq	r0, r1
    1c54:	01885000 	orreq	r5, r8, r0
    1c58:	01a80000 			; <UNDEFINED> instruction: 0x01a80000
    1c5c:	00010000 	andeq	r0, r1, r0
    1c60:	00000051 	andeq	r0, r0, r1, asr r0
    1c64:	00000000 	andeq	r0, r0, r0
    1c68:	0001bc00 	andeq	fp, r1, r0, lsl #24
    1c6c:	0001d000 	andeq	sp, r1, r0
    1c70:	7d000200 	sfmvc	f0, 4, [r0, #-0]
    1c74:	0001d000 	andeq	sp, r1, r0
    1c78:	00020400 	andeq	r0, r2, r0, lsl #8
    1c7c:	7d000200 	sfmvc	f0, 4, [r0, #-0]
    1c80:	00000008 	andeq	r0, r0, r8
    1c84:	00000000 	andeq	r0, r0, r0
    1c88:	0001bc00 	andeq	fp, r1, r0, lsl #24
    1c8c:	0001dc00 	andeq	sp, r1, r0, lsl #24
    1c90:	50000100 	andpl	r0, r0, r0, lsl #2
    1c94:	000001dc 	ldrdeq	r0, [r0], -ip
    1c98:	00000204 	andeq	r0, r0, r4, lsl #4
    1c9c:	00510001 	subseq	r0, r1, r1
    1ca0:	00000000 	andeq	r0, r0, r0
    1ca4:	04000000 	streq	r0, [r0], #-0
    1ca8:	0c000002 	stceq	0, cr0, [r0], {2}
    1cac:	01000002 	tsteq	r0, r2
    1cb0:	020c5000 	andeq	r5, ip, #0
    1cb4:	028c0000 	addeq	r0, ip, #0
    1cb8:	00010000 	andeq	r0, r1, r0
    1cbc:	00000052 	andeq	r0, r0, r2, asr r0
    1cc0:	00000000 	andeq	r0, r0, r0
    1cc4:	0002b800 	andeq	fp, r2, r0, lsl #16
    1cc8:	0002c800 	andeq	ip, r2, r0, lsl #16
    1ccc:	50000100 	andpl	r0, r0, r0, lsl #2
    1cd0:	000002c8 	andeq	r0, r0, r8, asr #5
    1cd4:	00000348 	andeq	r0, r0, r8, asr #6
    1cd8:	00520001 	subseq	r0, r2, r1
    1cdc:	00000000 	andeq	r0, r0, r0
    1ce0:	48000000 	stmdami	r0, {}	; <UNPREDICTABLE>
    1ce4:	50000003 	andpl	r0, r0, r3
    1ce8:	02000003 	andeq	r0, r0, #3
    1cec:	50007d00 	andpl	r7, r0, r0, lsl #26
    1cf0:	a4000003 	strge	r0, [r0], #-3
    1cf4:	02000003 	andeq	r0, r0, #3
    1cf8:	00047d00 	andeq	r7, r4, r0, lsl #26
    1cfc:	00000000 	andeq	r0, r0, r0
    1d00:	48000000 	stmdami	r0, {}	; <UNPREDICTABLE>
    1d04:	80000003 	andhi	r0, r0, r3
    1d08:	02000003 	andeq	r0, r0, #3
    1d0c:	809f3100 	addshi	r3, pc, r0, lsl #2
    1d10:	90000003 	andls	r0, r0, r3
    1d14:	01000003 	tsteq	r0, r3
    1d18:	00005000 	andeq	r5, r0, r0
    1d1c:	00000000 	andeq	r0, r0, r0
    1d20:	03480000 	movteq	r0, #32768	; 0x8000
    1d24:	03840000 	orreq	r0, r4, #0
    1d28:	00020000 	andeq	r0, r2, r0
    1d2c:	03849f31 	orreq	r9, r4, #196	; 0xc4
    1d30:	039f0000 	orrseq	r0, pc, #0
    1d34:	00030000 	andeq	r0, r3, r0
    1d38:	009f017c 	addseq	r0, pc, ip, ror r1	; <UNPREDICTABLE>
    1d3c:	00000000 	andeq	r0, r0, r0
    1d40:	48000000 	stmdami	r0, {}	; <UNPREDICTABLE>
    1d44:	8c000003 	stchi	0, cr0, [r0], {3}
    1d48:	02000003 	andeq	r0, r0, #3
    1d4c:	8c9f3100 	ldfhis	f3, [pc], {0}
    1d50:	98000003 	stmdals	r0, {r0, r1}
    1d54:	01000003 	tsteq	r0, r3
    1d58:	00005100 	andeq	r5, r0, r0, lsl #2
    1d5c:	00000000 	andeq	r0, r0, r0
    1d60:	03480000 	movteq	r0, #32768	; 0x8000
    1d64:	03600000 	cmneq	r0, #0
    1d68:	00020000 	andeq	r0, r2, r0
    1d6c:	00009f30 	andeq	r9, r0, r0, lsr pc
    1d70:	00000000 	andeq	r0, r0, r0
    1d74:	03480000 	movteq	r0, #32768	; 0x8000
    1d78:	03640000 	cmneq	r4, #0
    1d7c:	00020000 	andeq	r0, r2, r0
    1d80:	03649f30 	cmneq	r4, #192	; 0xc0
    1d84:	03700000 	cmneq	r0, #0
    1d88:	00040000 	andeq	r0, r4, r0
    1d8c:	9f5dc00a 	svcls	0x005dc00a
    1d90:	00000370 	andeq	r0, r0, r0, ror r3
    1d94:	000003a4 	andeq	r0, r0, r4, lsr #7
    1d98:	9f300002 	svcls	0x00300002
	...

Disassembly of section .debug_frame:

00000000 <.debug_frame>:
   0:	0000000c 	andeq	r0, r0, ip
   4:	ffffffff 			; <UNDEFINED> instruction: 0xffffffff
   8:	7c020001 	stcvc	0, cr0, [r2], {1}
   c:	000d0c0e 	andeq	r0, sp, lr, lsl #24
  10:	0000000c 	andeq	r0, r0, ip
  14:	00000000 	andeq	r0, r0, r0
  18:	0000008c 	andeq	r0, r0, ip, lsl #1
  1c:	00000028 	andeq	r0, r0, r8, lsr #32
  20:	0000000c 	andeq	r0, r0, ip
  24:	ffffffff 			; <UNDEFINED> instruction: 0xffffffff
  28:	7c020001 	stcvc	0, cr0, [r2], {1}
  2c:	000d0c0e 	andeq	r0, sp, lr, lsl #24
  30:	00000018 	andeq	r0, r0, r8, lsl r0
  34:	00000020 	andeq	r0, r0, r0, lsr #32
  38:	000000dc 	ldrdeq	r0, [r0], -ip
  3c:	00000138 	andeq	r0, r0, r8, lsr r1
  40:	8e100e42 	cdphi	14, 1, cr0, cr0, cr2, {2}
  44:	84028501 	strhi	r8, [r2], #-1281	; 0x501
  48:	00048303 	andeq	r8, r4, r3, lsl #6
  4c:	00000018 	andeq	r0, r0, r8, lsl r0
  50:	00000020 	andeq	r0, r0, r0, lsr #32
  54:	00000214 	andeq	r0, r0, r4, lsl r2
  58:	0000016c 	andeq	r0, r0, ip, ror #2
  5c:	8e100e42 	cdphi	14, 1, cr0, cr0, cr2, {2}
  60:	84028501 	strhi	r8, [r2], #-1281	; 0x501
  64:	00048303 	andeq	r8, r4, r3, lsl #6
  68:	0000000c 	andeq	r0, r0, ip
  6c:	ffffffff 			; <UNDEFINED> instruction: 0xffffffff
  70:	7c020001 	stcvc	0, cr0, [r2], {1}
  74:	000d0c0e 	andeq	r0, sp, lr, lsl #24
  78:	00000010 	andeq	r0, r0, r0, lsl r0
  7c:	00000068 	andeq	r0, r0, r8, rrx
  80:	00000380 	andeq	r0, r0, r0, lsl #7
  84:	00000020 	andeq	r0, r0, r0, lsr #32
  88:	00080e42 	andeq	r0, r8, r2, asr #28
  8c:	0000000c 	andeq	r0, r0, ip
  90:	00000068 	andeq	r0, r0, r8, rrx
  94:	000003a0 	andeq	r0, r0, r0, lsr #7
  98:	00000004 	andeq	r0, r0, r4
  9c:	0000000c 	andeq	r0, r0, ip
  a0:	00000068 	andeq	r0, r0, r8, rrx
  a4:	000003a4 	andeq	r0, r0, r4, lsr #7
  a8:	00000004 	andeq	r0, r0, r4
  ac:	0000000c 	andeq	r0, r0, ip
  b0:	00000068 	andeq	r0, r0, r8, rrx
  b4:	000003a8 	andeq	r0, r0, r8, lsr #7
  b8:	00000024 	andeq	r0, r0, r4, lsr #32
  bc:	0000000c 	andeq	r0, r0, ip
  c0:	00000068 	andeq	r0, r0, r8, rrx
  c4:	000003cc 	andeq	r0, r0, ip, asr #7
  c8:	00000024 	andeq	r0, r0, r4, lsr #32
  cc:	00000014 	andeq	r0, r0, r4, lsl r0
  d0:	00000068 	andeq	r0, r0, r8, rrx
  d4:	000003f0 	strdeq	r0, [r0], -r0	; <UNPREDICTABLE>
  d8:	00000094 	muleq	r0, r4, r0
  dc:	8e080e42 	cdphi	14, 0, cr0, cr8, cr2, {2}
  e0:	00028401 	andeq	r8, r2, r1, lsl #8
  e4:	0000000c 	andeq	r0, r0, ip
  e8:	00000068 	andeq	r0, r0, r8, rrx
  ec:	00000484 	andeq	r0, r0, r4, lsl #9
  f0:	00000004 	andeq	r0, r0, r4
  f4:	00000018 	andeq	r0, r0, r8, lsl r0
  f8:	00000068 	andeq	r0, r0, r8, rrx
  fc:	00000488 	andeq	r0, r0, r8, lsl #9
 100:	00000094 	muleq	r0, r4, r0
 104:	8e080e42 	cdphi	14, 0, cr0, cr8, cr2, {2}
 108:	42028401 	andmi	r8, r2, #16777216	; 0x1000000
 10c:	0000100e 	andeq	r1, r0, lr
 110:	00000014 	andeq	r0, r0, r4, lsl r0
 114:	00000068 	andeq	r0, r0, r8, rrx
 118:	0000051c 	andeq	r0, r0, ip, lsl r5
 11c:	00000054 	andeq	r0, r0, r4, asr r0
 120:	8e080e42 	cdphi	14, 0, cr0, cr8, cr2, {2}
 124:	00028401 	andeq	r8, r2, r1, lsl #8
 128:	00000018 	andeq	r0, r0, r8, lsl r0
 12c:	00000068 	andeq	r0, r0, r8, rrx
 130:	00000570 	andeq	r0, r0, r0, ror r5
 134:	00000078 	andeq	r0, r0, r8, ror r0
 138:	8e100e42 	cdphi	14, 1, cr0, cr0, cr2, {2}
 13c:	85028601 	strhi	r8, [r2, #-1537]	; 0x601
 140:	00048403 	andeq	r8, r4, r3, lsl #8
 144:	00000018 	andeq	r0, r0, r8, lsl r0
 148:	00000068 	andeq	r0, r0, r8, rrx
 14c:	000005e8 	andeq	r0, r0, r8, ror #11
 150:	00000094 	muleq	r0, r4, r0
 154:	8e0c0e42 	cdphi	14, 0, cr0, cr12, cr2, {2}
 158:	84028501 	strhi	r8, [r2], #-1281	; 0x501
 15c:	180e4203 	stmdane	lr, {r0, r1, r9, lr}
 160:	0000000c 	andeq	r0, r0, ip
 164:	00000068 	andeq	r0, r0, r8, rrx
 168:	0000067c 	andeq	r0, r0, ip, ror r6
 16c:	00000018 	andeq	r0, r0, r8, lsl r0
 170:	0000000c 	andeq	r0, r0, ip
 174:	00000068 	andeq	r0, r0, r8, rrx
 178:	00000694 	muleq	r0, r4, r6
 17c:	00000018 	andeq	r0, r0, r8, lsl r0
 180:	0000000c 	andeq	r0, r0, ip
 184:	00000068 	andeq	r0, r0, r8, rrx
 188:	000006ac 	andeq	r0, r0, ip, lsr #13
 18c:	00000018 	andeq	r0, r0, r8, lsl r0
 190:	00000018 	andeq	r0, r0, r8, lsl r0
 194:	00000068 	andeq	r0, r0, r8, rrx
 198:	000006c4 	andeq	r0, r0, r4, asr #13
 19c:	00000034 	andeq	r0, r0, r4, lsr r0
 1a0:	8e100e42 	cdphi	14, 1, cr0, cr0, cr2, {2}
 1a4:	85028601 	strhi	r8, [r2, #-1537]	; 0x601
 1a8:	00048403 	andeq	r8, r4, r3, lsl #8
 1ac:	0000000c 	andeq	r0, r0, ip
 1b0:	ffffffff 			; <UNDEFINED> instruction: 0xffffffff
 1b4:	7c020001 	stcvc	0, cr0, [r2], {1}
 1b8:	000d0c0e 	andeq	r0, sp, lr, lsl #24
 1bc:	0000000c 	andeq	r0, r0, ip
 1c0:	000001ac 	andeq	r0, r0, ip, lsr #3
 1c4:	000006f8 	strdeq	r0, [r0], -r8
 1c8:	00000034 	andeq	r0, r0, r4, lsr r0
 1cc:	0000000c 	andeq	r0, r0, ip
 1d0:	000001ac 	andeq	r0, r0, ip, lsr #3
 1d4:	0000072c 	andeq	r0, r0, ip, lsr #14
 1d8:	0000001c 	andeq	r0, r0, ip, lsl r0
 1dc:	0000000c 	andeq	r0, r0, ip
 1e0:	000001ac 	andeq	r0, r0, ip, lsr #3
 1e4:	00000748 	andeq	r0, r0, r8, asr #14
 1e8:	00000024 	andeq	r0, r0, r4, lsr #32
 1ec:	0000000c 	andeq	r0, r0, ip
 1f0:	000001ac 	andeq	r0, r0, ip, lsr #3
 1f4:	0000076c 	andeq	r0, r0, ip, ror #14
 1f8:	00000008 	andeq	r0, r0, r8
 1fc:	0000000c 	andeq	r0, r0, ip
 200:	000001ac 	andeq	r0, r0, ip, lsr #3
 204:	00000774 	andeq	r0, r0, r4, ror r7
 208:	00000010 	andeq	r0, r0, r0, lsl r0
 20c:	00000014 	andeq	r0, r0, r4, lsl r0
 210:	000001ac 	andeq	r0, r0, ip, lsr #3
 214:	00000784 	andeq	r0, r0, r4, lsl #15
 218:	00000034 	andeq	r0, r0, r4, lsr r0
 21c:	8e080e42 	cdphi	14, 0, cr0, cr8, cr2, {2}
 220:	00028401 	andeq	r8, r2, r1, lsl #8
 224:	00000018 	andeq	r0, r0, r8, lsl r0
 228:	000001ac 	andeq	r0, r0, ip, lsr #3
 22c:	000007b8 			; <UNDEFINED> instruction: 0x000007b8
 230:	00000088 	andeq	r0, r0, r8, lsl #1
 234:	8e100e42 	cdphi	14, 1, cr0, cr0, cr2, {2}
 238:	84028501 	strhi	r8, [r2], #-1281	; 0x501
 23c:	00048303 	andeq	r8, r4, r3, lsl #6
 240:	00000014 	andeq	r0, r0, r4, lsl r0
 244:	000001ac 	andeq	r0, r0, ip, lsr #3
 248:	00000840 	andeq	r0, r0, r0, asr #16
 24c:	00000034 	andeq	r0, r0, r4, lsr r0
 250:	8e080e44 	cdphi	14, 0, cr0, cr8, cr4, {2}
 254:	00028401 	andeq	r8, r2, r1, lsl #8
 258:	0000000c 	andeq	r0, r0, ip
 25c:	000001ac 	andeq	r0, r0, ip, lsr #3
 260:	00000874 	andeq	r0, r0, r4, ror r8
 264:	0000002c 	andeq	r0, r0, ip, lsr #32
 268:	0000000c 	andeq	r0, r0, ip
 26c:	000001ac 	andeq	r0, r0, ip, lsr #3
 270:	000008a0 	andeq	r0, r0, r0, lsr #17
 274:	0000002c 	andeq	r0, r0, ip, lsr #32
 278:	0000000c 	andeq	r0, r0, ip
 27c:	000001ac 	andeq	r0, r0, ip, lsr #3
 280:	000008cc 	andeq	r0, r0, ip, asr #17
 284:	0000002c 	andeq	r0, r0, ip, lsr #32
 288:	0000000c 	andeq	r0, r0, ip
 28c:	ffffffff 			; <UNDEFINED> instruction: 0xffffffff
 290:	7c020001 	stcvc	0, cr0, [r2], {1}
 294:	000d0c0e 	andeq	r0, sp, lr, lsl #24
 298:	0000000c 	andeq	r0, r0, ip
 29c:	00000288 	andeq	r0, r0, r8, lsl #5
 2a0:	00000900 	andeq	r0, r0, r0, lsl #18
 2a4:	0000003c 	andeq	r0, r0, ip, lsr r0
 2a8:	0000000c 	andeq	r0, r0, ip
 2ac:	00000288 	andeq	r0, r0, r8, lsl #5
 2b0:	0000093c 	andeq	r0, r0, ip, lsr r9
 2b4:	0000004c 	andeq	r0, r0, ip, asr #32
 2b8:	0000000c 	andeq	r0, r0, ip
 2bc:	00000288 	andeq	r0, r0, r8, lsl #5
 2c0:	00000988 	andeq	r0, r0, r8, lsl #19
 2c4:	00000058 	andeq	r0, r0, r8, asr r0
 2c8:	0000000c 	andeq	r0, r0, ip
 2cc:	ffffffff 			; <UNDEFINED> instruction: 0xffffffff
 2d0:	7c020001 	stcvc	0, cr0, [r2], {1}
 2d4:	000d0c0e 	andeq	r0, sp, lr, lsl #24
 2d8:	0000000c 	andeq	r0, r0, ip
 2dc:	000002c8 	andeq	r0, r0, r8, asr #5
 2e0:	00000f40 	andeq	r0, r0, r0, asr #30
 2e4:	00000404 	andeq	r0, r0, r4, lsl #8
 2e8:	0000000c 	andeq	r0, r0, ip
 2ec:	000002c8 	andeq	r0, r0, r8, asr #5
 2f0:	00001344 	andeq	r1, r0, r4, asr #6
 2f4:	000002c4 	andeq	r0, r0, r4, asr #5
 2f8:	0000000c 	andeq	r0, r0, ip
 2fc:	000002c8 	andeq	r0, r0, r8, asr #5
 300:	00001608 	andeq	r1, r0, r8, lsl #12
 304:	00000018 	andeq	r0, r0, r8, lsl r0
 308:	0000000c 	andeq	r0, r0, ip
 30c:	000002c8 	andeq	r0, r0, r8, asr #5
 310:	00001620 	andeq	r1, r0, r0, lsr #12
 314:	00000094 	muleq	r0, r4, r0
 318:	0000000c 	andeq	r0, r0, ip
 31c:	000002c8 	andeq	r0, r0, r8, asr #5
 320:	000016b4 			; <UNDEFINED> instruction: 0x000016b4
 324:	0000000c 	andeq	r0, r0, ip
 328:	0000000c 	andeq	r0, r0, ip
 32c:	000002c8 	andeq	r0, r0, r8, asr #5
 330:	000016c0 	andeq	r1, r0, r0, asr #13
 334:	0000000c 	andeq	r0, r0, ip
 338:	0000000c 	andeq	r0, r0, ip
 33c:	000002c8 	andeq	r0, r0, r8, asr #5
 340:	000016cc 	andeq	r1, r0, ip, asr #13
 344:	00000014 	andeq	r0, r0, r4, lsl r0
 348:	0000000c 	andeq	r0, r0, ip
 34c:	000002c8 	andeq	r0, r0, r8, asr #5
 350:	000016e0 	andeq	r1, r0, r0, ror #13
 354:	00000010 	andeq	r0, r0, r0, lsl r0
 358:	0000000c 	andeq	r0, r0, ip
 35c:	ffffffff 			; <UNDEFINED> instruction: 0xffffffff
 360:	7c020001 	stcvc	0, cr0, [r2], {1}
 364:	000d0c0e 	andeq	r0, sp, lr, lsl #24
 368:	00000018 	andeq	r0, r0, r8, lsl r0
 36c:	00000358 	andeq	r0, r0, r8, asr r3
 370:	000016f0 	strdeq	r1, [r0], -r0
 374:	000000a8 	andeq	r0, r0, r8, lsr #1
 378:	8e100e42 	cdphi	14, 1, cr0, cr0, cr2, {2}
 37c:	84028501 	strhi	r8, [r2], #-1281	; 0x501
 380:	00048303 	andeq	r8, r4, r3, lsl #6
 384:	00000018 	andeq	r0, r0, r8, lsl r0
 388:	00000358 	andeq	r0, r0, r8, asr r3
 38c:	00001798 	muleq	r0, r8, r7
 390:	000000ac 	andeq	r0, r0, ip, lsr #1
 394:	8e100e42 	cdphi	14, 1, cr0, cr0, cr2, {2}
 398:	84028501 	strhi	r8, [r2], #-1281	; 0x501
 39c:	00048303 	andeq	r8, r4, r3, lsl #6
 3a0:	0000000c 	andeq	r0, r0, ip
 3a4:	00000358 	andeq	r0, r0, r8, asr r3
 3a8:	00001844 	andeq	r1, r0, r4, asr #16
 3ac:	00000040 	andeq	r0, r0, r0, asr #32
 3b0:	00000018 	andeq	r0, r0, r8, lsl r0
 3b4:	00000358 	andeq	r0, r0, r8, asr r3
 3b8:	00001884 	andeq	r1, r0, r4, lsl #17
 3bc:	00000084 	andeq	r0, r0, r4, lsl #1
 3c0:	8e100e42 	cdphi	14, 1, cr0, cr0, cr2, {2}
 3c4:	84028501 	strhi	r8, [r2], #-1281	; 0x501
 3c8:	00048303 	andeq	r8, r4, r3, lsl #6
 3cc:	00000014 	andeq	r0, r0, r4, lsl r0
 3d0:	00000358 	andeq	r0, r0, r8, asr r3
 3d4:	00001908 	andeq	r1, r0, r8, lsl #18
 3d8:	000000b0 	strheq	r0, [r0], -r0	; <UNPREDICTABLE>
 3dc:	84040e44 	strhi	r0, [r4], #-3652	; 0xe44
 3e0:	00000001 	andeq	r0, r0, r1
 3e4:	00000014 	andeq	r0, r0, r4, lsl r0
 3e8:	00000358 	andeq	r0, r0, r8, asr r3
 3ec:	000019b8 			; <UNDEFINED> instruction: 0x000019b8
 3f0:	0000008c 	andeq	r0, r0, ip, lsl #1
 3f4:	84040e44 	strhi	r0, [r4], #-3652	; 0xe44
 3f8:	00000001 	andeq	r0, r0, r1
 3fc:	0000000c 	andeq	r0, r0, ip
 400:	00000358 	andeq	r0, r0, r8, asr r3
 404:	00001a44 	andeq	r1, r0, r4, asr #20
 408:	00000014 	andeq	r0, r0, r4, lsl r0
 40c:	0000000c 	andeq	r0, r0, ip
 410:	00000358 	andeq	r0, r0, r8, asr r3
 414:	00001a58 	andeq	r1, r0, r8, asr sl
 418:	00000014 	andeq	r0, r0, r4, lsl r0
 41c:	00000018 	andeq	r0, r0, r8, lsl r0
 420:	00000358 	andeq	r0, r0, r8, asr r3
 424:	00001a6c 	andeq	r1, r0, ip, ror #20
 428:	0000008c 	andeq	r0, r0, ip, lsl #1
 42c:	8e100e42 	cdphi	14, 1, cr0, cr0, cr2, {2}
 430:	84028501 	strhi	r8, [r2], #-1281	; 0x501
 434:	00048303 	andeq	r8, r4, r3, lsl #6
 438:	00000014 	andeq	r0, r0, r4, lsl r0
 43c:	00000358 	andeq	r0, r0, r8, asr r3
 440:	00001af8 	strdeq	r1, [r0], -r8
 444:	000000b0 	strheq	r0, [r0], -r0	; <UNPREDICTABLE>
 448:	84040e44 	strhi	r0, [r4], #-3652	; 0xe44
 44c:	00000001 	andeq	r0, r0, r1
 450:	00000014 	andeq	r0, r0, r4, lsl r0
 454:	00000358 	andeq	r0, r0, r8, asr r3
 458:	00001ba8 	andeq	r1, r0, r8, lsr #23
 45c:	0000008c 	andeq	r0, r0, ip, lsl #1
 460:	84040e44 	strhi	r0, [r4], #-3652	; 0xe44
 464:	00000001 	andeq	r0, r0, r1
 468:	0000000c 	andeq	r0, r0, ip
 46c:	ffffffff 			; <UNDEFINED> instruction: 0xffffffff
 470:	7c020001 	stcvc	0, cr0, [r2], {1}
 474:	000d0c0e 	andeq	r0, sp, lr, lsl #24
 478:	00000020 	andeq	r0, r0, r0, lsr #32
 47c:	00000468 	andeq	r0, r0, r8, ror #8
 480:	00001c34 	andeq	r1, r0, r4, lsr ip
 484:	000000bc 	strheq	r0, [r0], -ip
 488:	8e1c0e42 	cdphi	14, 1, cr0, cr12, cr2, {2}
 48c:	88028a01 	stmdahi	r2, {r0, r9, fp, pc}
 490:	86048703 	strhi	r8, [r4], -r3, lsl #14
 494:	84068505 	strhi	r8, [r6], #-1285	; 0x505
 498:	480e4c07 	stmdami	lr, {r0, r1, r2, sl, fp, lr}
 49c:	0000001c 	andeq	r0, r0, ip, lsl r0
 4a0:	00000468 	andeq	r0, r0, r8, ror #8
 4a4:	00001cf0 	strdeq	r1, [r0], -r0
 4a8:	000000a8 	andeq	r0, r0, r8, lsr #1
 4ac:	87100e42 	ldrhi	r0, [r0, -r2, asr #28]
 4b0:	85028601 	strhi	r8, [r2, #-1537]	; 0x601
 4b4:	4c048403 	cfstrsmi	mvf8, [r4], {3}
 4b8:	0000280e 	andeq	r2, r0, lr, lsl #16
 4bc:	0000001c 	andeq	r0, r0, ip, lsl r0
 4c0:	00000468 	andeq	r0, r0, r8, ror #8
 4c4:	00001d98 	muleq	r0, r8, sp
 4c8:	000000e8 	andeq	r0, r0, r8, ror #1
 4cc:	88140e42 	ldmdahi	r4, {r1, r6, r9, sl, fp}
 4d0:	86028701 	strhi	r8, [r2], -r1, lsl #14
 4d4:	84048503 	strhi	r8, [r4], #-1283	; 0x503
 4d8:	400e4a05 	andmi	r4, lr, r5, lsl #20
 4dc:	00000030 	andeq	r0, r0, r0, lsr r0
 4e0:	00000468 	andeq	r0, r0, r8, ror #8
 4e4:	00001e80 	andeq	r1, r0, r0, lsl #29
 4e8:	000002d0 	ldrdeq	r0, [r0], -r0	; <UNPREDICTABLE>
 4ec:	83100e42 	tsthi	r0, #1056	; 0x420
 4f0:	81028201 	tsthi	r2, r1, lsl #4
 4f4:	42048003 	andmi	r8, r4, #3
 4f8:	058e300e 	streq	r3, [lr, #14]
 4fc:	0789068a 	streq	r0, [r9, sl, lsl #13]
 500:	09870888 	stmibeq	r7, {r3, r7, fp}
 504:	0b850a86 	bleq	fe142f24 <__bss_end+0xfe13f970>
 508:	0e420c84 	cdpeq	12, 4, cr0, cr2, cr4, {4}
 50c:	00000048 	andeq	r0, r0, r8, asr #32
 510:	00000030 	andeq	r0, r0, r0, lsr r0
 514:	00000468 	andeq	r0, r0, r8, ror #8
 518:	00002150 	andeq	r2, r0, r0, asr r1
 51c:	000002d0 	ldrdeq	r0, [r0], -r0	; <UNPREDICTABLE>
 520:	83100e42 	tsthi	r0, #1056	; 0x420
 524:	81028201 	tsthi	r2, r1, lsl #4
 528:	42048003 	andmi	r8, r4, #3
 52c:	058e300e 	streq	r3, [lr, #14]
 530:	0789068a 	streq	r0, [r9, sl, lsl #13]
 534:	09870888 	stmibeq	r7, {r3, r7, fp}
 538:	0b850a86 	bleq	fe142f58 <__bss_end+0xfe13f9a4>
 53c:	0e420c84 	cdpeq	12, 4, cr0, cr2, cr4, {4}
 540:	00000048 	andeq	r0, r0, r8, asr #32
 544:	0000000c 	andeq	r0, r0, ip
 548:	ffffffff 			; <UNDEFINED> instruction: 0xffffffff
 54c:	7c020001 	stcvc	0, cr0, [r2], {1}
 550:	000d0c0e 	andeq	r0, sp, lr, lsl #24
 554:	0000000c 	andeq	r0, r0, ip
 558:	00000544 	andeq	r0, r0, r4, asr #10
 55c:	000025fc 	strdeq	r2, [r0], -ip
 560:	0000000c 	andeq	r0, r0, ip
 564:	0000000c 	andeq	r0, r0, ip
 568:	00000544 	andeq	r0, r0, r4, asr #10
 56c:	00002608 	andeq	r2, r0, r8, lsl #12
 570:	0000004c 	andeq	r0, r0, ip, asr #32
 574:	0000000c 	andeq	r0, r0, ip
 578:	ffffffff 			; <UNDEFINED> instruction: 0xffffffff
 57c:	7c020001 	stcvc	0, cr0, [r2], {1}
 580:	000d0c0e 	andeq	r0, sp, lr, lsl #24
 584:	00000014 	andeq	r0, r0, r4, lsl r0
 588:	00000574 	andeq	r0, r0, r4, ror r5
 58c:	00002654 	andeq	r2, r0, r4, asr r6
 590:	00000090 	muleq	r0, r0, r0
 594:	8e080e48 	cdphi	14, 0, cr0, cr8, cr8, {2}
 598:	00028401 	andeq	r8, r2, r1, lsl #8
 59c:	00000010 	andeq	r0, r0, r0, lsl r0
 5a0:	00000574 	andeq	r0, r0, r4, ror r5
 5a4:	000026e4 	andeq	r2, r0, r4, ror #13
 5a8:	00000054 	andeq	r0, r0, r4, asr r0
 5ac:	00080e44 	andeq	r0, r8, r4, asr #28
 5b0:	0000000c 	andeq	r0, r0, ip
 5b4:	00000574 	andeq	r0, r0, r4, ror r5
 5b8:	00002738 	andeq	r2, r0, r8, lsr r7
 5bc:	0000005c 	andeq	r0, r0, ip, asr r0
 5c0:	0000000c 	andeq	r0, r0, ip
 5c4:	00000574 	andeq	r0, r0, r4, ror r5
 5c8:	00002794 	muleq	r0, r4, r7
 5cc:	0000005c 	andeq	r0, r0, ip, asr r0
 5d0:	0000000c 	andeq	r0, r0, ip
 5d4:	ffffffff 			; <UNDEFINED> instruction: 0xffffffff
 5d8:	7c020001 	stcvc	0, cr0, [r2], {1}
 5dc:	000d0c0e 	andeq	r0, sp, lr, lsl #24
 5e0:	0000000c 	andeq	r0, r0, ip
 5e4:	000005d0 	ldrdeq	r0, [r0], -r0	; <UNPREDICTABLE>
 5e8:	000027f0 	strdeq	r2, [r0], -r0
 5ec:	0000002c 	andeq	r0, r0, ip, lsr #32
 5f0:	0000000c 	andeq	r0, r0, ip
 5f4:	000005d0 	ldrdeq	r0, [r0], -r0	; <UNPREDICTABLE>
 5f8:	0000281c 	andeq	r2, r0, ip, lsl r8
 5fc:	0000002c 	andeq	r0, r0, ip, lsr #32
 600:	0000000c 	andeq	r0, r0, ip
 604:	000005d0 	ldrdeq	r0, [r0], -r0	; <UNPREDICTABLE>
 608:	00002848 	andeq	r2, r0, r8, asr #16
 60c:	00000048 	andeq	r0, r0, r8, asr #32
 610:	0000000c 	andeq	r0, r0, ip
 614:	ffffffff 			; <UNDEFINED> instruction: 0xffffffff
 618:	7c020001 	stcvc	0, cr0, [r2], {1}
 61c:	000d0c0e 	andeq	r0, sp, lr, lsl #24
 620:	0000000c 	andeq	r0, r0, ip
 624:	00000610 	andeq	r0, r0, r0, lsl r6
 628:	00002890 	muleq	r0, r0, r8
 62c:	00000060 	andeq	r0, r0, r0, rrx
 630:	0000000c 	andeq	r0, r0, ip
 634:	00000610 	andeq	r0, r0, r0, lsl r6
 638:	000028f0 	strdeq	r2, [r0], -r0
 63c:	00000050 	andeq	r0, r0, r0, asr r0
 640:	0000000c 	andeq	r0, r0, ip
 644:	00000610 	andeq	r0, r0, r0, lsl r6
 648:	00002940 	andeq	r2, r0, r0, asr #18
 64c:	00000038 	andeq	r0, r0, r8, lsr r0
 650:	0000000c 	andeq	r0, r0, ip
 654:	00000610 	andeq	r0, r0, r0, lsl r6
 658:	00002978 	andeq	r2, r0, r8, ror r9
 65c:	00000028 	andeq	r0, r0, r8, lsr #32
 660:	0000000c 	andeq	r0, r0, ip
 664:	00000610 	andeq	r0, r0, r0, lsl r6
 668:	000029a0 	andeq	r2, r0, r0, lsr #19
 66c:	00000048 	andeq	r0, r0, r8, asr #32
 670:	0000000c 	andeq	r0, r0, ip
 674:	00000610 	andeq	r0, r0, r0, lsl r6
 678:	000029e8 	andeq	r2, r0, r8, ror #19
 67c:	00000040 	andeq	r0, r0, r0, asr #32
 680:	0000000c 	andeq	r0, r0, ip
 684:	00000610 	andeq	r0, r0, r0, lsl r6
 688:	00002a28 	andeq	r2, r0, r8, lsr #20
 68c:	00000050 	andeq	r0, r0, r0, asr r0
 690:	0000000c 	andeq	r0, r0, ip
 694:	ffffffff 			; <UNDEFINED> instruction: 0xffffffff
 698:	7c020001 	stcvc	0, cr0, [r2], {1}
 69c:	000d0c0e 	andeq	r0, sp, lr, lsl #24
 6a0:	0000000c 	andeq	r0, r0, ip
 6a4:	00000690 	muleq	r0, r0, r6
 6a8:	00002a78 	andeq	r2, r0, r8, ror sl
 6ac:	00000030 	andeq	r0, r0, r0, lsr r0
 6b0:	0000000c 	andeq	r0, r0, ip
 6b4:	00000690 	muleq	r0, r0, r6
 6b8:	00002aa8 	andeq	r2, r0, r8, lsr #21
 6bc:	00000028 	andeq	r0, r0, r8, lsr #32
 6c0:	0000000c 	andeq	r0, r0, ip
 6c4:	ffffffff 			; <UNDEFINED> instruction: 0xffffffff
 6c8:	7c020001 	stcvc	0, cr0, [r2], {1}
 6cc:	000d0c0e 	andeq	r0, sp, lr, lsl #24
 6d0:	0000000c 	andeq	r0, r0, ip
 6d4:	000006c0 	andeq	r0, r0, r0, asr #13
 6d8:	00002ad0 	ldrdeq	r2, [r0], -r0
 6dc:	00000030 	andeq	r0, r0, r0, lsr r0
 6e0:	00000014 	andeq	r0, r0, r4, lsl r0
 6e4:	000006c0 	andeq	r0, r0, r0, asr #13
 6e8:	00002b00 	andeq	r2, r0, r0, lsl #22
 6ec:	0000007c 	andeq	r0, r0, ip, ror r0
 6f0:	8e080e42 	cdphi	14, 0, cr0, cr8, cr2, {2}
 6f4:	00028301 	andeq	r8, r2, r1, lsl #6
 6f8:	0000000c 	andeq	r0, r0, ip
 6fc:	000006c0 	andeq	r0, r0, r0, asr #13
 700:	00002b7c 	andeq	r2, r0, ip, ror fp
 704:	00000030 	andeq	r0, r0, r0, lsr r0
 708:	0000000c 	andeq	r0, r0, ip
 70c:	000006c0 	andeq	r0, r0, r0, asr #13
 710:	00002bac 	andeq	r2, r0, ip, lsr #23
 714:	0000006c 	andeq	r0, r0, ip, rrx
 718:	0000000c 	andeq	r0, r0, ip
 71c:	000006c0 	andeq	r0, r0, r0, asr #13
 720:	00002c18 	andeq	r2, r0, r8, lsl ip
 724:	00000030 	andeq	r0, r0, r0, lsr r0
 728:	0000000c 	andeq	r0, r0, ip
 72c:	ffffffff 			; <UNDEFINED> instruction: 0xffffffff
 730:	7c020001 	stcvc	0, cr0, [r2], {1}
 734:	000d0c0e 	andeq	r0, sp, lr, lsl #24
 738:	0000000c 	andeq	r0, r0, ip
 73c:	00000728 	andeq	r0, r0, r8, lsr #14
 740:	00002c48 	andeq	r2, r0, r8, asr #24
 744:	00000030 	andeq	r0, r0, r0, lsr r0
 748:	0000000c 	andeq	r0, r0, ip
 74c:	00000728 	andeq	r0, r0, r8, lsr #14
 750:	00002c78 	andeq	r2, r0, r8, ror ip
 754:	00000010 	andeq	r0, r0, r0, lsl r0
 758:	0000000c 	andeq	r0, r0, ip
 75c:	00000728 	andeq	r0, r0, r8, lsr #14
 760:	00002c88 	andeq	r2, r0, r8, lsl #25
 764:	0000003c 	andeq	r0, r0, ip, lsr r0
 768:	0000000c 	andeq	r0, r0, ip
 76c:	00000728 	andeq	r0, r0, r8, lsr #14
 770:	00002cc4 	andeq	r2, r0, r4, asr #25
 774:	00000034 	andeq	r0, r0, r4, lsr r0
 778:	00000018 	andeq	r0, r0, r8, lsl r0
 77c:	00000728 	andeq	r0, r0, r8, lsr #14
 780:	00002cf8 	strdeq	r2, [r0], -r8
 784:	00000070 	andeq	r0, r0, r0, ror r0
 788:	8e100e42 	cdphi	14, 1, cr0, cr0, cr2, {2}
 78c:	84028501 	strhi	r8, [r2], #-1281	; 0x501
 790:	00048303 	andeq	r8, r4, r3, lsl #6
 794:	00000014 	andeq	r0, r0, r4, lsl r0
 798:	00000728 	andeq	r0, r0, r8, lsr #14
 79c:	00002d68 	andeq	r2, r0, r8, ror #26
 7a0:	00000048 	andeq	r0, r0, r8, asr #32
 7a4:	84040e44 	strhi	r0, [r4], #-3652	; 0xe44
 7a8:	00000001 	andeq	r0, r0, r1
 7ac:	00000014 	andeq	r0, r0, r4, lsl r0
 7b0:	00000728 	andeq	r0, r0, r8, lsr #14
 7b4:	00002db0 			; <UNDEFINED> instruction: 0x00002db0
 7b8:	00000054 	andeq	r0, r0, r4, asr r0
 7bc:	84040e4c 	strhi	r0, [r4], #-3660	; 0xe4c
 7c0:	00000001 	andeq	r0, r0, r1
 7c4:	00000014 	andeq	r0, r0, r4, lsl r0
 7c8:	00000728 	andeq	r0, r0, r8, lsr #14
 7cc:	00002e04 	andeq	r2, r0, r4, lsl #28
 7d0:	00000048 	andeq	r0, r0, r8, asr #32
 7d4:	85080e4a 	strhi	r0, [r8, #-3658]	; 0xe4a
 7d8:	00028401 	andeq	r8, r2, r1, lsl #8
 7dc:	0000000c 	andeq	r0, r0, ip
 7e0:	00000728 	andeq	r0, r0, r8, lsr #14
 7e4:	00002e4c 	andeq	r2, r0, ip, asr #28
 7e8:	000000b4 	strheq	r0, [r0], -r4
 7ec:	0000000c 	andeq	r0, r0, ip
 7f0:	00000728 	andeq	r0, r0, r8, lsr #14
 7f4:	00002f00 	andeq	r2, r0, r0, lsl #30
 7f8:	00000090 	muleq	r0, r0, r0
 7fc:	00000014 	andeq	r0, r0, r4, lsl r0
 800:	00000728 	andeq	r0, r0, r8, lsr #14
 804:	00002f90 	muleq	r0, r0, pc	; <UNPREDICTABLE>
 808:	0000005c 	andeq	r0, r0, ip, asr r0
 80c:	84040e44 	strhi	r0, [r4], #-3652	; 0xe44
 810:	00000001 	andeq	r0, r0, r1

Disassembly of section .debug_ranges:

00000000 <.debug_ranges>:
   0:	000000e4 	andeq	r0, r0, r4, ror #1
   4:	000000f4 	strdeq	r0, [r0], -r4
   8:	000000fc 	strdeq	r0, [r0], -ip
   c:	00000108 	andeq	r0, r0, r8, lsl #2
	...
  18:	000000e4 	andeq	r0, r0, r4, ror #1
  1c:	000000f4 	strdeq	r0, [r0], -r4
  20:	000000fc 	strdeq	r0, [r0], -ip
  24:	00000108 	andeq	r0, r0, r8, lsl #2
	...
  30:	000001d0 	ldrdeq	r0, [r0], -r0	; <UNPREDICTABLE>
  34:	000001d8 	ldrdeq	r0, [r0], -r8
  38:	00000210 	andeq	r0, r0, r0, lsl r2
  3c:	00000214 	andeq	r0, r0, r4, lsl r2
	...
  48:	0000023c 	andeq	r0, r0, ip, lsr r2
  4c:	00000240 	andeq	r0, r0, r0, asr #4
  50:	00000244 	andeq	r0, r0, r4, asr #4
  54:	0000024c 	andeq	r0, r0, ip, asr #4
  58:	00000298 	muleq	r0, r8, r2
  5c:	000002c8 	andeq	r0, r0, r8, asr #5
	...
  68:	000002f4 	strdeq	r0, [r0], -r4
  6c:	000002f8 	strdeq	r0, [r0], -r8
  70:	000002fc 	strdeq	r0, [r0], -ip
  74:	00000300 	andeq	r0, r0, r0, lsl #6
  78:	00000308 	andeq	r0, r0, r8, lsl #6
  7c:	00000324 	andeq	r0, r0, r4, lsr #6
  80:	0000032c 	andeq	r0, r0, ip, lsr #6
  84:	00000334 	andeq	r0, r0, r4, lsr r3
	...
  90:	000002f4 	strdeq	r0, [r0], -r4
  94:	000002f8 	strdeq	r0, [r0], -r8
  98:	000002fc 	strdeq	r0, [r0], -ip
  9c:	00000300 	andeq	r0, r0, r0, lsl #6
  a0:	00000308 	andeq	r0, r0, r8, lsl #6
  a4:	00000324 	andeq	r0, r0, r4, lsr #6
  a8:	0000032c 	andeq	r0, r0, ip, lsr #6
  ac:	00000334 	andeq	r0, r0, r4, lsr r3
	...
  b8:	0000042c 	andeq	r0, r0, ip, lsr #8
  bc:	00000430 	andeq	r0, r0, r0, lsr r4
  c0:	00000434 	andeq	r0, r0, r4, lsr r4
  c4:	0000043c 	andeq	r0, r0, ip, lsr r4
  c8:	00000488 	andeq	r0, r0, r8, lsl #9
  cc:	000004b8 			; <UNDEFINED> instruction: 0x000004b8
	...
  d8:	000004e4 	andeq	r0, r0, r4, ror #9
  dc:	000004e8 	andeq	r0, r0, r8, ror #9
  e0:	000004ec 	andeq	r0, r0, ip, ror #9
  e4:	000004f0 	strdeq	r0, [r0], -r0	; <UNPREDICTABLE>
  e8:	000004f8 	strdeq	r0, [r0], -r8
  ec:	00000514 	andeq	r0, r0, r4, lsl r5
  f0:	0000051c 	andeq	r0, r0, ip, lsl r5
  f4:	00000524 	andeq	r0, r0, r4, lsr #10
	...
 100:	000004e4 	andeq	r0, r0, r4, ror #9
 104:	000004e8 	andeq	r0, r0, r8, ror #9
 108:	000004ec 	andeq	r0, r0, ip, ror #9
 10c:	000004f0 	strdeq	r0, [r0], -r0	; <UNPREDICTABLE>
 110:	000004f8 	strdeq	r0, [r0], -r8
 114:	00000514 	andeq	r0, r0, r4, lsl r5
 118:	0000051c 	andeq	r0, r0, ip, lsl r5
 11c:	00000524 	andeq	r0, r0, r4, lsr #10
	...
 128:	000000f8 	strdeq	r0, [r0], -r8
 12c:	000000fc 	strdeq	r0, [r0], -ip
 130:	00000100 	andeq	r0, r0, r0, lsl #2
 134:	00000154 	andeq	r0, r0, r4, asr r1
	...
 140:	000000f8 	strdeq	r0, [r0], -r8
 144:	000000fc 	strdeq	r0, [r0], -ip
 148:	00000100 	andeq	r0, r0, r0, lsl #2
 14c:	00000154 	andeq	r0, r0, r4, asr r1
	...
 158:	000000b0 	strheq	r0, [r0], -r0	; <UNPREDICTABLE>
 15c:	000000b4 	strheq	r0, [r0], -r4
 160:	000000c0 	andeq	r0, r0, r0, asr #1
 164:	000000c4 	andeq	r0, r0, r4, asr #1
 168:	000000c8 	andeq	r0, r0, r8, asr #1
 16c:	000000cc 	andeq	r0, r0, ip, asr #1
 170:	000000d0 	ldrdeq	r0, [r0], -r0	; <UNPREDICTABLE>
 174:	000000d4 	ldrdeq	r0, [r0], -r4
	...
 180:	0000014c 	andeq	r0, r0, ip, asr #2
 184:	00000150 	andeq	r0, r0, r0, asr r1
 188:	0000015c 	andeq	r0, r0, ip, asr r1
 18c:	00000160 	andeq	r0, r0, r0, ror #2
 190:	00000164 	andeq	r0, r0, r4, ror #2
 194:	00000168 	andeq	r0, r0, r8, ror #2
 198:	0000016c 	andeq	r0, r0, ip, ror #2
 19c:	00000170 	andeq	r0, r0, r0, ror r1
	...
